
/home/calixto/anzal/rz_atf/rzg_trusted-firmware-a/build/g2l/release/bl31/bl31.elf:     file format elf64-littleaarch64
/home/calixto/anzal/rz_atf/rzg_trusted-firmware-a/build/g2l/release/bl31/bl31.elf
architecture: aarch64, flags 0x00000112:
EXEC_P, HAS_SYMS, D_PAGED
start address 0x0000000044000000

Program Header:
    LOAD off    0x0000000000010000 vaddr 0x0000000044000000 paddr 0x0000000044000000 align 2**16
         filesz 0x0000000000007069 memsz 0x0000000000010000 flags rwx
   STACK off    0x0000000000000000 vaddr 0x0000000000000000 paddr 0x0000000000000000 align 2**4
         filesz 0x0000000000000000 memsz 0x0000000000000000 flags rw-
private flags = 0:

Sections:
Idx Name          Size      VMA               LMA               File off  Algn
  0 ro            00007000  0000000044000000  0000000044000000  00010000  2**11
                  CONTENTS, ALLOC, LOAD, CODE
  1 .data         00000069  0000000044007000  0000000044007000  00017000  2**3
                  CONTENTS, ALLOC, LOAD, DATA
  2 stacks        00002000  0000000044007080  0000000044007080  00017069  2**6
                  ALLOC
  3 .bss          00000960  0000000044009080  0000000044009080  00017069  2**6
                  ALLOC
  4 xlat_table    00006000  000000004400a000  000000004400a000  00017069  2**12
                  ALLOC
  5 .debug_info   00020382  0000000000000000  0000000000000000  00017069  2**0
                  CONTENTS, READONLY, DEBUGGING
  6 .debug_abbrev 00007690  0000000000000000  0000000000000000  000373eb  2**0
                  CONTENTS, READONLY, DEBUGGING
  7 .debug_aranges 00001930  0000000000000000  0000000000000000  0003ea7b  2**0
                  CONTENTS, READONLY, DEBUGGING
  8 .debug_line   0000cff2  0000000000000000  0000000000000000  000403ab  2**0
                  CONTENTS, READONLY, DEBUGGING
  9 .debug_str    00004fef  0000000000000000  0000000000000000  0004d39d  2**0
                  CONTENTS, READONLY, DEBUGGING
 10 .comment      00000011  0000000000000000  0000000000000000  0005238c  2**0
                  CONTENTS, READONLY
 11 .debug_loc    0001e7ea  0000000000000000  0000000000000000  0005239d  2**0
                  CONTENTS, READONLY, DEBUGGING
 12 .debug_ranges 00006570  0000000000000000  0000000000000000  00070b87  2**0
                  CONTENTS, READONLY, DEBUGGING
 13 .debug_frame  00000be8  0000000000000000  0000000000000000  000770f8  2**3
                  CONTENTS, READONLY, DEBUGGING
SYMBOL TABLE:
0000000044000000 l    d  ro	0000000000000000 ro
0000000044007000 l    d  .data	0000000000000000 .data
0000000044007080 l    d  stacks	0000000000000000 stacks
0000000044009080 l    d  .bss	0000000000000000 .bss
000000004400a000 l    d  xlat_table	0000000000000000 xlat_table
0000000000000000 l    d  .debug_info	0000000000000000 .debug_info
0000000000000000 l    d  .debug_abbrev	0000000000000000 .debug_abbrev
0000000000000000 l    d  .debug_aranges	0000000000000000 .debug_aranges
0000000000000000 l    d  .debug_line	0000000000000000 .debug_line
0000000000000000 l    d  .debug_str	0000000000000000 .debug_str
0000000000000000 l    d  .comment	0000000000000000 .comment
0000000000000000 l    d  .debug_loc	0000000000000000 .debug_loc
0000000000000000 l    d  .debug_ranges	0000000000000000 .debug_ranges
0000000000000000 l    d  .debug_frame	0000000000000000 .debug_frame
0000000000000000 l    df *ABS*	0000000000000000 /home/calixto/anzal/rz_atf/rzg_trusted-firmware-a/build/g2l/release/bl31/bl31_entrypoint.o
0000000000000000 l    df *ABS*	0000000000000000 bl31_context_mgmt.c
0000000000000000 l    df *ABS*	0000000000000000 bl31_main.c
0000000044009580 l     O .bss	0000000000000008 bl32_init
0000000044007060 l     O .data	0000000000000004 next_image_type
0000000044005540 l     O ro	0000000000000010 psci_args.3287
0000000000000000 l    df *ABS*	0000000000000000 interrupt_mgmt.c
0000000044009588 l     O .bss	0000000000000060 intr_type_descs
0000000000000000 l    df *ABS*	0000000000000000 runtime_svc.c
0000000000000000 l    df *ABS*	0000000000000000 gic-x00.c
0000000000000000 l    df *ABS*	0000000000000000 gicdv3_helpers.c
0000000000000000 l    df *ABS*	0000000000000000 gicrv3_helpers.c
0000000000000000 l    df *ABS*	0000000000000000 gicv3_helpers.c
0000000000000000 l    df *ABS*	0000000000000000 gicv3_main.c
0000000000000000 l    df *ABS*	0000000000000000 tzc400.c
0000000044009670 l     O .bss	0000000000000010 tzc400
0000000000000000 l    df *ABS*	0000000000000000 context_mgmt.c
0000000000000000 l    df *ABS*	0000000000000000 spe.c
0000000044001320 l     F ro	0000000000000024 spe_drain_buffers_hook
0000000000000000 l    df *ABS*	0000000000000000 sve.c
0000000000000000 l    df *ABS*	0000000000000000 psci_common.c
00000000440096d0 l     O .bss	0000000000000004 psci_req_local_pwr_states
0000000000000000 l    df *ABS*	0000000000000000 psci_main.c
0000000000000000 l    df *ABS*	0000000000000000 psci_mem_protect.c
0000000000000000 l    df *ABS*	0000000000000000 psci_off.c
0000000000000000 l    df *ABS*	0000000000000000 psci_on.c
0000000000000000 l    df *ABS*	0000000000000000 psci_setup.c
0000000044009100 l     O .bss	0000000000000480 psci_ns_context
0000000000000000 l    df *ABS*	0000000000000000 psci_suspend.c
0000000000000000 l    df *ABS*	0000000000000000 psci_system_off.c
0000000000000000 l    df *ABS*	0000000000000000 plat_gicv3.c
0000000044005680 l     O ro	0000000000000010 CSWTCH.3
0000000000000000 l    df *ABS*	0000000000000000 plat_psci_common.c
0000000000000000 l    df *ABS*	0000000000000000 bl31_plat_setup.c
00000000440096e0 l     O .bss	00000000000000b0 from_bl2
0000000044009790 l     O .bss	0000000000000030 rzg2l_bl31_console
0000000044005690 l     O ro	00000000000000a0 rzg2l_mmap
0000000000000000 l    df *ABS*	0000000000000000 syc.c
0000000000000000 l    df *ABS*	0000000000000000 plat_gic.c
0000000044003078 l     F ro	0000000000000010 plat_mpidr_to_core_pos
0000000000000000 l    df *ABS*	0000000000000000 plat_pm.c
0000000044003100 l     F ro	0000000000000174 rzg2l_pwr_domain_on
0000000044003278 l     F ro	0000000000000020 rzg2l_system_off
0000000044003298 l     F ro	0000000000000014 rzg2l_pwr_domain_on_finish
00000000440032b0 l     F ro	0000000000000070 rzg2l_pwr_domain_off
0000000000000000 l    df *ABS*	0000000000000000 plat_security.c
0000000000000000 l    df *ABS*	0000000000000000 plat_topology.c
0000000044005838 l     O ro	0000000000000003 rzg2l_power_domain_tree_desc
0000000000000000 l    df *ABS*	0000000000000000 rz_plat_sip_handler.c
0000000000000000 l    df *ABS*	0000000000000000 rz_sip_svc.c
0000000044003508 l     F ro	0000000000000004 rz_sip_handler
00000000440059f8 l     O ro	0000000000000020 __svc_desc_rz_sip_svc
0000000000000000 l    df *ABS*	0000000000000000 arm_arch_svc_setup.c
0000000044003510 l     F ro	00000000000001a0 arm_arch_svc_smc_handler
0000000044005a18 l     O ro	0000000000000020 __svc_desc_arm_arch_svc
0000000000000000 l    df *ABS*	0000000000000000 std_svc_setup.c
00000000440036b0 l     F ro	0000000000000024 std_svc_setup
00000000440036d8 l     F ro	00000000000000dc std_svc_smc_handler
0000000044005a38 l     O ro	0000000000000020 __svc_desc_std_svc
0000000000000000 l    df *ABS*	0000000000000000 bl_common.c
0000000000000000 l    df *ABS*	0000000000000000 tf_log.c
0000000044007064 l     O .data	0000000000000004 max_log_level
0000000000000000 l    df *ABS*	0000000000000000 multi_console.c
0000000000000000 l    df *ABS*	0000000000000000 plat_bl_common.c
0000000000000000 l    df *ABS*	0000000000000000 plat_log_common.c
0000000044005868 l     O ro	0000000000000028 plat_prefix_str
0000000000000000 l    df *ABS*	0000000000000000 plat_common.c
0000000000000000 l    df *ABS*	0000000000000000 xlat_tables_arch.c
0000000000000000 l    df *ABS*	0000000000000000 xlat_tables_context.c
00000000440097f8 l     O .bss	0000000000000190 tf_mmap
0000000044007000 l     O .data	0000000000000060 tf_xlat_ctx
000000004400a000 l     O xlat_table	0000000000006000 tf_xlat_tables
00000000440099c0 l     O .bss	0000000000000020 tf_base_xlat_table
0000000000000000 l    df *ABS*	0000000000000000 xlat_tables_core.c
0000000044003db0 l     F ro	0000000000000250 xlat_tables_map_region
0000000000000000 l    df *ABS*	0000000000000000 xlat_tables_utils.c
0000000000000000 l    df *ABS*	0000000000000000 plat_rz_common.c
0000000000000000 l    df *ABS*	0000000000000000 memcpy.c
0000000000000000 l    df *ABS*	0000000000000000 memmove.c
0000000000000000 l    df *ABS*	0000000000000000 memset.c
0000000000000000 l    df *ABS*	0000000000000000 printf.c
00000000440044e8 l     F ro	00000000000000dc unsigned_num_print
0000000000000000 l    df *ABS*	0000000000000000 putchar.c
0000000000000000 l    df *ABS*	0000000000000000 /home/calixto/anzal/rz_atf/rzg_trusted-firmware-a/build/g2l/release/bl31/crash_reporting.o
0000000000000000 l    df *ABS*	0000000000000000 /home/calixto/anzal/rz_atf/rzg_trusted-firmware-a/build/g2l/release/bl31/ea_delegate.o
0000000000000008 l       *ABS*	0000000000000000 CPU_MIDR_SIZE
0000000000000008 l       *ABS*	0000000000000000 CPU_EXTRA1_FUNC_SIZE
0000000000000008 l       *ABS*	0000000000000000 CPU_EXTRA2_FUNC_SIZE
0000000000000008 l       *ABS*	0000000000000000 CPU_EXTRA3_FUNC_SIZE
0000000000000008 l       *ABS*	0000000000000000 CPU_E_HANDLER_FUNC_SIZE
0000000000000008 l       *ABS*	0000000000000000 CPU_RESET_FUNC_SIZE
0000000000000010 l       *ABS*	0000000000000000 CPU_PWR_DWN_OPS_SIZE
0000000000000000 l       *ABS*	0000000000000000 CPU_ERRATA_FUNC_SIZE
0000000000000000 l       *ABS*	0000000000000000 CPU_ERRATA_LOCK_SIZE
0000000000000000 l       *ABS*	0000000000000000 CPU_ERRATA_PRINTED_SIZE
0000000000000000 l       *ABS*	0000000000000000 CPU_REG_DUMP_SIZE
0000000000000000 l       *ABS*	0000000000000000 CPU_MIDR
0000000000000008 l       *ABS*	0000000000000000 CPU_RESET_FUNC
0000000000000010 l       *ABS*	0000000000000000 CPU_EXTRA1_FUNC
0000000000000018 l       *ABS*	0000000000000000 CPU_EXTRA2_FUNC
0000000000000020 l       *ABS*	0000000000000000 CPU_EXTRA3_FUNC
0000000000000028 l       *ABS*	0000000000000000 CPU_E_HANDLER_FUNC
0000000000000030 l       *ABS*	0000000000000000 CPU_PWR_DWN_OPS
0000000000000040 l       *ABS*	0000000000000000 CPU_ERRATA_FUNC
0000000000000040 l       *ABS*	0000000000000000 CPU_ERRATA_LOCK
0000000000000040 l       *ABS*	0000000000000000 CPU_ERRATA_PRINTED
0000000000000040 l       *ABS*	0000000000000000 CPU_REG_DUMP
0000000000000040 l       *ABS*	0000000000000000 CPU_OPS_SIZE
0000000044004bac l     F ro	0000000000000068 ea_proceed
0000000044004ba4 l     F ro	0000000000000004 delegate_sync_ea
0000000044004ba8 l     F ro	0000000000000004 delegate_async_ea
0000000000000000 l    df *ABS*	0000000000000000 /home/calixto/anzal/rz_atf/rzg_trusted-firmware-a/build/g2l/release/bl31/runtime_exceptions.o
0000000044006390 l       ro	0000000000000000 exp_from_EL3
0000000044004c14 l       ro	0000000000000000 smc_handler32
0000000044004c18 l       ro	0000000000000000 smc_handler64
00000000440064f8 l       ro	0000000000000000 interrupt_exit_irq_aarch64
0000000044006578 l       ro	0000000000000000 interrupt_exit_fiq_aarch64
00000000440066f8 l       ro	0000000000000000 interrupt_exit_irq_aarch32
0000000044006778 l       ro	0000000000000000 interrupt_exit_fiq_aarch32
0000000044004c14 l     F ro	00000000000000a0 smc_handler
0000000044004c88 l       ro	0000000000000000 smc_prohibited
0000000044004c7c l       ro	0000000000000000 smc_unknown
0000000000000000 l    df *ABS*	0000000000000000 /home/calixto/anzal/rz_atf/rzg_trusted-firmware-a/build/g2l/release/bl31/cortex_a55.o
0000000000000008 l       *ABS*	0000000000000000 CPU_MIDR_SIZE
0000000000000008 l       *ABS*	0000000000000000 CPU_EXTRA1_FUNC_SIZE
0000000000000008 l       *ABS*	0000000000000000 CPU_EXTRA2_FUNC_SIZE
0000000000000008 l       *ABS*	0000000000000000 CPU_EXTRA3_FUNC_SIZE
0000000000000008 l       *ABS*	0000000000000000 CPU_E_HANDLER_FUNC_SIZE
0000000000000008 l       *ABS*	0000000000000000 CPU_RESET_FUNC_SIZE
0000000000000010 l       *ABS*	0000000000000000 CPU_PWR_DWN_OPS_SIZE
0000000000000000 l       *ABS*	0000000000000000 CPU_ERRATA_FUNC_SIZE
0000000000000000 l       *ABS*	0000000000000000 CPU_ERRATA_LOCK_SIZE
0000000000000000 l       *ABS*	0000000000000000 CPU_ERRATA_PRINTED_SIZE
0000000000000000 l       *ABS*	0000000000000000 CPU_REG_DUMP_SIZE
0000000000000000 l       *ABS*	0000000000000000 CPU_MIDR
0000000000000008 l       *ABS*	0000000000000000 CPU_RESET_FUNC
0000000000000010 l       *ABS*	0000000000000000 CPU_EXTRA1_FUNC
0000000000000018 l       *ABS*	0000000000000000 CPU_EXTRA2_FUNC
0000000000000020 l       *ABS*	0000000000000000 CPU_EXTRA3_FUNC
0000000000000028 l       *ABS*	0000000000000000 CPU_E_HANDLER_FUNC
0000000000000030 l       *ABS*	0000000000000000 CPU_PWR_DWN_OPS
0000000000000040 l       *ABS*	0000000000000000 CPU_ERRATA_FUNC
0000000000000040 l       *ABS*	0000000000000000 CPU_ERRATA_LOCK
0000000000000040 l       *ABS*	0000000000000000 CPU_ERRATA_PRINTED
0000000000000040 l       *ABS*	0000000000000000 CPU_REG_DUMP
0000000000000040 l       *ABS*	0000000000000000 CPU_OPS_SIZE
0000000044004cb4 l     F ro	0000000000000010 cortex_a55_reset_func
0000000044004cc4 l     F ro	0000000000000014 cortex_a55_core_pwr_dwn
0000000000000000 l    df *ABS*	0000000000000000 /home/calixto/anzal/rz_atf/rzg_trusted-firmware-a/build/g2l/release/bl31/cpu_helpers.o
0000000000000008 l       *ABS*	0000000000000000 CPU_MIDR_SIZE
0000000000000008 l       *ABS*	0000000000000000 CPU_EXTRA1_FUNC_SIZE
0000000000000008 l       *ABS*	0000000000000000 CPU_EXTRA2_FUNC_SIZE
0000000000000008 l       *ABS*	0000000000000000 CPU_EXTRA3_FUNC_SIZE
0000000000000008 l       *ABS*	0000000000000000 CPU_E_HANDLER_FUNC_SIZE
0000000000000008 l       *ABS*	0000000000000000 CPU_RESET_FUNC_SIZE
0000000000000010 l       *ABS*	0000000000000000 CPU_PWR_DWN_OPS_SIZE
0000000000000000 l       *ABS*	0000000000000000 CPU_ERRATA_FUNC_SIZE
0000000000000000 l       *ABS*	0000000000000000 CPU_ERRATA_LOCK_SIZE
0000000000000000 l       *ABS*	0000000000000000 CPU_ERRATA_PRINTED_SIZE
0000000000000000 l       *ABS*	0000000000000000 CPU_REG_DUMP_SIZE
0000000000000000 l       *ABS*	0000000000000000 CPU_MIDR
0000000000000008 l       *ABS*	0000000000000000 CPU_RESET_FUNC
0000000000000010 l       *ABS*	0000000000000000 CPU_EXTRA1_FUNC
0000000000000018 l       *ABS*	0000000000000000 CPU_EXTRA2_FUNC
0000000000000020 l       *ABS*	0000000000000000 CPU_EXTRA3_FUNC
0000000000000028 l       *ABS*	0000000000000000 CPU_E_HANDLER_FUNC
0000000000000030 l       *ABS*	0000000000000000 CPU_PWR_DWN_OPS
0000000000000040 l       *ABS*	0000000000000000 CPU_ERRATA_FUNC
0000000000000040 l       *ABS*	0000000000000000 CPU_ERRATA_LOCK
0000000000000040 l       *ABS*	0000000000000000 CPU_ERRATA_PRINTED
0000000000000040 l       *ABS*	0000000000000000 CPU_REG_DUMP
0000000000000040 l       *ABS*	0000000000000000 CPU_OPS_SIZE
0000000044004d78 l       ro	0000000000000000 search_def_ptr
0000000000000000 l    df *ABS*	0000000000000000 /home/calixto/anzal/rz_atf/rzg_trusted-firmware-a/build/g2l/release/bl31/context.o
0000000044004fc4 l       ro	0000000000000000 sve_not_enabled
0000000000000000 l    df *ABS*	0000000000000000 /home/calixto/anzal/rz_atf/rzg_trusted-firmware-a/build/g2l/release/bl31/cpu_data.o
0000000000000000 l    df *ABS*	0000000000000000 /home/calixto/anzal/rz_atf/rzg_trusted-firmware-a/build/g2l/release/bl31/spinlock.o
0000000044005028 l       ro	0000000000000000 l1
000000004400502c l       ro	0000000000000000 l2
0000000000000000 l    df *ABS*	0000000000000000 /home/calixto/anzal/rz_atf/rzg_trusted-firmware-a/build/g2l/release/bl31/psci_helpers.o
0000000000000000 l    df *ABS*	0000000000000000 /home/calixto/anzal/rz_atf/rzg_trusted-firmware-a/build/g2l/release/bl31/platform_mp_stack.o
0000000044007080 l       stacks	0000000000000000 platform_normal_stacks
0000000000000006 l       *ABS*	0000000000000000 TZ_COUNT
0000000000000000 l    df *ABS*	0000000000000000 /home/calixto/anzal/rz_atf/rzg_trusted-firmware-a/build/g2l/release/bl31/plat_helpers.o
0000000000000000 l    df *ABS*	0000000000000000 /home/calixto/anzal/rz_atf/rzg_trusted-firmware-a/build/g2l/release/bl31/debug.o
00000000440059e0 l       ro	0000000000000000 panic_msg
00000000440050f4 l       ro	0000000000000000 panic_common
000000004400511c l       ro	0000000000000000 _panic_handler
0000000000000000 l    df *ABS*	0000000000000000 /home/calixto/anzal/rz_atf/rzg_trusted-firmware-a/build/g2l/release/bl31/cache_helpers.o
0000000044005158 l       ro	0000000000000000 exit_loop_civac
0000000044005144 l       ro	0000000000000000 loop_civac
0000000044005190 l       ro	0000000000000000 exit_loop_cvac
000000004400517c l       ro	0000000000000000 loop_cvac
00000000440051c8 l       ro	0000000000000000 exit_loop_ivac
00000000440051b4 l       ro	0000000000000000 loop_ivac
0000000000000000 l    df *ABS*	0000000000000000 /home/calixto/anzal/rz_atf/rzg_trusted-firmware-a/build/g2l/release/bl31/misc_helpers.o
00000000440051d4 l     F ro	00000000000000e8 zeromem_dczva
0000000000000000 l    df *ABS*	0000000000000000 /home/calixto/anzal/rz_atf/rzg_trusted-firmware-a/build/g2l/release/bl31/platform_helpers.o
0000000000000000 l    df *ABS*	0000000000000000 /home/calixto/anzal/rz_atf/rzg_trusted-firmware-a/build/g2l/release/bl31/enable_mmu.o
0000000000000000 l    df *ABS*	0000000000000000 /home/calixto/anzal/rz_atf/rzg_trusted-firmware-a/build/g2l/release/bl31/scifa.o
0000000044005374 l       ro	0000000000000000 register_fail
0000000044005378 l       ro	0000000000000000 l_ret
0000000000000000 l    df *ABS*	0000000000000000 
0000000000000000 l    df *ABS*	0000000000000000 cpu_data_array.c
0000000044004ae0 g     F ro	000000000000002c putchar
0000000044001220 g     F ro	00000000000000f4 cm_prepare_el3_exit
00000000440038d0 g     F ro	0000000000000018 console_set_scope
0000000044003a08  w    F ro	0000000000000008 plat_is_smccc_feature_available
00000000440099c0 g       .bss	0000000000000000 __PMF_TIMESTAMP_START__
0000000044002ec0  w    F ro	0000000000000030 plat_ic_get_pending_interrupt_type
0000000044001160 g     F ro	00000000000000c0 cm_el1_sysregs_context_restore
0000000044005760 g     O ro	00000000000000a8 rzg2l_plat_psci_ops
0000000044010000 g       xlat_table	0000000000000000 __BL31_END__
0000000044003880 g     F ro	000000000000003c console_register
0000000044001d10 g     F ro	000000000000011c psci_cpu_suspend
0000000044004cd8 g     F ro	0000000000000020 reset_handler
0000000044006600 g     F ro	0000000000000000 sync_exception_aarch32
00000000440051cc g     F ro	0000000000000008 zeromem
00000000440054a8 g     O ro	0000000000000034 version_string
00000000440050ec g     F ro	0000000000000008 asm_print_newline
0000000044005a98 g       ro	0000000000000000 __pubsub_psci_suspend_pwrdown_finish_end
00000000440019f0 g     F ro	0000000000000110 psci_validate_entry_point
0000000044004280 g     F ro	0000000000000044 mmap_add_ctx
00000000440037b8 g     F ro	0000000000000004 print_entry_point_info
00000000440001a8 g     F ro	0000000000000014 cm_get_context
00000000440097e0 g     O .bss	0000000000000018 mmu_cfg_params
00000000440043d0 g     F ro	0000000000000004 xlat_tables_print
0000000044001958 g     F ro	0000000000000074 psci_release_pwr_domain_locks
0000000044003438 g     F ro	0000000000000020 plat_core_pos_by_mpidr
00000000440013e0 g     F ro	0000000000000024 psci_validate_power_state
0000000044007000 g       ro	0000000000000000 __RW_START__
0000000044002cf8 g     F ro	00000000000000b8 psci_cpu_suspend_finish
000000004400a000 g       xlat_table	0000000000000000 __XLAT_TABLE_START__
0000000044004f58 g     F ro	0000000000000034 save_and_update_ptw_el1_sys_regs
0000000044003040 g     F ro	0000000000000024 bl31_plat_get_next_image_ep_info
00000000440050f4 g     F ro	0000000000000030 do_panic
0000000044004400 g     F ro	0000000000000050 memmove
00000000440095e8 g     O .bss	0000000000000080 rt_svc_descs_indices
0000000044003320 g     F ro	000000000000001c plat_setup_psci_ops
0000000044006200 g     F ro	0000000000000000 sync_exception_sp_elx
0000000044003b88 g     F ro	0000000000000080 setup_mmu_cfg
0000000044001318 g     F ro	0000000000000008 cm_prepare_el3_exit_ns
0000000044006000 g     F ro	0000000000000000 sync_exception_sp_el0
0000000044005048 g     F ro	000000000000000c psci_power_down_wfi
0000000044000d28 g     F ro	0000000000000040 gicv3_cpuif_disable
0000000044000eb8 g     F ro	0000000000000060 tzc400_disable_filters
0000000044001eb8 g     F ro	0000000000000058 psci_affinity_info
0000000044003a38  w    F ro	000000000000003c plat_log_get_prefix
0000000044001f10 g     F ro	0000000000000084 psci_migrate
0000000044000780 g     F ro	000000000000006c gicv3_rdistif_base_addrs_probe
0000000044005488 g     O ro	000000000000001e build_message
0000000044003068 g     F ro	0000000000000010 syc_get_freq
0000000044004f8c g     F ro	0000000000000068 el3_exit
00000000440027b8 g     F ro	0000000000000358 psci_setup
0000000044003c18 g     F ro	0000000000000044 init_xlat_tables
0000000044003a10 g     F ro	0000000000000028 setup_page_tables
0000000044003a78  w    F ro	0000000000000008 bl31_plat_runtime_setup
0000000044007000 g       .data	0000000000000000 __DATA_START__
00000000440096a0 g     O .bss	0000000000000008 psci_locks
00000000440018a8 g     F ro	0000000000000034 psci_find_target_suspend_lvl
0000000044003b60 g     F ro	0000000000000014 xlat_arch_regime_get_xn_desc
00000000440005e8 g     F ro	0000000000000018 gicd_set_isenabler
0000000044002b10 g     F ro	000000000000001c psci_arch_setup
0000000044004d8c g     F ro	0000000000000020 check_wa_cve_2017_5715
0000000044002de8 g     F ro	0000000000000038 psci_system_reset
0000000044000600 g     F ro	0000000000000010 gicd_set_ipriorityr
00000000440043e0 g     F ro	0000000000000020 memcpy
00000000440019d0 g     F ro	0000000000000020 psci_validate_mpidr
0000000044001e30 g     F ro	0000000000000088 psci_system_suspend
0000000044006380 g     F ro	0000000000000000 serror_sp_elx
0000000044001100 g     F ro	0000000000000030 cm_init_context_by_index
0000000044000b80 g     F ro	000000000000008c gicv3_distif_init
0000000044006080 g     F ro	0000000000000000 irq_sp_el0
00000000440051d4 g     F ro	00000000000000e8 zero_normalmem
0000000044001578 g     F ro	0000000000000048 psci_get_parent_pwr_domain_nodes
0000000044000b20 g     F ro	000000000000005c gicv3_driver_init
0000000044005a98 g     O ro	0000000000000008 __cb_func_spe_drain_buffers_hookcm_entering_secure_world
0000000044003a80  w    F ro	0000000000000084 plat_ea_handler
0000000044002db0 g     F ro	0000000000000038 psci_system_off
0000000044005aa0 g       ro	0000000000000000 __pubsub_cm_exited_secure_world_end
0000000044003c08 g     F ro	0000000000000010 mmap_add
0000000044000108 g     F ro	000000000000009c bl31_warm_entrypoint
00000000440043d8 g     F ro	0000000000000004 plat_get_syscnt_freq2
00000000440052c0  w    F ro	0000000000000008 plat_panic_handler
00000000440059f8 g       ro	0000000000000000 __RT_SVC_DESCS_START__
0000000044009080 g       stacks	0000000000000000 __STACKS_END__
0000000044000760 g     F ro	000000000000001c gicv3_rdistif_mark_core_asleep
0000000044005a98 g       ro	0000000000000000 __pubsub_psci_suspend_pwrdown_start_end
0000000044004dac g     F ro	0000000000000020 check_smccc_arch_wa3_applies
00000000440099c0 g       .bss	0000000000000000 __PERCPU_BAKERY_LOCK_END__
000000004400515c g     F ro	0000000000000038 clean_dcache_range
0000000044004cf8 g     F ro	0000000000000024 prepare_cpu_pwr_dwn
0000000044004ee8 g     F ro	0000000000000070 restore_gp_pmcr_pauth_regs
0000000044001b00 g     F ro	000000000000017c psci_warmboot_entrypoint
0000000044000740 g     F ro	000000000000001c gicv3_rdistif_mark_core_awake
0000000044005aa0 g       ro	0000000000000000 __pubsub_cm_exited_normal_world_start
0000000044005070  w    F ro	0000000000000010 plat_set_my_stack
00000000440001f0 g     F ro	0000000000000030 cm_set_context_by_index
0000000044005a58 g       ro	0000000000000000 __RT_SVC_DESCS_END__
00000000440050bc g     F ro	0000000000000030 asm_print_hex
0000000044002f90 g     F ro	0000000000000094 bl31_plat_arch_setup
00000000440002c0 g     F ro	0000000000000064 bl31_main
0000000044009680 g     O .bss	0000000000000020 psci_cpu_pd_nodes
00000000440050a4 g     F ro	0000000000000018 asm_print_str
00000000440052c8  w    F ro	0000000000000004 bl31_plat_enable_mmu
0000000044005468 g     F ro	000000000000001c console_rzg2l_flush
0000000044000f18 g     F ro	0000000000000004 cm_init
000000004400509c g     F ro	0000000000000008 plat_crash_console_flush
0000000044006000 g       ro	0000000000000000 runtime_exceptions
0000000044000640 g     F ro	0000000000000014 gicr_write_ipriorityr
0000000044005aa0 g       ro	0000000000000000 __pubsub_cm_exited_secure_world_start
0000000044001c80 g     F ro	0000000000000020 psci_spd_migrate_info
0000000044005008 g     F ro	0000000000000018 _cpu_data_by_index
0000000044001ca0 g     F ro	0000000000000004 psci_print_power_domain_map
0000000044006800 g       ro	0000000000000000 __RO_END_UNALIGNED__
0000000044002ef0 g     F ro	000000000000002c plat_get_target_pwr_state
00000000440038e8 g     F ro	00000000000000b8 console_putc
0000000044000708 g     F ro	0000000000000034 gicr_set_icfgr
0000000044000610 g     F ro	0000000000000010 gicd_write_icfgr
00000000440052d0  w    F ro	0000000000000004 plat_handle_el3_ea
0000000044001418 g     F ro	0000000000000084 psci_is_last_on_cpu
0000000044005090 g     F ro	0000000000000008 plat_crash_console_init
0000000044006680 g     F ro	0000000000000000 irq_aarch32
0000000044005124 g     F ro	0000000000000038 flush_dcache_range
0000000044002f20 g     F ro	000000000000006c bl31_early_platform_setup2
0000000044005a58 g       ro	0000000000000000 __PMF_SVC_DESCS_END__
0000000044007070 g       .data	0000000000000000 __RELA_END__
0000000044007070 g       .data	0000000000000000 __RELA_START__
0000000044006180 g     F ro	0000000000000000 serror_sp_el0
00000000440045c8 g     F ro	0000000000000514 vprintf
0000000044005420 g     F ro	0000000000000048 console_rzg2l_putc
0000000044004b0c g     F ro	0000000000000004 report_unhandled_exception
00000000440026c8 g     F ro	00000000000000f0 psci_cpu_on_finish
00000000440052bc  w    F ro	0000000000000004 plat_reset_handler
00000000440052d4 g     F ro	0000000000000058 enable_mmu_direct_el3
0000000044000c10 g     F ro	0000000000000088 gicv3_rdistif_init
0000000044005aa0 g       ro	0000000000000000 __pubsub_cm_entering_normal_world_end
0000000044004d3c g     F ro	0000000000000040 get_cpu_ops_ptr
0000000044000000 g     F ro	0000000000000108 bl31_entrypoint
00000000440001c0 g     F ro	000000000000002c cm_get_context_by_index
00000000440097d0 g     O .bss	0000000000000008 gp_warm_ep
0000000044000658 g     F ro	0000000000000014 gicr_set_ipriorityr
0000000044001130 g     F ro	0000000000000030 cm_init_my_context
0000000044006580 g     F ro	0000000000000000 serror_aarch64
0000000044000670 g     F ro	0000000000000024 gicr_clr_igroupr
0000000044004ff4 g     F ro	0000000000000014 init_cpu_data_ptr
0000000044004b10 g     F ro	0000000000000078 enter_lower_el_sync_ea
0000000044003b78 g     F ro	000000000000000c xlat_arch_current_el
0000000044000898 g     F ro	0000000000000110 gicv3_secure_spis_config_props
0000000000000000 g       *ABS*	0000000000000000 __PERCPU_BAKERY_LOCK_SIZE__
0000000044003b08 g     F ro	0000000000000014 xlat_arch_get_pas
0000000044002468 g     F ro	00000000000000dc psci_do_cpu_off
000000004400998c g     O .bss	0000000000000004 psci_caps
0000000044000f20 g     F ro	00000000000001e0 cm_setup_context
0000000044000000 g       ro	0000000000000000 __BL31_START__
0000000044006280 g     F ro	0000000000000000 irq_sp_elx
0000000044005730 g     O ro	0000000000000030 rzg2l_gic_data
00000000440099c0 g       .bss	0000000000000000 __PMF_PERCPU_TIMESTAMP_END__
0000000044006100 g     F ro	0000000000000000 fiq_sp_el0
0000000044007069 g       .data	0000000000000000 __DATA_END__
00000000440050c0 g       ro	0000000000000000 asm_print_hex_bits
00000000440099c0 g       .bss	0000000000000000 __BASE_XLAT_TABLE_START__
00000000440005a8 g     F ro	0000000000000020 gicd_set_igrpmodr
0000000044005a58 g       ro	0000000000000000 __CPU_OPS_START__
0000000044003b20 g     F ro	0000000000000040 tcr_physical_addr_size_bits
00000000440009a8 g     F ro	0000000000000070 gicv3_ppi_sgi_config_defaults
0000000044005194 g     F ro	0000000000000038 inv_dcache_range
0000000044007068 g     O .data	0000000000000001 console_state
0000000044002060 g     F ro	000000000000034c psci_smc_handler
0000000044002b30 g     F ro	00000000000001c8 psci_cpu_suspend_start
00000000440014a0 g     F ro	000000000000003c psci_init_req_local_pwr_states
0000000044005aa0 g       ro	0000000000000000 __pubsub_cm_entering_secure_world_end
00000000440099c0 g       .bss	0000000000000000 __BAKERY_LOCK_END__
0000000044004d7c g     F ro	0000000000000010 cpu_get_rev_var
0000000044002548 g     F ro	000000000000017c psci_cpu_on_start
0000000044001868 g     F ro	000000000000003c psci_find_max_off_lvl
0000000044003ca8 g     F ro	0000000000000108 xlat_desc
0000000044000558 g     F ro	0000000000000030 gicd_set_icfgr
00000000440096a8 g     O .bss	0000000000000020 psci_non_cpu_pd_nodes
00000000440099e0 g       .bss	0000000000000000 __BSS_END__
0000000044005a98 g       ro	0000000000000000 __CPU_OPS_END__
0000000044001ca8 g     F ro	0000000000000004 psci_do_pwrdown_sequence
0000000044000e30 g     F ro	0000000000000088 tzc400_enable_filters
0000000044003098 g     F ro	0000000000000020 plat_gic_init
0000000044005a98 g       ro	0000000000000000 __pubsub_cm_entering_secure_world_start
0000000044000dd8 g     F ro	0000000000000054 tzc400_configure_region
0000000044001cb0 g     F ro	000000000000005c psci_cpu_on
0000000044000248 g     F ro	0000000000000074 bl31_prepare_next_image_entry
0000000044009988 g     O .bss	0000000000000004 psci_plat_core_count
0000000044001ff0 g     F ro	000000000000006c psci_features
0000000044005a98 g       ro	0000000000000000 __GOT_END__
0000000044004450 g     F ro	0000000000000094 memset
0000000044005a58 g       ro	0000000000000000 __PARSER_LIB_DESCS_END__
00000000440099c0 g       .bss	0000000000000000 __BAKERY_LOCK_START__
00000000440014e0 g     F ro	0000000000000094 psci_get_target_local_pwr_states
0000000044005aa0 g       ro	0000000000000000 __pubsub_cm_exited_normal_world_end
0000000044004b88 g     F ro	000000000000001c enter_lower_el_async_ea
00000000440096c8 g     O .bss	0000000000000008 psci_plat_pm_ops
0000000044003a00  w    F ro	0000000000000008 plat_get_soc_revision
0000000044000230 g     F ro	0000000000000014 bl31_setup
0000000044005a98 g       ro	0000000000000000 __pubsub_psci_suspend_pwrdown_start_start
0000000044005a98 g       ro	0000000000000000 __GOT_START__
000000004400532c g     F ro	0000000000000050 console_rzg2l_register
0000000044003860 g     F ro	0000000000000020 tf_log_newline
0000000044004b8c g       ro	0000000000000000 handle_lower_el_async_ea
00000000440006c0 g     F ro	0000000000000024 gicr_clr_igrpmodr
000000004400537c g     F ro	00000000000000a4 console_rzg2l_init
0000000044000220 g     F ro	000000000000000c get_arm_std_svc_args
0000000044005aa0 g       ro	0000000000000000 __pubsub_cm_entering_normal_world_start
0000000000000000 g       *ABS*	0000000000000000 __PERCPU_TIMESTAMP_SIZE__
0000000044003a80 g     F ro	0000000000000084 plat_default_ea_handler
0000000044000d78 g     F ro	0000000000000010 tzc400_set_action
00000000440023b0 g     F ro	0000000000000064 psci_mem_protect
00000000440097c0 g     O .bss	0000000000000010 plat_rdistif_base_addrs
0000000044005a58 g       ro	0000000000000000 __FCONF_POPULATOR_END__
0000000044000358 g     F ro	0000000000000024 get_interrupt_type_handler
0000000044003428 g     F ro	000000000000000c plat_get_power_domain_tree_desc
0000000044000630 g     F ro	0000000000000010 gicd_write_ipriorityr
0000000044003458 g     F ro	00000000000000ac rz_plat_sip_handler
0000000044001f98 g     F ro	0000000000000054 psci_node_hw_state
00000000440099e0 g       .bss	0000000000000000 __BASE_XLAT_TABLE_END__
0000000044004d1c g     F ro	0000000000000020 init_cpu_ops
00000000440039a0 g     F ro	0000000000000054 console_flush
0000000044006300 g     F ro	0000000000000000 fiq_sp_elx
0000000044007000 g       ro	0000000000000000 __RO_END__
0000000044006400 g     F ro	0000000000000000 sync_exception_aarch64
0000000044006500 g     F ro	0000000000000000 fiq_aarch64
00000000440038c0 g     F ro	000000000000000c console_switch_state
0000000044005040 g     F ro	0000000000000008 spin_unlock
00000000440033f0 g     F ro	0000000000000034 plat_security_setup
0000000044004e6c g     F ro	000000000000007c prepare_el3_entry
0000000044009080 g       .bss	0000000000000000 __BSS_START__
0000000044000000 g       ro	0000000000000000 __RO_START__
0000000044004000 g     F ro	000000000000027c mmap_add_region_ctx
0000000044001348 g     F ro	0000000000000040 spe_enable
0000000044005a58 g       ro	0000000000000000 __PMF_SVC_DESCS_START__
0000000044005098 g     F ro	0000000000000004 plat_crash_console_putc
0000000044009080 g     O .bss	0000000000000080 percpu_data
00000000440004f8 g     F ro	0000000000000060 gicv3_rdistif_on
0000000044005020 g     F ro	0000000000000020 spin_lock
0000000044000d68 g     F ro	000000000000000c gicv3_get_pending_interrupt_type
00000000440006e8 g     F ro	000000000000001c gicr_set_isenabler
0000000044001408 g     F ro	0000000000000010 psci_query_sys_suspend_pwrstate
00000000440030e8 g     F ro	0000000000000014 plat_gic_pcpu_init
0000000044000d88 g     F ro	0000000000000038 tzc400_init
00000000440037c0 g     F ro	00000000000000a0 tf_log
0000000044000698 g     F ro	0000000000000024 gicr_set_igrpmodr
0000000044005a98 g       ro	0000000000000000 __pubsub_psci_cpu_on_finish_start
0000000044005a58 g       ro	0000000000000000 __FCONF_POPULATOR_START__
0000000044000328 g     F ro	000000000000002c get_scr_el3_from_routing_model
0000000044010000 g       xlat_table	0000000000000000 __RW_END__
0000000044003028 g     F ro	0000000000000018 bl31_platform_setup
0000000044007080 g       stacks	0000000000000000 __STACKS_START__
0000000044001690 g     F ro	00000000000001d8 psci_do_state_coordination
0000000044002e20 g     F ro	000000000000009c psci_system_reset2
0000000044003c60 g     F ro	0000000000000048 enable_mmu_el3
0000000044006780 g     F ro	0000000000000000 serror_aarch32
00000000440052cc  w    F ro	0000000000000004 plat_handle_double_fault
00000000440099c0 g       .bss	0000000000000000 __PMF_TIMESTAMP_END__
0000000044001388 g     F ro	000000000000002c sve_enable
00000000440042c8 g     F ro	00000000000000fc init_xlat_tables_ctx
0000000044005a98 g       ro	0000000000000000 __pubsub_psci_suspend_pwrdown_finish_start
00000000440007f0 g     F ro	00000000000000a4 gicv3_spis_config_defaults
00000000440005c8 g     F ro	0000000000000020 gicd_clr_igrpmodr
0000000044010000 g       xlat_table	0000000000000000 __XLAT_TABLE_END__
0000000044005080 g     F ro	0000000000000010 plat_my_core_pos
0000000044000a18 g     F ro	0000000000000108 gicv3_secure_ppi_sgi_config_props
0000000044000380 g     F ro	0000000000000178 runtime_svc_init
0000000044003340 g     F ro	00000000000000b0 plat_tzc400_setup
0000000044006480 g     F ro	0000000000000000 irq_aarch64
00000000440039f8  w    F ro	0000000000000008 plat_get_soc_version
0000000044002418 g     F ro	000000000000004c psci_mem_chk_range
00000000440050f4  w      ro	0000000000000000 el3_panic
00000000440030d0 g     F ro	0000000000000014 plat_gic_cpuif_disable
0000000044000588 g     F ro	0000000000000020 gicd_clr_igroupr
0000000044009668 g     O .bss	0000000000000008 gicv3_driver_data
00000000440043c8 g     F ro	0000000000000004 xlat_mmap_print
0000000044000dc0 g     F ro	0000000000000018 tzc400_configure_region0
00000000440013b8 g     F ro	0000000000000028 sve_disable
00000000440018e0 g     F ro	0000000000000074 psci_acquire_pwr_domain_locks
0000000044005a98 g       ro	0000000000000000 __pubsub_psci_cpu_on_finish_end
0000000044004dcc g     F ro	00000000000000a0 el1_sysregs_context_restore
00000000440097d8 g     O .bss	0000000000000008 console_list
00000000440015c0 g     F ro	00000000000000d0 psci_set_pwr_domains_to_run
0000000044000c98 g     F ro	000000000000008c gicv3_cpuif_enable
0000000044000620 g     F ro	0000000000000010 gicd_write_igroupr
0000000044004b0c g       ro	0000000000000000 report_unhandled_interrupt
0000000044006700 g     F ro	0000000000000000 fiq_aarch32
00000000440099c0 g       .bss	0000000000000000 __PERCPU_BAKERY_LOCK_START__
0000000044005054  w    F ro	000000000000001c plat_get_my_stack
0000000044005a58 g       ro	0000000000000000 __PARSER_LIB_DESCS_START__
00000000440096d8 g     O .bss	0000000000000008 psci_spd_pm
0000000044003088 g     F ro	000000000000000c plat_gic_driver_init
00000000440030b8 g     F ro	0000000000000014 plat_gic_cpuif_enable



Disassembly of section ro:

0000000044000000 <bl31_entrypoint>:
    44000000:	aa0003f4 	mov	x20, x0
    44000004:	aa0103f5 	mov	x21, x1
    44000008:	aa0203f6 	mov	x22, x2
    4400000c:	aa0303f7 	mov	x23, x3
    44000010:	1002ff80 	adr	x0, 44006000 <sync_exception_sp_el0>
    44000014:	d51ec000 	msr	vbar_el3, x0
    44000018:	d5033fdf 	isb
    4400001c:	9400132f 	bl	44004cd8 <reset_handler>
    44000020:	d2820141 	mov	x1, #0x100a                	// #4106
    44000024:	d53e1000 	mrs	x0, sctlr_el3
    44000028:	aa010000 	orr	x0, x0, x1
    4400002c:	d51e1000 	msr	sctlr_el3, x0
    44000030:	d5033fdf 	isb
    44000034:	940013f0 	bl	44004ff4 <init_cpu_data_ptr>
    44000038:	d2804700 	mov	x0, #0x238                 	// #568
    4400003c:	d51e1100 	msr	scr_el3, x0
    44000040:	d2900000 	mov	x0, #0x8000                	// #32768
    44000044:	f2a01020 	movk	x0, #0x81, lsl #16
    44000048:	f2c00080 	movk	x0, #0x4, lsl #32
    4400004c:	d5380501 	mrs	x1, id_aa64dfr0_el1
    44000050:	d368ac21 	ubfx	x1, x1, #40, #4
    44000054:	b4000041 	cbz	x1, 4400005c <bl31_entrypoint+0x5c>
    44000058:	b26d0000 	orr	x0, x0, #0x80000
    4400005c:	d51e1320 	msr	mdcr_el3, x0
    44000060:	d2801c00 	mov	x0, #0xe0                  	// #224
    44000064:	d51b9c00 	msr	pmcr_el0, x0
    44000068:	d50344ff 	msr	daifclr, #0x4
    4400006c:	d2a80000 	mov	x0, #0x40000000            	// #1073741824
    44000070:	d5380501 	mrs	x1, id_aa64dfr0_el1
    44000074:	d3441c21 	ubfx	x1, x1, #4, #4
    44000078:	b4000041 	cbz	x1, 44000080 <bl31_entrypoint+0x80>
    4400007c:	b26c0000 	orr	x0, x0, #0x100000
    44000080:	d51e1140 	msr	cptr_el3, x0
    44000084:	f0000020 	adrp	x0, 44007000 <__RO_END__>
    44000088:	91000000 	add	x0, x0, #0x0
    4400008c:	90000081 	adrp	x1, 44010000 <__BL31_END__>
    44000090:	91000021 	add	x1, x1, #0x0
    44000094:	cb000021 	sub	x1, x1, x0
    44000098:	9400143f 	bl	44005194 <inv_dcache_range>
    4400009c:	b0000040 	adrp	x0, 44009000 <__STACKS_START__+0x1f80>
    440000a0:	91020000 	add	x0, x0, #0x80
    440000a4:	b0000041 	adrp	x1, 44009000 <__STACKS_START__+0x1f80>
    440000a8:	91278021 	add	x1, x1, #0x9e0
    440000ac:	cb000021 	sub	x1, x1, x0
    440000b0:	94001447 	bl	440051cc <zeromem>
    440000b4:	d50040bf 	msr	spsel, #0x0
    440000b8:	940013ee 	bl	44005070 <plat_set_my_stack>
    440000bc:	aa1403e0 	mov	x0, x20
    440000c0:	aa1503e1 	mov	x1, x21
    440000c4:	aa1603e2 	mov	x2, x22
    440000c8:	aa1703e3 	mov	x3, x23
    440000cc:	94000059 	bl	44000230 <bl31_setup>
    440000d0:	9400007c 	bl	440002c0 <bl31_main>
    440000d4:	f0000020 	adrp	x0, 44007000 <__RO_END__>
    440000d8:	91000000 	add	x0, x0, #0x0
    440000dc:	f0000021 	adrp	x1, 44007000 <__RO_END__>
    440000e0:	9101a421 	add	x1, x1, #0x69
    440000e4:	cb000021 	sub	x1, x1, x0
    440000e8:	9400141d 	bl	4400515c <clean_dcache_range>
    440000ec:	b0000040 	adrp	x0, 44009000 <__STACKS_START__+0x1f80>
    440000f0:	91020000 	add	x0, x0, #0x80
    440000f4:	b0000041 	adrp	x1, 44009000 <__STACKS_START__+0x1f80>
    440000f8:	91278021 	add	x1, x1, #0x9e0
    440000fc:	cb000021 	sub	x1, x1, x0
    44000100:	94001417 	bl	4400515c <clean_dcache_range>
    44000104:	140013a2 	b	44004f8c <el3_exit>

0000000044000108 <bl31_warm_entrypoint>:
    44000108:	d2810600 	mov	x0, #0x830                 	// #2096
    4400010c:	f2a618a0 	movk	x0, #0x30c5, lsl #16
    44000110:	d51e1000 	msr	sctlr_el3, x0
    44000114:	d5033fdf 	isb
    44000118:	1002f740 	adr	x0, 44006000 <sync_exception_sp_el0>
    4400011c:	d51ec000 	msr	vbar_el3, x0
    44000120:	d5033fdf 	isb
    44000124:	940012ed 	bl	44004cd8 <reset_handler>
    44000128:	d2820141 	mov	x1, #0x100a                	// #4106
    4400012c:	d53e1000 	mrs	x0, sctlr_el3
    44000130:	aa010000 	orr	x0, x0, x1
    44000134:	d51e1000 	msr	sctlr_el3, x0
    44000138:	d5033fdf 	isb
    4400013c:	940013ae 	bl	44004ff4 <init_cpu_data_ptr>
    44000140:	d2804700 	mov	x0, #0x238                 	// #568
    44000144:	d51e1100 	msr	scr_el3, x0
    44000148:	d2900000 	mov	x0, #0x8000                	// #32768
    4400014c:	f2a01020 	movk	x0, #0x81, lsl #16
    44000150:	f2c00080 	movk	x0, #0x4, lsl #32
    44000154:	d5380501 	mrs	x1, id_aa64dfr0_el1
    44000158:	d368ac21 	ubfx	x1, x1, #40, #4
    4400015c:	b4000041 	cbz	x1, 44000164 <bl31_warm_entrypoint+0x5c>
    44000160:	b26d0000 	orr	x0, x0, #0x80000
    44000164:	d51e1320 	msr	mdcr_el3, x0
    44000168:	d2801c00 	mov	x0, #0xe0                  	// #224
    4400016c:	d51b9c00 	msr	pmcr_el0, x0
    44000170:	d50344ff 	msr	daifclr, #0x4
    44000174:	d2a80000 	mov	x0, #0x40000000            	// #1073741824
    44000178:	d5380501 	mrs	x1, id_aa64dfr0_el1
    4400017c:	d3441c21 	ubfx	x1, x1, #4, #4
    44000180:	b4000041 	cbz	x1, 44000188 <bl31_warm_entrypoint+0x80>
    44000184:	b26c0000 	orr	x0, x0, #0x100000
    44000188:	d51e1140 	msr	cptr_el3, x0
    4400018c:	d50040bf 	msr	spsel, #0x0
    44000190:	940013b8 	bl	44005070 <plat_set_my_stack>
    44000194:	aa1f03e0 	mov	x0, xzr
    44000198:	9400144c 	bl	440052c8 <bl31_plat_enable_mmu>
    4400019c:	94000659 	bl	44001b00 <psci_warmboot_entrypoint>
    440001a0:	1400137b 	b	44004f8c <el3_exit>
    440001a4:	00000000 	.inst	0x00000000 ; undefined

00000000440001a8 <cm_get_context>:
    440001a8:	d53ed041 	mrs	x1, tpidr_el3
    440001ac:	7100001f 	cmp	w0, #0x0
    440001b0:	9a9f07e0 	cset	x0, ne  // ne = any
    440001b4:	f8607820 	ldr	x0, [x1, x0, lsl #3]
    440001b8:	d65f03c0 	ret
    440001bc:	00000000 	.inst	0x00000000 ; undefined

00000000440001c0 <cm_get_context_by_index>:
    440001c0:	a9be7bfd 	stp	x29, x30, [sp, #-32]!
    440001c4:	910003fd 	mov	x29, sp
    440001c8:	f9000bf3 	str	x19, [sp, #16]
    440001cc:	2a0103f3 	mov	w19, w1
    440001d0:	9400138e 	bl	44005008 <_cpu_data_by_index>
    440001d4:	7100027f 	cmp	w19, #0x0
    440001d8:	9a9f07e1 	cset	x1, ne  // ne = any
    440001dc:	f9400bf3 	ldr	x19, [sp, #16]
    440001e0:	a8c27bfd 	ldp	x29, x30, [sp], #32
    440001e4:	f8617800 	ldr	x0, [x0, x1, lsl #3]
    440001e8:	d65f03c0 	ret
    440001ec:	00000000 	.inst	0x00000000 ; undefined

00000000440001f0 <cm_set_context_by_index>:
    440001f0:	a9be7bfd 	stp	x29, x30, [sp, #-32]!
    440001f4:	910003fd 	mov	x29, sp
    440001f8:	a90153f3 	stp	x19, x20, [sp, #16]
    440001fc:	aa0103f3 	mov	x19, x1
    44000200:	2a0203f4 	mov	w20, w2
    44000204:	94001381 	bl	44005008 <_cpu_data_by_index>
    44000208:	7100029f 	cmp	w20, #0x0
    4400020c:	9a9f07e2 	cset	x2, ne  // ne = any
    44000210:	f8227813 	str	x19, [x0, x2, lsl #3]
    44000214:	a94153f3 	ldp	x19, x20, [sp, #16]
    44000218:	a8c27bfd 	ldp	x29, x30, [sp], #32
    4400021c:	d65f03c0 	ret

0000000044000220 <get_arm_std_svc_args>:
    44000220:	b0000020 	adrp	x0, 44005000 <init_cpu_data_ptr+0xc>
    44000224:	91150000 	add	x0, x0, #0x540
    44000228:	d65f03c0 	ret
    4400022c:	00000000 	.inst	0x00000000 ; undefined

0000000044000230 <bl31_setup>:
    44000230:	a9bf7bfd 	stp	x29, x30, [sp, #-16]!
    44000234:	910003fd 	mov	x29, sp
    44000238:	94000b3a 	bl	44002f20 <bl31_early_platform_setup2>
    4400023c:	a8c17bfd 	ldp	x29, x30, [sp], #16
    44000240:	14000b54 	b	44002f90 <bl31_plat_arch_setup>
    44000244:	00000000 	.inst	0x00000000 ; undefined

0000000044000248 <bl31_prepare_next_image_entry>:
    44000248:	a9be7bfd 	stp	x29, x30, [sp, #-32]!
    4400024c:	910003fd 	mov	x29, sp
    44000250:	a90153f3 	stp	x19, x20, [sp, #16]
    44000254:	d5380400 	mrs	x0, id_aa64pfr0_el1
    44000258:	d3441c00 	ubfx	x0, x0, #4, #4
    4400025c:	f100041f 	cmp	x0, #0x1
    44000260:	54000240 	b.eq	440002a8 <bl31_prepare_next_image_entry+0x60>  // b.none
    44000264:	f0000020 	adrp	x0, 44007000 <__RO_END__>
    44000268:	b9406013 	ldr	w19, [x0, #96]
    4400026c:	2a1303e0 	mov	w0, w19
    44000270:	94000b74 	bl	44003040 <bl31_plat_get_next_image_ep_info>
    44000274:	aa0003f4 	mov	x20, x0
    44000278:	94000d50 	bl	440037b8 <print_entry_point_info>
    4400027c:	aa1403e0 	mov	x0, x20
    44000280:	940003ac 	bl	44001130 <cm_init_my_context>
    44000284:	7100067f 	cmp	w19, #0x1
    44000288:	540000a0 	b.eq	4400029c <bl31_prepare_next_image_entry+0x54>  // b.none
    4400028c:	2a1303e0 	mov	w0, w19
    44000290:	a94153f3 	ldp	x19, x20, [sp, #16]
    44000294:	a8c27bfd 	ldp	x29, x30, [sp], #32
    44000298:	140003e2 	b	44001220 <cm_prepare_el3_exit>
    4400029c:	a94153f3 	ldp	x19, x20, [sp, #16]
    440002a0:	a8c27bfd 	ldp	x29, x30, [sp], #32
    440002a4:	1400041d 	b	44001318 <cm_prepare_el3_exit_ns>
    440002a8:	b0000020 	adrp	x0, 44005000 <init_cpu_data_ptr+0xc>
    440002ac:	9113c000 	add	x0, x0, #0x4f0
    440002b0:	94000d44 	bl	440037c0 <tf_log>
    440002b4:	94000dbb 	bl	440039a0 <console_flush>
    440002b8:	9400138f 	bl	440050f4 <do_panic>
    440002bc:	00000000 	.inst	0x00000000 ; undefined

00000000440002c0 <bl31_main>:
    440002c0:	a9be7bfd 	stp	x29, x30, [sp, #-32]!
    440002c4:	b0000021 	adrp	x1, 44005000 <init_cpu_data_ptr+0xc>
    440002c8:	9112a021 	add	x1, x1, #0x4a8
    440002cc:	910003fd 	mov	x29, sp
    440002d0:	f9000bf3 	str	x19, [sp, #16]
    440002d4:	b0000033 	adrp	x19, 44005000 <init_cpu_data_ptr+0xc>
    440002d8:	91138273 	add	x19, x19, #0x4e0
    440002dc:	aa1303e0 	mov	x0, x19
    440002e0:	94000d38 	bl	440037c0 <tf_log>
    440002e4:	aa1303e0 	mov	x0, x19
    440002e8:	b0000021 	adrp	x1, 44005000 <init_cpu_data_ptr+0xc>
    440002ec:	91122021 	add	x1, x1, #0x488
    440002f0:	94000d34 	bl	440037c0 <tf_log>
    440002f4:	94000b4d 	bl	44003028 <bl31_platform_setup>
    440002f8:	94000308 	bl	44000f18 <cm_init>
    440002fc:	94000021 	bl	44000380 <runtime_svc_init>
    44000300:	b0000040 	adrp	x0, 44009000 <__STACKS_START__+0x1f80>
    44000304:	f942c000 	ldr	x0, [x0, #1408]
    44000308:	b4000040 	cbz	x0, 44000310 <bl31_main+0x50>
    4400030c:	d63f0000 	blr	x0
    44000310:	97ffffce 	bl	44000248 <bl31_prepare_next_image_entry>
    44000314:	94000da3 	bl	440039a0 <console_flush>
    44000318:	f9400bf3 	ldr	x19, [sp, #16]
    4400031c:	a8c27bfd 	ldp	x29, x30, [sp], #32
    44000320:	14000dd6 	b	44003a78 <bl31_plat_runtime_setup>
    44000324:	00000000 	.inst	0x00000000 ; undefined

0000000044000328 <get_scr_el3_from_routing_model>:
    44000328:	2a0003e0 	mov	w0, w0
    4400032c:	b0000041 	adrp	x1, 44009000 <__STACKS_START__+0x1f80>
    44000330:	91162021 	add	x1, x1, #0x588
    44000334:	8b000c22 	add	x2, x1, x0, lsl #3
    44000338:	aa0203e3 	mov	x3, x2
    4400033c:	f9402441 	ldr	x1, [x2, #72]
    44000340:	f9400463 	ldr	x3, [x3, #8]
    44000344:	f9401442 	ldr	x2, [x2, #40]
    44000348:	aa030020 	orr	x0, x1, x3
    4400034c:	aa020000 	orr	x0, x0, x2
    44000350:	d65f03c0 	ret
    44000354:	00000000 	.inst	0x00000000 ; undefined

0000000044000358 <get_interrupt_type_handler>:
    44000358:	7100081f 	cmp	w0, #0x2
    4400035c:	540000c8 	b.hi	44000374 <get_interrupt_type_handler+0x1c>  // b.pmore
    44000360:	d37b7c00 	ubfiz	x0, x0, #5, #32
    44000364:	b0000041 	adrp	x1, 44009000 <__STACKS_START__+0x1f80>
    44000368:	91162021 	add	x1, x1, #0x588
    4400036c:	f8606820 	ldr	x0, [x1, x0]
    44000370:	d65f03c0 	ret
    44000374:	d2800000 	mov	x0, #0x0                   	// #0
    44000378:	d65f03c0 	ret
    4400037c:	00000000 	.inst	0x00000000 ; undefined

0000000044000380 <runtime_svc_init>:
    44000380:	a9bc7bfd 	stp	x29, x30, [sp, #-64]!
    44000384:	910003fd 	mov	x29, sp
    44000388:	a90153f3 	stp	x19, x20, [sp, #16]
    4400038c:	b0000033 	adrp	x19, 44005000 <init_cpu_data_ptr+0xc>
    44000390:	9127e274 	add	x20, x19, #0x9f8
    44000394:	a9025bf5 	stp	x21, x22, [sp, #32]
    44000398:	b0000035 	adrp	x21, 44005000 <init_cpu_data_ptr+0xc>
    4400039c:	912962b5 	add	x21, x21, #0xa58
    440003a0:	cb1402b5 	sub	x21, x21, x20
    440003a4:	f1007ebf 	cmp	x21, #0x1f
    440003a8:	540000a8 	b.hi	440003bc <runtime_svc_init+0x3c>  // b.pmore
    440003ac:	a94153f3 	ldp	x19, x20, [sp, #16]
    440003b0:	a9425bf5 	ldp	x21, x22, [sp, #32]
    440003b4:	a8c47bfd 	ldp	x29, x30, [sp], #64
    440003b8:	d65f03c0 	ret
    440003bc:	a90363f7 	stp	x23, x24, [sp, #48]
    440003c0:	b0000058 	adrp	x24, 44009000 <__STACKS_START__+0x1f80>
    440003c4:	9117a318 	add	x24, x24, #0x5e8
    440003c8:	12800001 	mov	w1, #0xffffffff            	// #-1
    440003cc:	aa1803e0 	mov	x0, x24
    440003d0:	d2801002 	mov	x2, #0x80                  	// #128
    440003d4:	9400101f 	bl	44004450 <memset>
    440003d8:	39400680 	ldrb	w0, [x20, #1]
    440003dc:	d345feb5 	lsr	x21, x21, #5
    440003e0:	3967e261 	ldrb	w1, [x19, #2552]
    440003e4:	7100fc1f 	cmp	w0, #0x3f
    440003e8:	7a409022 	ccmp	w1, w0, #0x2, ls  // ls = plast
    440003ec:	54000828 	b.hi	440004f0 <runtime_svc_init+0x170>  // b.pmore
    440003f0:	39400a80 	ldrb	w0, [x20, #2]
    440003f4:	7100041f 	cmp	w0, #0x1
    440003f8:	540007c8 	b.hi	440004f0 <runtime_svc_init+0x170>  // b.pmore
    440003fc:	b0000036 	adrp	x22, 44005000 <init_cpu_data_ptr+0xc>
    44000400:	aa1403f7 	mov	x23, x20
    44000404:	9115e2d6 	add	x22, x22, #0x578
    44000408:	52800013 	mov	w19, #0x0                   	// #0
    4400040c:	d503201f 	nop
    44000410:	f9400ae0 	ldr	x0, [x23, #16]
    44000414:	b4000680 	cbz	x0, 440004e4 <runtime_svc_init+0x164>
    44000418:	d63f0000 	blr	x0
    4400041c:	350004c0 	cbnz	w0, 440004b4 <runtime_svc_init+0x134>
    44000420:	39400ae2 	ldrb	w2, [x23, #2]
    44000424:	394002e0 	ldrb	w0, [x23]
    44000428:	394006e1 	ldrb	w1, [x23, #1]
    4400042c:	531a0042 	ubfiz	w2, w2, #6, #1
    44000430:	12001400 	and	w0, w0, #0x3f
    44000434:	12001421 	and	w1, w1, #0x3f
    44000438:	2a020000 	orr	w0, w0, w2
    4400043c:	2a020021 	orr	w1, w1, w2
    44000440:	6b01001f 	cmp	w0, w1
    44000444:	540000e8 	b.hi	44000460 <runtime_svc_init+0xe0>  // b.pmore
    44000448:	92401c00 	and	x0, x0, #0xff
    4400044c:	d503201f 	nop
    44000450:	38206b13 	strb	w19, [x24, x0]
    44000454:	91000400 	add	x0, x0, #0x1
    44000458:	6b20003f 	cmp	w1, w0, uxtb
    4400045c:	54ffffa2 	b.cs	44000450 <runtime_svc_init+0xd0>  // b.hs, b.nlast
    44000460:	11000673 	add	w19, w19, #0x1
    44000464:	12001e73 	and	w19, w19, #0xff
    44000468:	eb3302bf 	cmp	x21, w19, uxtb
    4400046c:	54000329 	b.ls	440004d0 <runtime_svc_init+0x150>  // b.plast
    44000470:	d37b1e60 	ubfiz	x0, x19, #5, #8
    44000474:	ab000297 	adds	x23, x20, x0
    44000478:	54000120 	b.eq	4400049c <runtime_svc_init+0x11c>  // b.none
    4400047c:	394006e1 	ldrb	w1, [x23, #1]
    44000480:	38606a80 	ldrb	w0, [x20, x0]
    44000484:	7100fc3f 	cmp	w1, #0x3f
    44000488:	7a409020 	ccmp	w1, w0, #0x0, ls  // ls = plast
    4400048c:	54000083 	b.cc	4400049c <runtime_svc_init+0x11c>  // b.lo, b.ul, b.last
    44000490:	39400ae0 	ldrb	w0, [x23, #2]
    44000494:	7100041f 	cmp	w0, #0x1
    44000498:	54fffbc9 	b.ls	44000410 <runtime_svc_init+0x90>  // b.plast
    4400049c:	aa1703e1 	mov	x1, x23
    440004a0:	b0000020 	adrp	x0, 44005000 <init_cpu_data_ptr+0xc>
    440004a4:	91154000 	add	x0, x0, #0x550
    440004a8:	94000cc6 	bl	440037c0 <tf_log>
    440004ac:	94000d3d 	bl	440039a0 <console_flush>
    440004b0:	94001311 	bl	440050f4 <do_panic>
    440004b4:	f94006e1 	ldr	x1, [x23, #8]
    440004b8:	11000673 	add	w19, w19, #0x1
    440004bc:	12001e73 	and	w19, w19, #0xff
    440004c0:	aa1603e0 	mov	x0, x22
    440004c4:	94000cbf 	bl	440037c0 <tf_log>
    440004c8:	eb3302bf 	cmp	x21, w19, uxtb
    440004cc:	54fffd28 	b.hi	44000470 <runtime_svc_init+0xf0>  // b.pmore
    440004d0:	a94153f3 	ldp	x19, x20, [sp, #16]
    440004d4:	a9425bf5 	ldp	x21, x22, [sp, #32]
    440004d8:	a94363f7 	ldp	x23, x24, [sp, #48]
    440004dc:	a8c47bfd 	ldp	x29, x30, [sp], #64
    440004e0:	d65f03c0 	ret
    440004e4:	f9400ee0 	ldr	x0, [x23, #24]
    440004e8:	b5fff9c0 	cbnz	x0, 44000420 <runtime_svc_init+0xa0>
    440004ec:	17ffffec 	b	4400049c <runtime_svc_init+0x11c>
    440004f0:	aa1403f7 	mov	x23, x20
    440004f4:	17ffffea 	b	4400049c <runtime_svc_init+0x11c>

00000000440004f8 <gicv3_rdistif_on>:
    440004f8:	b0000042 	adrp	x2, 44009000 <__STACKS_START__+0x1f80>
    440004fc:	52808763 	mov	w3, #0x43b                 	// #1083
    44000500:	72a08003 	movk	w3, #0x400, lsl #16
    44000504:	52808761 	mov	w1, #0x43b                 	// #1083
    44000508:	f9433442 	ldr	x2, [x2, #1640]
    4400050c:	72a04001 	movk	w1, #0x200, lsl #16
    44000510:	f9401042 	ldr	x2, [x2, #32]
    44000514:	f8605840 	ldr	x0, [x2, w0, uxtw #3]
    44000518:	91009002 	add	x2, x0, #0x24
    4400051c:	b9400400 	ldr	w0, [x0, #4]
    44000520:	12084c04 	and	w4, w0, #0xff000fff
    44000524:	12074800 	and	w0, w0, #0xfe000fff
    44000528:	6b03009f 	cmp	w4, w3
    4400052c:	7a411004 	ccmp	w0, w1, #0x4, ne  // ne = any
    44000530:	54000121 	b.ne	44000554 <gicv3_rdistif_on+0x5c>  // b.any
    44000534:	d503201f 	nop
    44000538:	b9400040 	ldr	w0, [x2]
    4400053c:	53037c01 	lsr	w1, w0, #3
    44000540:	4a400820 	eor	w0, w1, w0, lsr #2
    44000544:	3707ffa0 	tbnz	w0, #0, 44000538 <gicv3_rdistif_on+0x40>
    44000548:	b900005f 	str	wzr, [x2]
    4400054c:	b9400040 	ldr	w0, [x2]
    44000550:	3707ff40 	tbnz	w0, #0, 44000538 <gicv3_rdistif_on+0x40>
    44000554:	d65f03c0 	ret

0000000044000558 <gicd_set_icfgr>:
    44000558:	53047c24 	lsr	w4, w1, #4
    4400055c:	91300000 	add	x0, x0, #0xc00
    44000560:	531f0c21 	ubfiz	w1, w1, #1, #4
    44000564:	12000442 	and	w2, w2, #0x3
    44000568:	52800063 	mov	w3, #0x3                   	// #3
    4400056c:	b8647805 	ldr	w5, [x0, x4, lsl #2]
    44000570:	1ac12063 	lsl	w3, w3, w1
    44000574:	1ac12041 	lsl	w1, w2, w1
    44000578:	0a2300a3 	bic	w3, w5, w3
    4400057c:	2a010063 	orr	w3, w3, w1
    44000580:	b8247803 	str	w3, [x0, x4, lsl #2]
    44000584:	d65f03c0 	ret

0000000044000588 <gicd_clr_igroupr>:
    44000588:	91020000 	add	x0, x0, #0x80
    4400058c:	53057c23 	lsr	w3, w1, #5
    44000590:	52800022 	mov	w2, #0x1                   	// #1
    44000594:	1ac12042 	lsl	w2, w2, w1
    44000598:	b8637801 	ldr	w1, [x0, x3, lsl #2]
    4400059c:	0a220022 	bic	w2, w1, w2
    440005a0:	b8237802 	str	w2, [x0, x3, lsl #2]
    440005a4:	d65f03c0 	ret

00000000440005a8 <gicd_set_igrpmodr>:
    440005a8:	91340000 	add	x0, x0, #0xd00
    440005ac:	53057c23 	lsr	w3, w1, #5
    440005b0:	52800022 	mov	w2, #0x1                   	// #1
    440005b4:	1ac12042 	lsl	w2, w2, w1
    440005b8:	b8637801 	ldr	w1, [x0, x3, lsl #2]
    440005bc:	2a010042 	orr	w2, w2, w1
    440005c0:	b8237802 	str	w2, [x0, x3, lsl #2]
    440005c4:	d65f03c0 	ret

00000000440005c8 <gicd_clr_igrpmodr>:
    440005c8:	91340000 	add	x0, x0, #0xd00
    440005cc:	53057c23 	lsr	w3, w1, #5
    440005d0:	52800022 	mov	w2, #0x1                   	// #1
    440005d4:	1ac12042 	lsl	w2, w2, w1
    440005d8:	b8637801 	ldr	w1, [x0, x3, lsl #2]
    440005dc:	0a220022 	bic	w2, w1, w2
    440005e0:	b8237802 	str	w2, [x0, x3, lsl #2]
    440005e4:	d65f03c0 	ret

00000000440005e8 <gicd_set_isenabler>:
    440005e8:	91040000 	add	x0, x0, #0x100
    440005ec:	53057c23 	lsr	w3, w1, #5
    440005f0:	52800022 	mov	w2, #0x1                   	// #1
    440005f4:	1ac12042 	lsl	w2, w2, w1
    440005f8:	b8237802 	str	w2, [x0, x3, lsl #2]
    440005fc:	d65f03c0 	ret

0000000044000600 <gicd_set_ipriorityr>:
    44000600:	91100000 	add	x0, x0, #0x400
    44000604:	12001c42 	and	w2, w2, #0xff
    44000608:	38214802 	strb	w2, [x0, w1, uxtw]
    4400060c:	d65f03c0 	ret

0000000044000610 <gicd_write_icfgr>:
    44000610:	53047c21 	lsr	w1, w1, #4
    44000614:	91300000 	add	x0, x0, #0xc00
    44000618:	b8217802 	str	w2, [x0, x1, lsl #2]
    4400061c:	d65f03c0 	ret

0000000044000620 <gicd_write_igroupr>:
    44000620:	53057c21 	lsr	w1, w1, #5
    44000624:	91020000 	add	x0, x0, #0x80
    44000628:	b8217802 	str	w2, [x0, x1, lsl #2]
    4400062c:	d65f03c0 	ret

0000000044000630 <gicd_write_ipriorityr>:
    44000630:	53027c21 	lsr	w1, w1, #2
    44000634:	91100000 	add	x0, x0, #0x400
    44000638:	b8217802 	str	w2, [x0, x1, lsl #2]
    4400063c:	d65f03c0 	ret

0000000044000640 <gicr_write_ipriorityr>:
    44000640:	91404000 	add	x0, x0, #0x10, lsl #12
    44000644:	53027c21 	lsr	w1, w1, #2
    44000648:	91100000 	add	x0, x0, #0x400
    4400064c:	b8217802 	str	w2, [x0, x1, lsl #2]
    44000650:	d65f03c0 	ret
    44000654:	00000000 	.inst	0x00000000 ; undefined

0000000044000658 <gicr_set_ipriorityr>:
    44000658:	91404000 	add	x0, x0, #0x10, lsl #12
    4400065c:	12001c42 	and	w2, w2, #0xff
    44000660:	91100000 	add	x0, x0, #0x400
    44000664:	38214802 	strb	w2, [x0, w1, uxtw]
    44000668:	d65f03c0 	ret
    4400066c:	00000000 	.inst	0x00000000 ; undefined

0000000044000670 <gicr_clr_igroupr>:
    44000670:	91404000 	add	x0, x0, #0x10, lsl #12
    44000674:	53057c23 	lsr	w3, w1, #5
    44000678:	91020000 	add	x0, x0, #0x80
    4400067c:	52800022 	mov	w2, #0x1                   	// #1
    44000680:	1ac12042 	lsl	w2, w2, w1
    44000684:	b8637801 	ldr	w1, [x0, x3, lsl #2]
    44000688:	0a220022 	bic	w2, w1, w2
    4400068c:	b8237802 	str	w2, [x0, x3, lsl #2]
    44000690:	d65f03c0 	ret
    44000694:	00000000 	.inst	0x00000000 ; undefined

0000000044000698 <gicr_set_igrpmodr>:
    44000698:	91404000 	add	x0, x0, #0x10, lsl #12
    4400069c:	53057c23 	lsr	w3, w1, #5
    440006a0:	91340000 	add	x0, x0, #0xd00
    440006a4:	52800022 	mov	w2, #0x1                   	// #1
    440006a8:	1ac12042 	lsl	w2, w2, w1
    440006ac:	b8637801 	ldr	w1, [x0, x3, lsl #2]
    440006b0:	2a010042 	orr	w2, w2, w1
    440006b4:	b8237802 	str	w2, [x0, x3, lsl #2]
    440006b8:	d65f03c0 	ret
    440006bc:	00000000 	.inst	0x00000000 ; undefined

00000000440006c0 <gicr_clr_igrpmodr>:
    440006c0:	91404000 	add	x0, x0, #0x10, lsl #12
    440006c4:	53057c23 	lsr	w3, w1, #5
    440006c8:	91340000 	add	x0, x0, #0xd00
    440006cc:	52800022 	mov	w2, #0x1                   	// #1
    440006d0:	1ac12042 	lsl	w2, w2, w1
    440006d4:	b8637801 	ldr	w1, [x0, x3, lsl #2]
    440006d8:	0a220022 	bic	w2, w1, w2
    440006dc:	b8237802 	str	w2, [x0, x3, lsl #2]
    440006e0:	d65f03c0 	ret
    440006e4:	00000000 	.inst	0x00000000 ; undefined

00000000440006e8 <gicr_set_isenabler>:
    440006e8:	91404000 	add	x0, x0, #0x10, lsl #12
    440006ec:	53057c23 	lsr	w3, w1, #5
    440006f0:	91040000 	add	x0, x0, #0x100
    440006f4:	52800022 	mov	w2, #0x1                   	// #1
    440006f8:	1ac12042 	lsl	w2, w2, w1
    440006fc:	b8237802 	str	w2, [x0, x3, lsl #2]
    44000700:	d65f03c0 	ret
    44000704:	00000000 	.inst	0x00000000 ; undefined

0000000044000708 <gicr_set_icfgr>:
    44000708:	91404000 	add	x0, x0, #0x10, lsl #12
    4400070c:	53047c24 	lsr	w4, w1, #4
    44000710:	91300000 	add	x0, x0, #0xc00
    44000714:	531f0c21 	ubfiz	w1, w1, #1, #4
    44000718:	12000442 	and	w2, w2, #0x3
    4400071c:	52800063 	mov	w3, #0x3                   	// #3
    44000720:	1ac12063 	lsl	w3, w3, w1
    44000724:	b8647805 	ldr	w5, [x0, x4, lsl #2]
    44000728:	1ac12041 	lsl	w1, w2, w1
    4400072c:	0a2300a3 	bic	w3, w5, w3
    44000730:	2a010063 	orr	w3, w3, w1
    44000734:	b8247803 	str	w3, [x0, x4, lsl #2]
    44000738:	d65f03c0 	ret
    4400073c:	00000000 	.inst	0x00000000 ; undefined

0000000044000740 <gicv3_rdistif_mark_core_awake>:
    44000740:	b9401402 	ldr	w2, [x0, #20]
    44000744:	91005001 	add	x1, x0, #0x14
    44000748:	121e7842 	and	w2, w2, #0xfffffffd
    4400074c:	b9001402 	str	w2, [x0, #20]
    44000750:	b9400020 	ldr	w0, [x1]
    44000754:	3717ffe0 	tbnz	w0, #2, 44000750 <gicv3_rdistif_mark_core_awake+0x10>
    44000758:	d65f03c0 	ret
    4400075c:	00000000 	.inst	0x00000000 ; undefined

0000000044000760 <gicv3_rdistif_mark_core_asleep>:
    44000760:	b9401402 	ldr	w2, [x0, #20]
    44000764:	91005001 	add	x1, x0, #0x14
    44000768:	321f0042 	orr	w2, w2, #0x2
    4400076c:	b9001402 	str	w2, [x0, #20]
    44000770:	b9400020 	ldr	w0, [x1]
    44000774:	3617ffe0 	tbz	w0, #2, 44000770 <gicv3_rdistif_mark_core_asleep+0x10>
    44000778:	d65f03c0 	ret
    4400077c:	00000000 	.inst	0x00000000 ; undefined

0000000044000780 <gicv3_rdistif_base_addrs_probe>:
    44000780:	a9bc7bfd 	stp	x29, x30, [sp, #-64]!
    44000784:	910003fd 	mov	x29, sp
    44000788:	a90153f3 	stp	x19, x20, [sp, #16]
    4400078c:	aa0203f4 	mov	x20, x2
    44000790:	a9025bf5 	stp	x21, x22, [sp, #32]
    44000794:	2a0103f6 	mov	w22, w1
    44000798:	aa0303f5 	mov	x21, x3
    4400079c:	f9001bf7 	str	x23, [sp, #48]
    440007a0:	aa0003f7 	mov	x23, x0
    440007a4:	d503201f 	nop
    440007a8:	f9400693 	ldr	x19, [x20, #8]
    440007ac:	d378fe62 	lsr	x2, x19, #56
    440007b0:	d360de61 	ubfx	x1, x19, #32, #24
    440007b4:	53085e60 	ubfx	w0, w19, #8, #16
    440007b8:	b4000075 	cbz	x21, 440007c4 <gicv3_rdistif_base_addrs_probe+0x44>
    440007bc:	aa028020 	orr	x0, x1, x2, lsl #32
    440007c0:	d63f02a0 	blr	x21
    440007c4:	6b16001f 	cmp	w0, w22
    440007c8:	54000042 	b.cs	440007d0 <gicv3_rdistif_base_addrs_probe+0x50>  // b.hs, b.nlast
    440007cc:	f8205af4 	str	x20, [x23, w0, uxtw #3]
    440007d0:	91408294 	add	x20, x20, #0x20, lsl #12
    440007d4:	3627feb3 	tbz	w19, #4, 440007a8 <gicv3_rdistif_base_addrs_probe+0x28>
    440007d8:	a94153f3 	ldp	x19, x20, [sp, #16]
    440007dc:	a9425bf5 	ldp	x21, x22, [sp, #32]
    440007e0:	f9401bf7 	ldr	x23, [sp, #48]
    440007e4:	a8c47bfd 	ldp	x29, x30, [sp], #64
    440007e8:	d65f03c0 	ret
    440007ec:	00000000 	.inst	0x00000000 ; undefined

00000000440007f0 <gicv3_spis_config_defaults>:
    440007f0:	a9bd7bfd 	stp	x29, x30, [sp, #-48]!
    440007f4:	910003fd 	mov	x29, sp
    440007f8:	b9400401 	ldr	w1, [x0, #4]
    440007fc:	f90013f5 	str	x21, [sp, #32]
    44000800:	52807f95 	mov	w21, #0x3fc                 	// #1020
    44000804:	531b1021 	ubfiz	w1, w1, #5, #5
    44000808:	11008021 	add	w1, w1, #0x20
    4400080c:	6b15003f 	cmp	w1, w21
    44000810:	1a959035 	csel	w21, w1, w21, ls  // ls = plast
    44000814:	7100803f 	cmp	w1, #0x20
    44000818:	54000380 	b.eq	44000888 <gicv3_spis_config_defaults+0x98>  // b.none
    4400081c:	a90153f3 	stp	x19, x20, [sp, #16]
    44000820:	aa0003f4 	mov	x20, x0
    44000824:	52800413 	mov	w19, #0x20                  	// #32
    44000828:	2a1303e1 	mov	w1, w19
    4400082c:	12800002 	mov	w2, #0xffffffff            	// #-1
    44000830:	aa1403e0 	mov	x0, x20
    44000834:	11008273 	add	w19, w19, #0x20
    44000838:	97ffff7a 	bl	44000620 <gicd_write_igroupr>
    4400083c:	6b15027f 	cmp	w19, w21
    44000840:	54ffff43 	b.cc	44000828 <gicv3_spis_config_defaults+0x38>  // b.lo, b.ul, b.last
    44000844:	52800413 	mov	w19, #0x20                  	// #32
    44000848:	2a1303e1 	mov	w1, w19
    4400084c:	3201c3e2 	mov	w2, #0x80808080            	// #-2139062144
    44000850:	aa1403e0 	mov	x0, x20
    44000854:	11001273 	add	w19, w19, #0x4
    44000858:	97ffff76 	bl	44000630 <gicd_write_ipriorityr>
    4400085c:	6b15027f 	cmp	w19, w21
    44000860:	54ffff43 	b.cc	44000848 <gicv3_spis_config_defaults+0x58>  // b.lo, b.ul, b.last
    44000864:	52800413 	mov	w19, #0x20                  	// #32
    44000868:	2a1303e1 	mov	w1, w19
    4400086c:	52800002 	mov	w2, #0x0                   	// #0
    44000870:	aa1403e0 	mov	x0, x20
    44000874:	11004273 	add	w19, w19, #0x10
    44000878:	97ffff66 	bl	44000610 <gicd_write_icfgr>
    4400087c:	6b15027f 	cmp	w19, w21
    44000880:	54ffff43 	b.cc	44000868 <gicv3_spis_config_defaults+0x78>  // b.lo, b.ul, b.last
    44000884:	a94153f3 	ldp	x19, x20, [sp, #16]
    44000888:	f94013f5 	ldr	x21, [sp, #32]
    4400088c:	a8c37bfd 	ldp	x29, x30, [sp], #48
    44000890:	d65f03c0 	ret
    44000894:	00000000 	.inst	0x00000000 ; undefined

0000000044000898 <gicv3_secure_spis_config_props>:
    44000898:	a9bb7bfd 	stp	x29, x30, [sp, #-80]!
    4400089c:	910003fd 	mov	x29, sp
    440008a0:	a90363f7 	stp	x23, x24, [sp, #48]
    440008a4:	34000782 	cbz	w2, 44000994 <gicv3_secure_spis_config_props+0xfc>
    440008a8:	51000442 	sub	w2, w2, #0x1
    440008ac:	91001037 	add	x23, x1, #0x4
    440008b0:	a9046bf9 	stp	x25, x26, [sp, #64]
    440008b4:	b2405ff9 	mov	x25, #0xffffff              	// #16777215
    440008b8:	9140181a 	add	x26, x0, #0x6, lsl #12
    440008bc:	8b224af7 	add	x23, x23, w2, uxtw #2
    440008c0:	52800018 	mov	w24, #0x0                   	// #0
    440008c4:	f2c01ff9 	movk	x25, #0xff, lsl #32
    440008c8:	a90153f3 	stp	x19, x20, [sp, #16]
    440008cc:	aa0103f3 	mov	x19, x1
    440008d0:	a9025bf5 	stp	x21, x22, [sp, #32]
    440008d4:	aa0003f6 	mov	x22, x0
    440008d8:	14000017 	b	44000934 <gicv3_secure_spis_config_props+0x9c>
    440008dc:	321e0318 	orr	w24, w24, #0x4
    440008e0:	97ffff32 	bl	440005a8 <gicd_set_igrpmodr>
    440008e4:	39400a62 	ldrb	w2, [x19, #2]
    440008e8:	2a1503e1 	mov	w1, w21
    440008ec:	aa1603e0 	mov	x0, x22
    440008f0:	d3441442 	ubfx	x2, x2, #4, #2
    440008f4:	97ffff19 	bl	44000558 <gicd_set_icfgr>
    440008f8:	b9400262 	ldr	w2, [x19]
    440008fc:	2a1503e1 	mov	w1, w21
    44000900:	aa1603e0 	mov	x0, x22
    44000904:	d34a4442 	ubfx	x2, x2, #10, #8
    44000908:	97ffff3e 	bl	44000600 <gicd_set_ipriorityr>
    4400090c:	d53800a2 	mrs	x2, mpidr_el1
    44000910:	92403e94 	and	x20, x20, #0xffff
    44000914:	8a190042 	and	x2, x2, x25
    44000918:	2a1503e1 	mov	w1, w21
    4400091c:	aa1603e0 	mov	x0, x22
    44000920:	f8347b42 	str	x2, [x26, x20, lsl #3]
    44000924:	97ffff31 	bl	440005e8 <gicd_set_isenabler>
    44000928:	91001273 	add	x19, x19, #0x4
    4400092c:	eb17027f 	cmp	x19, x23
    44000930:	54000240 	b.eq	44000978 <gicv3_secure_spis_config_props+0xe0>  // b.none
    44000934:	79400274 	ldrh	w20, [x19]
    44000938:	aa1603e0 	mov	x0, x22
    4400093c:	d3402694 	ubfx	x20, x20, #0, #10
    44000940:	12003e95 	and	w21, w20, #0xffff
    44000944:	510082a2 	sub	w2, w21, #0x20
    44000948:	2a1503e1 	mov	w1, w21
    4400094c:	710f6c5f 	cmp	w2, #0x3db
    44000950:	54fffec8 	b.hi	44000928 <gicv3_secure_spis_config_props+0x90>  // b.pmore
    44000954:	97ffff0d 	bl	44000588 <gicd_clr_igroupr>
    44000958:	39400a62 	ldrb	w2, [x19, #2]
    4400095c:	2a1503e1 	mov	w1, w21
    44000960:	aa1603e0 	mov	x0, x22
    44000964:	721e045f 	tst	w2, #0xc
    44000968:	54fffba0 	b.eq	440008dc <gicv3_secure_spis_config_props+0x44>  // b.none
    4400096c:	32000318 	orr	w24, w24, #0x1
    44000970:	97ffff16 	bl	440005c8 <gicd_clr_igrpmodr>
    44000974:	17ffffdc 	b	440008e4 <gicv3_secure_spis_config_props+0x4c>
    44000978:	2a1803e0 	mov	w0, w24
    4400097c:	a94153f3 	ldp	x19, x20, [sp, #16]
    44000980:	a9425bf5 	ldp	x21, x22, [sp, #32]
    44000984:	a94363f7 	ldp	x23, x24, [sp, #48]
    44000988:	a9446bf9 	ldp	x25, x26, [sp, #64]
    4400098c:	a8c57bfd 	ldp	x29, x30, [sp], #80
    44000990:	d65f03c0 	ret
    44000994:	52800018 	mov	w24, #0x0                   	// #0
    44000998:	2a1803e0 	mov	w0, w24
    4400099c:	a94363f7 	ldp	x23, x24, [sp, #48]
    440009a0:	a8c57bfd 	ldp	x29, x30, [sp], #80
    440009a4:	d65f03c0 	ret

00000000440009a8 <gicv3_ppi_sgi_config_defaults>:
    440009a8:	a9be7bfd 	stp	x29, x30, [sp, #-32]!
    440009ac:	12800001 	mov	w1, #0xffffffff            	// #-1
    440009b0:	910003fd 	mov	x29, sp
    440009b4:	a90153f3 	stp	x19, x20, [sp, #16]
    440009b8:	aa0003f4 	mov	x20, x0
    440009bc:	d2803000 	mov	x0, #0x180                 	// #384
    440009c0:	f2a00020 	movk	x0, #0x1, lsl #16
    440009c4:	b8206a81 	str	w1, [x20, x0]
    440009c8:	b9400280 	ldr	w0, [x20]
    440009cc:	121d0013 	and	w19, w0, #0x8
    440009d0:	371fffc0 	tbnz	w0, #3, 440009c8 <gicv3_ppi_sgi_config_defaults+0x20>
    440009d4:	d2801000 	mov	x0, #0x80                  	// #128
    440009d8:	12800001 	mov	w1, #0xffffffff            	// #-1
    440009dc:	f2a00020 	movk	x0, #0x1, lsl #16
    440009e0:	b8206a81 	str	w1, [x20, x0]
    440009e4:	2a1303e1 	mov	w1, w19
    440009e8:	3201c3e2 	mov	w2, #0x80808080            	// #-2139062144
    440009ec:	aa1403e0 	mov	x0, x20
    440009f0:	11000673 	add	w19, w19, #0x1
    440009f4:	97ffff13 	bl	44000640 <gicr_write_ipriorityr>
    440009f8:	7100227f 	cmp	w19, #0x8
    440009fc:	54ffff41 	b.ne	440009e4 <gicv3_ppi_sgi_config_defaults+0x3c>  // b.any
    44000a00:	d2818080 	mov	x0, #0xc04                 	// #3076
    44000a04:	f2a00020 	movk	x0, #0x1, lsl #16
    44000a08:	b8206a9f 	str	wzr, [x20, x0]
    44000a0c:	a94153f3 	ldp	x19, x20, [sp, #16]
    44000a10:	a8c27bfd 	ldp	x29, x30, [sp], #32
    44000a14:	d65f03c0 	ret

0000000044000a18 <gicv3_secure_ppi_sgi_config_props>:
    44000a18:	a9bc7bfd 	stp	x29, x30, [sp, #-64]!
    44000a1c:	910003fd 	mov	x29, sp
    44000a20:	f9001bf7 	str	x23, [sp, #48]
    44000a24:	34000742 	cbz	w2, 44000b0c <gicv3_secure_ppi_sgi_config_props+0xf4>
    44000a28:	51000442 	sub	w2, w2, #0x1
    44000a2c:	a9025bf5 	stp	x21, x22, [sp, #32]
    44000a30:	91001036 	add	x22, x1, #0x4
    44000a34:	aa0003f5 	mov	x21, x0
    44000a38:	52800017 	mov	w23, #0x0                   	// #0
    44000a3c:	8b224ad6 	add	x22, x22, w2, uxtw #2
    44000a40:	a90153f3 	stp	x19, x20, [sp, #16]
    44000a44:	aa0103f4 	mov	x20, x1
    44000a48:	14000010 	b	44000a88 <gicv3_secure_ppi_sgi_config_props+0x70>
    44000a4c:	97ffff13 	bl	44000698 <gicr_set_igrpmodr>
    44000a50:	321e02f7 	orr	w23, w23, #0x4
    44000a54:	b9400282 	ldr	w2, [x20]
    44000a58:	2a1303e1 	mov	w1, w19
    44000a5c:	aa1503e0 	mov	x0, x21
    44000a60:	d34a4442 	ubfx	x2, x2, #10, #8
    44000a64:	97fffefd 	bl	44000658 <gicr_set_ipriorityr>
    44000a68:	71003e7f 	cmp	w19, #0xf
    44000a6c:	54000388 	b.hi	44000adc <gicv3_secure_ppi_sgi_config_props+0xc4>  // b.pmore
    44000a70:	2a1303e1 	mov	w1, w19
    44000a74:	aa1503e0 	mov	x0, x21
    44000a78:	97ffff1c 	bl	440006e8 <gicr_set_isenabler>
    44000a7c:	91001294 	add	x20, x20, #0x4
    44000a80:	eb16029f 	cmp	x20, x22
    44000a84:	54000380 	b.eq	44000af4 <gicv3_secure_ppi_sgi_config_props+0xdc>  // b.none
    44000a88:	79400293 	ldrh	w19, [x20]
    44000a8c:	aa1503e0 	mov	x0, x21
    44000a90:	12002673 	and	w19, w19, #0x3ff
    44000a94:	2a1303e1 	mov	w1, w19
    44000a98:	71007e7f 	cmp	w19, #0x1f
    44000a9c:	54ffff08 	b.hi	44000a7c <gicv3_secure_ppi_sgi_config_props+0x64>  // b.pmore
    44000aa0:	97fffef4 	bl	44000670 <gicr_clr_igroupr>
    44000aa4:	39400a82 	ldrb	w2, [x20, #2]
    44000aa8:	2a1303e1 	mov	w1, w19
    44000aac:	aa1503e0 	mov	x0, x21
    44000ab0:	721e045f 	tst	w2, #0xc
    44000ab4:	54fffcc0 	b.eq	44000a4c <gicv3_secure_ppi_sgi_config_props+0x34>  // b.none
    44000ab8:	97ffff02 	bl	440006c0 <gicr_clr_igrpmodr>
    44000abc:	320002f7 	orr	w23, w23, #0x1
    44000ac0:	b9400282 	ldr	w2, [x20]
    44000ac4:	2a1303e1 	mov	w1, w19
    44000ac8:	aa1503e0 	mov	x0, x21
    44000acc:	d34a4442 	ubfx	x2, x2, #10, #8
    44000ad0:	97fffee2 	bl	44000658 <gicr_set_ipriorityr>
    44000ad4:	71003e7f 	cmp	w19, #0xf
    44000ad8:	54fffcc9 	b.ls	44000a70 <gicv3_secure_ppi_sgi_config_props+0x58>  // b.plast
    44000adc:	39400a82 	ldrb	w2, [x20, #2]
    44000ae0:	2a1303e1 	mov	w1, w19
    44000ae4:	aa1503e0 	mov	x0, x21
    44000ae8:	d3441442 	ubfx	x2, x2, #4, #2
    44000aec:	97ffff07 	bl	44000708 <gicr_set_icfgr>
    44000af0:	17ffffe0 	b	44000a70 <gicv3_secure_ppi_sgi_config_props+0x58>
    44000af4:	2a1703e0 	mov	w0, w23
    44000af8:	a94153f3 	ldp	x19, x20, [sp, #16]
    44000afc:	a9425bf5 	ldp	x21, x22, [sp, #32]
    44000b00:	f9401bf7 	ldr	x23, [sp, #48]
    44000b04:	a8c47bfd 	ldp	x29, x30, [sp], #64
    44000b08:	d65f03c0 	ret
    44000b0c:	52800017 	mov	w23, #0x0                   	// #0
    44000b10:	2a1703e0 	mov	w0, w23
    44000b14:	f9401bf7 	ldr	x23, [sp, #48]
    44000b18:	a8c47bfd 	ldp	x29, x30, [sp], #64
    44000b1c:	d65f03c0 	ret

0000000044000b20 <gicv3_driver_init>:
    44000b20:	a9be7bfd 	stp	x29, x30, [sp, #-32]!
    44000b24:	d29ffd01 	mov	x1, #0xffe8                	// #65512
    44000b28:	910003fd 	mov	x29, sp
    44000b2c:	f9000bf3 	str	x19, [sp, #16]
    44000b30:	aa0003f3 	mov	x19, x0
    44000b34:	f9400000 	ldr	x0, [x0]
    44000b38:	f9400662 	ldr	x2, [x19, #8]
    44000b3c:	b8616801 	ldr	w1, [x0, x1]
    44000b40:	b9400000 	ldr	w0, [x0]
    44000b44:	b50000c2 	cbnz	x2, 44000b5c <gicv3_driver_init+0x3c>
    44000b48:	b0000040 	adrp	x0, 44009000 <__STACKS_START__+0x1f80>
    44000b4c:	f9033413 	str	x19, [x0, #1640]
    44000b50:	f9400bf3 	ldr	x19, [sp, #16]
    44000b54:	a8c27bfd 	ldp	x29, x30, [sp], #32
    44000b58:	d65f03c0 	ret
    44000b5c:	a9420e60 	ldp	x0, x3, [x19, #32]
    44000b60:	b9401e61 	ldr	w1, [x19, #28]
    44000b64:	97ffff07 	bl	44000780 <gicv3_rdistif_base_addrs_probe>
    44000b68:	b0000040 	adrp	x0, 44009000 <__STACKS_START__+0x1f80>
    44000b6c:	f9033413 	str	x19, [x0, #1640]
    44000b70:	f9400bf3 	ldr	x19, [sp, #16]
    44000b74:	a8c27bfd 	ldp	x29, x30, [sp], #32
    44000b78:	d65f03c0 	ret
    44000b7c:	00000000 	.inst	0x00000000 ; undefined

0000000044000b80 <gicv3_distif_init>:
    44000b80:	a9be7bfd 	stp	x29, x30, [sp, #-32]!
    44000b84:	910003fd 	mov	x29, sp
    44000b88:	f9000bf3 	str	x19, [sp, #16]
    44000b8c:	b0000053 	adrp	x19, 44009000 <__STACKS_START__+0x1f80>
    44000b90:	f9433660 	ldr	x0, [x19, #1640]
    44000b94:	f9400000 	ldr	x0, [x0]
    44000b98:	b9400001 	ldr	w1, [x0]
    44000b9c:	121d7021 	and	w1, w1, #0xfffffff8
    44000ba0:	b9000001 	str	w1, [x0]
    44000ba4:	d503201f 	nop
    44000ba8:	b9400001 	ldr	w1, [x0]
    44000bac:	37ffffe1 	tbnz	w1, #31, 44000ba8 <gicv3_distif_init+0x28>
    44000bb0:	b9400001 	ldr	w1, [x0]
    44000bb4:	321c0421 	orr	w1, w1, #0x30
    44000bb8:	b9000001 	str	w1, [x0]
    44000bbc:	d503201f 	nop
    44000bc0:	b9400001 	ldr	w1, [x0]
    44000bc4:	37ffffe1 	tbnz	w1, #31, 44000bc0 <gicv3_distif_init+0x40>
    44000bc8:	97ffff0a 	bl	440007f0 <gicv3_spis_config_defaults>
    44000bcc:	f9433662 	ldr	x2, [x19, #1640]
    44000bd0:	f9400040 	ldr	x0, [x2]
    44000bd4:	f9400841 	ldr	x1, [x2, #16]
    44000bd8:	b9401842 	ldr	w2, [x2, #24]
    44000bdc:	97ffff2f 	bl	44000898 <gicv3_secure_spis_config_props>
    44000be0:	f9433661 	ldr	x1, [x19, #1640]
    44000be4:	f9400021 	ldr	x1, [x1]
    44000be8:	b9400022 	ldr	w2, [x1]
    44000bec:	2a020000 	orr	w0, w0, w2
    44000bf0:	b9000020 	str	w0, [x1]
    44000bf4:	d503201f 	nop
    44000bf8:	b9400020 	ldr	w0, [x1]
    44000bfc:	37ffffe0 	tbnz	w0, #31, 44000bf8 <gicv3_distif_init+0x78>
    44000c00:	f9400bf3 	ldr	x19, [sp, #16]
    44000c04:	a8c27bfd 	ldp	x29, x30, [sp], #32
    44000c08:	d65f03c0 	ret
    44000c0c:	00000000 	.inst	0x00000000 ; undefined

0000000044000c10 <gicv3_rdistif_init>:
    44000c10:	a9bd7bfd 	stp	x29, x30, [sp, #-48]!
    44000c14:	910003fd 	mov	x29, sp
    44000c18:	a90153f3 	stp	x19, x20, [sp, #16]
    44000c1c:	b0000053 	adrp	x19, 44009000 <__STACKS_START__+0x1f80>
    44000c20:	2a0003f4 	mov	w20, w0
    44000c24:	f9433661 	ldr	x1, [x19, #1640]
    44000c28:	f9400021 	ldr	x1, [x1]
    44000c2c:	f90013f5 	str	x21, [sp, #32]
    44000c30:	b9400035 	ldr	w21, [x1]
    44000c34:	97fffe31 	bl	440004f8 <gicv3_rdistif_on>
    44000c38:	f9433660 	ldr	x0, [x19, #1640]
    44000c3c:	f9401000 	ldr	x0, [x0, #32]
    44000c40:	f8745814 	ldr	x20, [x0, w20, uxtw #3]
    44000c44:	aa1403e0 	mov	x0, x20
    44000c48:	97ffff58 	bl	440009a8 <gicv3_ppi_sgi_config_defaults>
    44000c4c:	f9433662 	ldr	x2, [x19, #1640]
    44000c50:	aa1403e0 	mov	x0, x20
    44000c54:	f9400841 	ldr	x1, [x2, #16]
    44000c58:	b9401842 	ldr	w2, [x2, #24]
    44000c5c:	97ffff6f 	bl	44000a18 <gicv3_secure_ppi_sgi_config_props>
    44000c60:	6a35001f 	bics	wzr, w0, w21
    44000c64:	54000120 	b.eq	44000c88 <gicv3_rdistif_init+0x78>  // b.none
    44000c68:	f9433661 	ldr	x1, [x19, #1640]
    44000c6c:	f9400021 	ldr	x1, [x1]
    44000c70:	b9400022 	ldr	w2, [x1]
    44000c74:	2a020000 	orr	w0, w0, w2
    44000c78:	b9000020 	str	w0, [x1]
    44000c7c:	d503201f 	nop
    44000c80:	b9400020 	ldr	w0, [x1]
    44000c84:	37ffffe0 	tbnz	w0, #31, 44000c80 <gicv3_rdistif_init+0x70>
    44000c88:	a94153f3 	ldp	x19, x20, [sp, #16]
    44000c8c:	f94013f5 	ldr	x21, [sp, #32]
    44000c90:	a8c37bfd 	ldp	x29, x30, [sp], #48
    44000c94:	d65f03c0 	ret

0000000044000c98 <gicv3_cpuif_enable>:
    44000c98:	a9bf7bfd 	stp	x29, x30, [sp, #-16]!
    44000c9c:	b0000041 	adrp	x1, 44009000 <__STACKS_START__+0x1f80>
    44000ca0:	910003fd 	mov	x29, sp
    44000ca4:	f9433421 	ldr	x1, [x1, #1640]
    44000ca8:	f9401021 	ldr	x1, [x1, #32]
    44000cac:	f8605820 	ldr	x0, [x1, w0, uxtw #3]
    44000cb0:	97fffea4 	bl	44000740 <gicv3_rdistif_mark_core_awake>
    44000cb4:	d53ecca0 	mrs	x0, s3_6_c12_c12_5
    44000cb8:	b2400c00 	orr	x0, x0, #0xf
    44000cbc:	d51ecca0 	msr	s3_6_c12_c12_5, x0
    44000cc0:	d53e1100 	mrs	x0, scr_el3
    44000cc4:	b2400001 	orr	x1, x0, #0x1
    44000cc8:	d51e1101 	msr	scr_el3, x1
    44000ccc:	d5033fdf 	isb
    44000cd0:	d53cc9a1 	mrs	x1, s3_4_c12_c9_5
    44000cd4:	b2400c21 	orr	x1, x1, #0xf
    44000cd8:	d51cc9a1 	msr	s3_4_c12_c9_5, x1
    44000cdc:	d2800021 	mov	x1, #0x1                   	// #1
    44000ce0:	d518cca1 	msr	s3_0_c12_c12_5, x1
    44000ce4:	d5033fdf 	isb
    44000ce8:	927ff800 	and	x0, x0, #0xfffffffffffffffe
    44000cec:	d51e1100 	msr	scr_el3, x0
    44000cf0:	d5033fdf 	isb
    44000cf4:	d518cca1 	msr	s3_0_c12_c12_5, x1
    44000cf8:	d5033fdf 	isb
    44000cfc:	d2801fe0 	mov	x0, #0xff                  	// #255
    44000d00:	d5184600 	msr	s3_0_c4_c6_0, x0
    44000d04:	d518ccc1 	msr	s3_0_c12_c12_6, x1
    44000d08:	d53ecce0 	mrs	x0, s3_6_c12_c12_7
    44000d0c:	b27f0000 	orr	x0, x0, #0x2
    44000d10:	d51ecce0 	msr	s3_6_c12_c12_7, x0
    44000d14:	d5033fdf 	isb
    44000d18:	d5033f9f 	dsb	sy
    44000d1c:	a8c17bfd 	ldp	x29, x30, [sp], #16
    44000d20:	d65f03c0 	ret
    44000d24:	00000000 	.inst	0x00000000 ; undefined

0000000044000d28 <gicv3_cpuif_disable>:
    44000d28:	d53ecca1 	mrs	x1, s3_6_c12_c12_5
    44000d2c:	b27f0421 	orr	x1, x1, #0x6
    44000d30:	d51ecca1 	msr	s3_6_c12_c12_5, x1
    44000d34:	d538ccc1 	mrs	x1, s3_0_c12_c12_6
    44000d38:	927f7821 	and	x1, x1, #0xfffffffe
    44000d3c:	d518ccc1 	msr	s3_0_c12_c12_6, x1
    44000d40:	d53ecce1 	mrs	x1, s3_6_c12_c12_7
    44000d44:	927e7421 	and	x1, x1, #0xfffffffc
    44000d48:	d51ecce1 	msr	s3_6_c12_c12_7, x1
    44000d4c:	d5033fdf 	isb
    44000d50:	d5033f9f 	dsb	sy
    44000d54:	b0000041 	adrp	x1, 44009000 <__STACKS_START__+0x1f80>
    44000d58:	f9433421 	ldr	x1, [x1, #1640]
    44000d5c:	f9401021 	ldr	x1, [x1, #32]
    44000d60:	f8605820 	ldr	x0, [x1, w0, uxtw #3]
    44000d64:	17fffe7f 	b	44000760 <gicv3_rdistif_mark_core_asleep>

0000000044000d68 <gicv3_get_pending_interrupt_type>:
    44000d68:	d538c840 	mrs	x0, s3_0_c12_c8_2
    44000d6c:	12005c00 	and	w0, w0, #0xffffff
    44000d70:	d65f03c0 	ret
    44000d74:	00000000 	.inst	0x00000000 ; undefined

0000000044000d78 <tzc400_set_action>:
    44000d78:	b0000041 	adrp	x1, 44009000 <__STACKS_START__+0x1f80>
    44000d7c:	f9433821 	ldr	x1, [x1, #1648]
    44000d80:	b9000420 	str	w0, [x1, #4]
    44000d84:	d65f03c0 	ret

0000000044000d88 <tzc400_init>:
    44000d88:	b0000042 	adrp	x2, 44009000 <__STACKS_START__+0x1f80>
    44000d8c:	9119c041 	add	x1, x2, #0x670
    44000d90:	f9033840 	str	x0, [x2, #1648]
    44000d94:	b9400000 	ldr	w0, [x0]
    44000d98:	12001002 	and	w2, w0, #0x1f
    44000d9c:	d3586403 	ubfx	x3, x0, #24, #2
    44000da0:	d3483400 	ubfx	x0, x0, #8, #6
    44000da4:	11000463 	add	w3, w3, #0x1
    44000da8:	11000400 	add	w0, w0, #0x1
    44000dac:	11000442 	add	w2, w2, #0x1
    44000db0:	39002020 	strb	w0, [x1, #8]
    44000db4:	39002423 	strb	w3, [x1, #9]
    44000db8:	39002822 	strb	w2, [x1, #10]
    44000dbc:	d65f03c0 	ret

0000000044000dc0 <tzc400_configure_region0>:
    44000dc0:	b0000042 	adrp	x2, 44009000 <__STACKS_START__+0x1f80>
    44000dc4:	53020400 	lsl	w0, w0, #30
    44000dc8:	f9433842 	ldr	x2, [x2, #1648]
    44000dcc:	b9011040 	str	w0, [x2, #272]
    44000dd0:	b9011441 	str	w1, [x2, #276]
    44000dd4:	d65f03c0 	ret

0000000044000dd8 <tzc400_configure_region>:
    44000dd8:	71003c1f 	cmp	w0, #0xf
    44000ddc:	b0000046 	adrp	x6, 44009000 <__STACKS_START__+0x1f80>
    44000de0:	540000c1 	b.ne	44000df8 <tzc400_configure_region+0x20>  // b.any
    44000de4:	9119c0c7 	add	x7, x6, #0x670
    44000de8:	52800020 	mov	w0, #0x1                   	// #1
    44000dec:	394024e7 	ldrb	w7, [x7, #9]
    44000df0:	1ac72000 	lsl	w0, w0, w7
    44000df4:	51000400 	sub	w0, w0, #0x1
    44000df8:	f94338c8 	ldr	x8, [x6, #1648]
    44000dfc:	52800409 	mov	w9, #0x20                  	// #32
    44000e00:	d360fc47 	lsr	x7, x2, #32
    44000e04:	d360fc66 	lsr	x6, x3, #32
    44000e08:	2a047800 	orr	w0, w0, w4, lsl #30
    44000e0c:	9ba92021 	umaddl	x1, w1, w9, x8
    44000e10:	b9010022 	str	w2, [x1, #256]
    44000e14:	b9010427 	str	w7, [x1, #260]
    44000e18:	b9010823 	str	w3, [x1, #264]
    44000e1c:	b9010c26 	str	w6, [x1, #268]
    44000e20:	b9011020 	str	w0, [x1, #272]
    44000e24:	b9011425 	str	w5, [x1, #276]
    44000e28:	d65f03c0 	ret
    44000e2c:	00000000 	.inst	0x00000000 ; undefined

0000000044000e30 <tzc400_enable_filters>:
    44000e30:	b0000040 	adrp	x0, 44009000 <__STACKS_START__+0x1f80>
    44000e34:	9119c001 	add	x1, x0, #0x670
    44000e38:	39402424 	ldrb	w4, [x1, #9]
    44000e3c:	340003c4 	cbz	w4, 44000eb4 <tzc400_enable_filters+0x84>
    44000e40:	f9433802 	ldr	x2, [x0, #1648]
    44000e44:	52800001 	mov	w1, #0x0                   	// #0
    44000e48:	d2800025 	mov	x5, #0x1                   	// #1
    44000e4c:	91002042 	add	x2, x2, #0x8
    44000e50:	b9400040 	ldr	w0, [x2]
    44000e54:	d3504c00 	ubfx	x0, x0, #16, #4
    44000e58:	1ac12400 	lsr	w0, w0, w1
    44000e5c:	36000120 	tbz	w0, #0, 44000e80 <tzc400_enable_filters+0x50>
    44000e60:	34000241 	cbz	w1, 44000ea8 <tzc400_enable_filters+0x78>
    44000e64:	b0000020 	adrp	x0, 44005000 <init_cpu_data_ptr+0xc>
    44000e68:	91168000 	add	x0, x0, #0x5a0
    44000e6c:	a9bf7bfd 	stp	x29, x30, [sp, #-16]!
    44000e70:	910003fd 	mov	x29, sp
    44000e74:	94000a53 	bl	440037c0 <tf_log>
    44000e78:	94000aca 	bl	440039a0 <console_flush>
    44000e7c:	9400109e 	bl	440050f4 <do_panic>
    44000e80:	b9400040 	ldr	w0, [x2]
    44000e84:	9ac120a3 	lsl	x3, x5, x1
    44000e88:	d3504c00 	ubfx	x0, x0, #16, #4
    44000e8c:	2a030003 	orr	w3, w0, w3
    44000e90:	12000c60 	and	w0, w3, #0xf
    44000e94:	b9000040 	str	w0, [x2]
    44000e98:	b9400040 	ldr	w0, [x2]
    44000e9c:	d3504c00 	ubfx	x0, x0, #16, #4
    44000ea0:	6b00007f 	cmp	w3, w0
    44000ea4:	54ffffa1 	b.ne	44000e98 <tzc400_enable_filters+0x68>  // b.any
    44000ea8:	11000421 	add	w1, w1, #0x1
    44000eac:	6b04003f 	cmp	w1, w4
    44000eb0:	54fffd01 	b.ne	44000e50 <tzc400_enable_filters+0x20>  // b.any
    44000eb4:	d65f03c0 	ret

0000000044000eb8 <tzc400_disable_filters>:
    44000eb8:	b0000040 	adrp	x0, 44009000 <__STACKS_START__+0x1f80>
    44000ebc:	9119c001 	add	x1, x0, #0x670
    44000ec0:	f9433800 	ldr	x0, [x0, #1648]
    44000ec4:	39402424 	ldrb	w4, [x1, #9]
    44000ec8:	91002002 	add	x2, x0, #0x8
    44000ecc:	b9400803 	ldr	w3, [x0, #8]
    44000ed0:	d3504063 	ubfx	x3, x3, #16, #1
    44000ed4:	6b04007f 	cmp	w3, w4
    44000ed8:	540001e2 	b.cs	44000f14 <tzc400_disable_filters+0x5c>  // b.hs, b.nlast
    44000edc:	d2800025 	mov	x5, #0x1                   	// #1
    44000ee0:	b9400040 	ldr	w0, [x2]
    44000ee4:	9ac320a1 	lsl	x1, x5, x3
    44000ee8:	53107c00 	lsr	w0, w0, #16
    44000eec:	0a210001 	bic	w1, w0, w1
    44000ef0:	12000c21 	and	w1, w1, #0xf
    44000ef4:	b9000041 	str	w1, [x2]
    44000ef8:	b9400040 	ldr	w0, [x2]
    44000efc:	d3504c00 	ubfx	x0, x0, #16, #4
    44000f00:	6b00003f 	cmp	w1, w0
    44000f04:	54ffffa1 	b.ne	44000ef8 <tzc400_disable_filters+0x40>  // b.any
    44000f08:	11000463 	add	w3, w3, #0x1
    44000f0c:	6b04007f 	cmp	w3, w4
    44000f10:	54fffe81 	b.ne	44000ee0 <tzc400_disable_filters+0x28>  // b.any
    44000f14:	d65f03c0 	ret

0000000044000f18 <cm_init>:
    44000f18:	d65f03c0 	ret
    44000f1c:	00000000 	.inst	0x00000000 ; undefined

0000000044000f20 <cm_setup_context>:
    44000f20:	a9bd7bfd 	stp	x29, x30, [sp, #-48]!
    44000f24:	910003fd 	mov	x29, sp
    44000f28:	a90153f3 	stp	x19, x20, [sp, #16]
    44000f2c:	aa0103f4 	mov	x20, x1
    44000f30:	aa0003f3 	mov	x19, x0
    44000f34:	d2804801 	mov	x1, #0x240                 	// #576
    44000f38:	f90013f5 	str	x21, [sp, #32]
    44000f3c:	940010a4 	bl	440051cc <zeromem>
    44000f40:	d53e1100 	mrs	x0, scr_el3
    44000f44:	b9401281 	ldr	w1, [x20, #16]
    44000f48:	9281a0e2 	mov	x2, #0xfffffffffffff2f8    	// #-3336
    44000f4c:	f2f7ffe2 	movk	x2, #0xbfff, lsl #48
    44000f50:	b9400683 	ldr	w3, [x20, #4]
    44000f54:	8a020000 	and	x0, x0, x2
    44000f58:	d3441022 	ubfx	x2, x1, #4, #1
    44000f5c:	b2760004 	orr	x4, x0, #0x400
    44000f60:	7100005f 	cmp	w2, #0x0
    44000f64:	9a800080 	csel	x0, x4, x0, eq  // eq = none
    44000f68:	f27e007f 	tst	x3, #0x4
    44000f6c:	b2750003 	orr	x3, x0, #0x800
    44000f70:	9a801060 	csel	x0, x3, x0, ne  // ne = any
    44000f74:	927cf800 	and	x0, x0, #0xfffffffffffffff7
    44000f78:	d53e1143 	mrs	x3, cptr_el3
    44000f7c:	f9009e63 	str	x3, [x19, #312]
    44000f80:	34000582 	cbz	w2, 44001030 <cm_setup_context+0x110>
    44000f84:	12000c22 	and	w2, w1, #0xf
    44000f88:	7100285f 	cmp	w2, #0xa
    44000f8c:	54000580 	b.eq	4400103c <cm_setup_context+0x11c>  // b.none
    44000f90:	f9008260 	str	x0, [x19, #256]
    44000f94:	2a0103e1 	mov	w1, w1
    44000f98:	f9400680 	ldr	x0, [x20, #8]
    44000f9c:	a9118261 	stp	x1, x0, [x19, #280]
    44000fa0:	d2800802 	mov	x2, #0x40                  	// #64
    44000fa4:	91006281 	add	x1, x20, #0x18
    44000fa8:	aa1303e0 	mov	x0, x19
    44000fac:	94000d0d 	bl	440043e0 <memcpy>
    44000fb0:	b9400680 	ldr	w0, [x20, #4]
    44000fb4:	52800421 	mov	w1, #0x21                  	// #33
    44000fb8:	6a010000 	ands	w0, w0, w1
    44000fbc:	540005c0 	b.eq	44001074 <cm_setup_context+0x154>  // b.none
    44000fc0:	7100041f 	cmp	w0, #0x1
    44000fc4:	54000941 	b.ne	440010ec <cm_setup_context+0x1cc>  // b.any
    44000fc8:	f9408275 	ldr	x21, [x19, #256]
    44000fcc:	97fffcd7 	bl	44000328 <get_scr_el3_from_routing_model>
    44000fd0:	b9400681 	ldr	w1, [x20, #4]
    44000fd4:	d2810002 	mov	x2, #0x800                 	// #2048
    44000fd8:	b9401284 	ldr	w4, [x20, #16]
    44000fdc:	d2810703 	mov	x3, #0x838                 	// #2104
    44000fe0:	aa0002a0 	orr	x0, x21, x0
    44000fe4:	f2a018a3 	movk	x3, #0xc5, lsl #16
    44000fe8:	d3689c21 	lsl	x1, x1, #24
    44000fec:	f2a61a02 	movk	x2, #0x30d0, lsl #16
    44000ff0:	92670021 	and	x1, x1, #0x2000000
    44000ff4:	f27c009f 	tst	x4, #0x10
    44000ff8:	aa020022 	orr	x2, x1, x2
    44000ffc:	d2800035 	mov	x21, #0x1                   	// #1
    44001000:	aa030021 	orr	x1, x1, x3
    44001004:	f2a08075 	movk	x21, #0x403, lsl #16
    44001008:	9a821021 	csel	x1, x1, x2, ne  // ne = any
    4400100c:	aa150000 	orr	x0, x0, x21
    44001010:	f9008260 	str	x0, [x19, #256]
    44001014:	f900b261 	str	x1, [x19, #352]
    44001018:	d5381020 	mrs	x0, actlr_el1
    4400101c:	f94013f5 	ldr	x21, [sp, #32]
    44001020:	f900da60 	str	x0, [x19, #432]
    44001024:	a94153f3 	ldp	x19, x20, [sp, #16]
    44001028:	a8c37bfd 	ldp	x29, x30, [sp], #48
    4400102c:	d65f03c0 	ret
    44001030:	d3420c22 	ubfx	x2, x1, #2, #2
    44001034:	7100085f 	cmp	w2, #0x2
    44001038:	54fffac1 	b.ne	44000f90 <cm_setup_context+0x70>  // b.any
    4400103c:	d5380702 	mrs	x2, id_aa64mmfr0_el1
    44001040:	d378ec42 	ubfx	x2, x2, #56, #4
    44001044:	b2780003 	orr	x3, x0, #0x100
    44001048:	f100045f 	cmp	x2, #0x1
    4400104c:	d2802002 	mov	x2, #0x100                 	// #256
    44001050:	f2a10002 	movk	x2, #0x800, lsl #16
    44001054:	aa020000 	orr	x0, x0, x2
    44001058:	9a830000 	csel	x0, x0, x3, eq  // eq = none
    4400105c:	d5380702 	mrs	x2, id_aa64mmfr0_el1
    44001060:	d37cfc42 	lsr	x2, x2, #60
    44001064:	b2640003 	orr	x3, x0, #0x10000000
    44001068:	f100085f 	cmp	x2, #0x2
    4400106c:	9a800060 	csel	x0, x3, x0, eq  // eq = none
    44001070:	17ffffc8 	b	44000f90 <cm_setup_context+0x70>
    44001074:	f9408275 	ldr	x21, [x19, #256]
    44001078:	52800000 	mov	w0, #0x0                   	// #0
    4400107c:	97fffcab 	bl	44000328 <get_scr_el3_from_routing_model>
    44001080:	aa0002a0 	orr	x0, x21, x0
    44001084:	d5380421 	mrs	x1, id_aa64pfr1_el1
    44001088:	b9401282 	ldr	w2, [x20, #16]
    4400108c:	53082c21 	ubfx	w1, w1, #8, #4
    44001090:	7100043f 	cmp	w1, #0x1
    44001094:	b2660001 	orr	x1, x0, #0x4000000
    44001098:	9a800020 	csel	x0, x1, x0, eq  // eq = none
    4400109c:	d3420c41 	ubfx	x1, x2, #2, #2
    440010a0:	7100083f 	cmp	w1, #0x2
    440010a4:	540000a1 	b.ne	440010b8 <cm_setup_context+0x198>  // b.any
    440010a8:	d5380401 	mrs	x1, id_aa64pfr0_el1
    440010ac:	d3649c21 	ubfx	x1, x1, #36, #4
    440010b0:	f100043f 	cmp	x1, #0x1
    440010b4:	540000e0 	b.eq	440010d0 <cm_setup_context+0x1b0>  // b.none
    440010b8:	f94013f5 	ldr	x21, [sp, #32]
    440010bc:	f9008260 	str	x0, [x19, #256]
    440010c0:	aa1303e0 	mov	x0, x19
    440010c4:	a94153f3 	ldp	x19, x20, [sp, #16]
    440010c8:	a8c37bfd 	ldp	x29, x30, [sp], #48
    440010cc:	140000bb 	b	440013b8 <sve_disable>
    440010d0:	b26e0000 	orr	x0, x0, #0x40000
    440010d4:	3627ff22 	tbz	w2, #4, 440010b8 <cm_setup_context+0x198>
    440010d8:	90000020 	adrp	x0, 44005000 <init_cpu_data_ptr+0xc>
    440010dc:	91176000 	add	x0, x0, #0x5d8
    440010e0:	940009b8 	bl	440037c0 <tf_log>
    440010e4:	94000a2f 	bl	440039a0 <console_flush>
    440010e8:	94001003 	bl	440050f4 <do_panic>
    440010ec:	90000020 	adrp	x0, 44005000 <init_cpu_data_ptr+0xc>
    440010f0:	91180000 	add	x0, x0, #0x600
    440010f4:	940009b3 	bl	440037c0 <tf_log>
    440010f8:	94000a2a 	bl	440039a0 <console_flush>
    440010fc:	94000ffe 	bl	440050f4 <do_panic>

0000000044001100 <cm_init_context_by_index>:
    44001100:	a9be7bfd 	stp	x29, x30, [sp, #-32]!
    44001104:	910003fd 	mov	x29, sp
    44001108:	f9000bf3 	str	x19, [sp, #16]
    4400110c:	aa0103f3 	mov	x19, x1
    44001110:	52800421 	mov	w1, #0x21                  	// #33
    44001114:	b9400662 	ldr	w2, [x19, #4]
    44001118:	0a010041 	and	w1, w2, w1
    4400111c:	97fffc29 	bl	440001c0 <cm_get_context_by_index>
    44001120:	aa1303e1 	mov	x1, x19
    44001124:	f9400bf3 	ldr	x19, [sp, #16]
    44001128:	a8c27bfd 	ldp	x29, x30, [sp], #32
    4400112c:	17ffff7d 	b	44000f20 <cm_setup_context>

0000000044001130 <cm_init_my_context>:
    44001130:	a9be7bfd 	stp	x29, x30, [sp, #-32]!
    44001134:	910003fd 	mov	x29, sp
    44001138:	f9000bf3 	str	x19, [sp, #16]
    4400113c:	aa0003f3 	mov	x19, x0
    44001140:	52800420 	mov	w0, #0x21                  	// #33
    44001144:	b9400661 	ldr	w1, [x19, #4]
    44001148:	0a000020 	and	w0, w1, w0
    4400114c:	97fffc17 	bl	440001a8 <cm_get_context>
    44001150:	aa1303e1 	mov	x1, x19
    44001154:	f9400bf3 	ldr	x19, [sp, #16]
    44001158:	a8c27bfd 	ldp	x29, x30, [sp], #32
    4400115c:	17ffff71 	b	44000f20 <cm_setup_context>

0000000044001160 <cm_el1_sysregs_context_restore>:
    44001160:	a9be7bfd 	stp	x29, x30, [sp, #-32]!
    44001164:	910003fd 	mov	x29, sp
    44001168:	a90153f3 	stp	x19, x20, [sp, #16]
    4400116c:	2a0003f3 	mov	w19, w0
    44001170:	97fffc0e 	bl	440001a8 <cm_get_context>
    44001174:	91054000 	add	x0, x0, #0x150
    44001178:	94000f15 	bl	44004dcc <el1_sysregs_context_restore>
    4400117c:	340002b3 	cbz	w19, 440011d0 <cm_el1_sysregs_context_restore+0x70>
    44001180:	90000034 	adrp	x20, 44005000 <init_cpu_data_ptr+0xc>
    44001184:	90000020 	adrp	x0, 44005000 <init_cpu_data_ptr+0xc>
    44001188:	912a8281 	add	x1, x20, #0xaa0
    4400118c:	912a8000 	add	x0, x0, #0xaa0
    44001190:	eb00003f 	cmp	x1, x0
    44001194:	54000182 	b.cs	440011c4 <cm_el1_sysregs_context_restore+0x64>  // b.hs, b.nlast
    44001198:	d1000414 	sub	x20, x0, #0x1
    4400119c:	aa0103f3 	mov	x19, x1
    440011a0:	cb010294 	sub	x20, x20, x1
    440011a4:	927df294 	and	x20, x20, #0xfffffffffffffff8
    440011a8:	91002294 	add	x20, x20, #0x8
    440011ac:	8b010294 	add	x20, x20, x1
    440011b0:	f8408661 	ldr	x1, [x19], #8
    440011b4:	d2800000 	mov	x0, #0x0                   	// #0
    440011b8:	d63f0020 	blr	x1
    440011bc:	eb14027f 	cmp	x19, x20
    440011c0:	54ffff81 	b.ne	440011b0 <cm_el1_sysregs_context_restore+0x50>  // b.any
    440011c4:	a94153f3 	ldp	x19, x20, [sp, #16]
    440011c8:	a8c27bfd 	ldp	x29, x30, [sp], #32
    440011cc:	d65f03c0 	ret
    440011d0:	90000034 	adrp	x20, 44005000 <init_cpu_data_ptr+0xc>
    440011d4:	90000020 	adrp	x0, 44005000 <init_cpu_data_ptr+0xc>
    440011d8:	912a6281 	add	x1, x20, #0xa98
    440011dc:	912a8000 	add	x0, x0, #0xaa0
    440011e0:	eb00003f 	cmp	x1, x0
    440011e4:	54ffff02 	b.cs	440011c4 <cm_el1_sysregs_context_restore+0x64>  // b.hs, b.nlast
    440011e8:	d1000414 	sub	x20, x0, #0x1
    440011ec:	aa0103f3 	mov	x19, x1
    440011f0:	cb010294 	sub	x20, x20, x1
    440011f4:	927df294 	and	x20, x20, #0xfffffffffffffff8
    440011f8:	91002294 	add	x20, x20, #0x8
    440011fc:	8b010294 	add	x20, x20, x1
    44001200:	f8408661 	ldr	x1, [x19], #8
    44001204:	d2800000 	mov	x0, #0x0                   	// #0
    44001208:	d63f0020 	blr	x1
    4400120c:	eb13029f 	cmp	x20, x19
    44001210:	54ffff81 	b.ne	44001200 <cm_el1_sysregs_context_restore+0xa0>  // b.any
    44001214:	a94153f3 	ldp	x19, x20, [sp, #16]
    44001218:	a8c27bfd 	ldp	x29, x30, [sp], #32
    4400121c:	d65f03c0 	ret

0000000044001220 <cm_prepare_el3_exit>:
    44001220:	a9be7bfd 	stp	x29, x30, [sp, #-32]!
    44001224:	910003fd 	mov	x29, sp
    44001228:	a90153f3 	stp	x19, x20, [sp, #16]
    4400122c:	2a0003f3 	mov	w19, w0
    44001230:	97fffbde 	bl	440001a8 <cm_get_context>
    44001234:	7100067f 	cmp	w19, #0x1
    44001238:	54000160 	b.eq	44001264 <cm_prepare_el3_exit+0x44>  // b.none
    4400123c:	2a1303e0 	mov	w0, w19
    44001240:	97ffffc8 	bl	44001160 <cm_el1_sysregs_context_restore>
    44001244:	2a1303e0 	mov	w0, w19
    44001248:	97fffbd8 	bl	440001a8 <cm_get_context>
    4400124c:	d50041bf 	msr	spsel, #0x1
    44001250:	9100001f 	mov	sp, x0
    44001254:	d50040bf 	msr	spsel, #0x0
    44001258:	a94153f3 	ldp	x19, x20, [sp, #16]
    4400125c:	a8c27bfd 	ldp	x29, x30, [sp], #32
    44001260:	d65f03c0 	ret
    44001264:	f9408001 	ldr	x1, [x0, #256]
    44001268:	aa0003f4 	mov	x20, x0
    4400126c:	92780022 	and	x2, x1, #0x100
    44001270:	37400421 	tbnz	w1, #8, 440012f4 <cm_prepare_el3_exit+0xd4>
    44001274:	d5380403 	mrs	x3, id_aa64pfr0_el1
    44001278:	52800000 	mov	w0, #0x0                   	// #0
    4400127c:	f2780c7f 	tst	x3, #0xf00
    44001280:	54000320 	b.eq	440012e4 <cm_prepare_el3_exit+0xc4>  // b.none
    44001284:	f276003f 	tst	x1, #0x400
    44001288:	d2b00001 	mov	x1, #0x80000000            	// #2147483648
    4400128c:	f2c06001 	movk	x1, #0x300, lsl #32
    44001290:	d2c06000 	mov	x0, #0x30000000000         	// #3298534883328
    44001294:	9a810000 	csel	x0, x0, x1, eq  // eq = none
    44001298:	d51c1100 	msr	hcr_el2, x0
    4400129c:	d2867fe0 	mov	x0, #0x33ff                	// #13311
    440012a0:	d51c1140 	msr	cptr_el2, x0
    440012a4:	d2800060 	mov	x0, #0x3                   	// #3
    440012a8:	d51ce100 	msr	cnthctl_el2, x0
    440012ac:	d51ce062 	msr	cntvoff_el2, x2
    440012b0:	d5380000 	mrs	x0, midr_el1
    440012b4:	d51c0000 	msr	vpidr_el2, x0
    440012b8:	d53800a0 	mrs	x0, mpidr_el1
    440012bc:	d51c00a0 	msr	vmpidr_el2, x0
    440012c0:	d51c2102 	msr	vttbr_el2, x2
    440012c4:	d53b9c00 	mrs	x0, pmcr_el0
    440012c8:	d34b3c00 	ubfx	x0, x0, #11, #5
    440012cc:	d2a08041 	mov	x1, #0x4020000             	// #67239936
    440012d0:	aa010000 	orr	x0, x0, x1
    440012d4:	d51c1120 	msr	mdcr_el2, x0
    440012d8:	d51c1162 	msr	hstr_el2, x2
    440012dc:	d51ce222 	msr	cnthp_ctl_el2, x2
    440012e0:	2a1303e0 	mov	w0, w19
    440012e4:	94000019 	bl	44001348 <spe_enable>
    440012e8:	aa1403e0 	mov	x0, x20
    440012ec:	94000027 	bl	44001388 <sve_enable>
    440012f0:	17ffffd3 	b	4400123c <cm_prepare_el3_exit+0x1c>
    440012f4:	f940b000 	ldr	x0, [x0, #352]
    440012f8:	d2810601 	mov	x1, #0x830                 	// #2096
    440012fc:	f2a618a1 	movk	x1, #0x30c5, lsl #16
    44001300:	92670000 	and	x0, x0, #0x2000000
    44001304:	aa010000 	orr	x0, x0, x1
    44001308:	d51c1000 	msr	sctlr_el2, x0
    4400130c:	52800000 	mov	w0, #0x0                   	// #0
    44001310:	17fffff5 	b	440012e4 <cm_prepare_el3_exit+0xc4>
    44001314:	00000000 	.inst	0x00000000 ; undefined

0000000044001318 <cm_prepare_el3_exit_ns>:
    44001318:	52800020 	mov	w0, #0x1                   	// #1
    4400131c:	17ffffc1 	b	44001220 <cm_prepare_el3_exit>

0000000044001320 <spe_drain_buffers_hook>:
    44001320:	d5380501 	mrs	x1, id_aa64dfr0_el1
    44001324:	92800000 	mov	x0, #0xffffffffffffffff    	// #-1
    44001328:	f2600c3f 	tst	x1, #0xf00000000
    4400132c:	54000041 	b.ne	44001334 <spe_drain_buffers_hook+0x14>  // b.any
    44001330:	d65f03c0 	ret
    44001334:	d503223f 	psb	csync
    44001338:	d503379f 	dsb	nsh
    4400133c:	d2800000 	mov	x0, #0x0                   	// #0
    44001340:	d65f03c0 	ret
    44001344:	00000000 	.inst	0x00000000 ; undefined

0000000044001348 <spe_enable>:
    44001348:	12001c00 	and	w0, w0, #0xff
    4400134c:	d5380501 	mrs	x1, id_aa64dfr0_el1
    44001350:	f2600c3f 	tst	x1, #0xf00000000
    44001354:	54000180 	b.eq	44001384 <spe_enable+0x3c>  // b.none
    44001358:	340000c0 	cbz	w0, 44001370 <spe_enable+0x28>
    4400135c:	d53c1120 	mrs	x0, mdcr_el2
    44001360:	92407c00 	and	x0, x0, #0xffffffff
    44001364:	9271f800 	and	x0, x0, #0xffffffffffffbfff
    44001368:	b2740400 	orr	x0, x0, #0x3000
    4400136c:	d51c1120 	msr	mdcr_el2, x0
    44001370:	d53e1320 	mrs	x0, mdcr_el3
    44001374:	d2860001 	mov	x1, #0x3000                	// #12288
    44001378:	f2c00201 	movk	x1, #0x10, lsl #32
    4400137c:	aa010000 	orr	x0, x0, x1
    44001380:	d51e1320 	msr	mdcr_el3, x0
    44001384:	d65f03c0 	ret

0000000044001388 <sve_enable>:
    44001388:	d5380401 	mrs	x1, id_aa64pfr0_el1
    4400138c:	d3608c21 	ubfx	x1, x1, #32, #4
    44001390:	f100043f 	cmp	x1, #0x1
    44001394:	540000e1 	b.ne	440013b0 <sve_enable+0x28>  // b.any
    44001398:	f9409c01 	ldr	x1, [x0, #312]
    4400139c:	1280a002 	mov	w2, #0xfffffaff            	// #-1281
    440013a0:	d2800063 	mov	x3, #0x3                   	// #3
    440013a4:	8a020021 	and	x1, x1, x2
    440013a8:	b2780021 	orr	x1, x1, #0x100
    440013ac:	a9138c01 	stp	x1, x3, [x0, #312]
    440013b0:	d65f03c0 	ret
    440013b4:	00000000 	.inst	0x00000000 ; undefined

00000000440013b8 <sve_disable>:
    440013b8:	d5380401 	mrs	x1, id_aa64pfr0_el1
    440013bc:	d3608c21 	ubfx	x1, x1, #32, #4
    440013c0:	f100043f 	cmp	x1, #0x1
    440013c4:	540000c1 	b.ne	440013dc <sve_disable+0x24>  // b.any
    440013c8:	f9409c01 	ldr	x1, [x0, #312]
    440013cc:	92407c21 	and	x1, x1, #0xffffffff
    440013d0:	9277f821 	and	x1, x1, #0xfffffffffffffeff
    440013d4:	b2760021 	orr	x1, x1, #0x400
    440013d8:	f9009c01 	str	x1, [x0, #312]
    440013dc:	d65f03c0 	ret

00000000440013e0 <psci_validate_power_state>:
    440013e0:	52bf9fc2 	mov	w2, #0xfcfe0000            	// #-50462720
    440013e4:	6a02001f 	tst	w0, w2
    440013e8:	540000a1 	b.ne	440013fc <psci_validate_power_state+0x1c>  // b.any
    440013ec:	90000042 	adrp	x2, 44009000 <__STACKS_START__+0x1f80>
    440013f0:	f9436442 	ldr	x2, [x2, #1736]
    440013f4:	f9402c42 	ldr	x2, [x2, #88]
    440013f8:	d61f0040 	br	x2
    440013fc:	12800020 	mov	w0, #0xfffffffe            	// #-2
    44001400:	d65f03c0 	ret
    44001404:	00000000 	.inst	0x00000000 ; undefined

0000000044001408 <psci_query_sys_suspend_pwrstate>:
    44001408:	90000041 	adrp	x1, 44009000 <__STACKS_START__+0x1f80>
    4400140c:	f9436421 	ldr	x1, [x1, #1736]
    44001410:	f9403421 	ldr	x1, [x1, #104]
    44001414:	d61f0020 	br	x1

0000000044001418 <psci_is_last_on_cpu>:
    44001418:	a9bd7bfd 	stp	x29, x30, [sp, #-48]!
    4400141c:	910003fd 	mov	x29, sp
    44001420:	a90153f3 	stp	x19, x20, [sp, #16]
    44001424:	90000054 	adrp	x20, 44009000 <__STACKS_START__+0x1f80>
    44001428:	f90013f5 	str	x21, [sp, #32]
    4400142c:	94000f15 	bl	44005080 <plat_my_core_pos>
    44001430:	2a0003f5 	mov	w21, w0
    44001434:	b9498a80 	ldr	w0, [x20, #2440]
    44001438:	340001e0 	cbz	w0, 44001474 <psci_is_last_on_cpu+0x5c>
    4400143c:	91262294 	add	x20, x20, #0x988
    44001440:	52800013 	mov	w19, #0x0                   	// #0
    44001444:	d503201f 	nop
    44001448:	2a1303e0 	mov	w0, w19
    4400144c:	6b1302bf 	cmp	w21, w19
    44001450:	11000673 	add	w19, w19, #0x1
    44001454:	540000a0 	b.eq	44001468 <psci_is_last_on_cpu+0x50>  // b.none
    44001458:	94000eec 	bl	44005008 <_cpu_data_by_index>
    4400145c:	b9401800 	ldr	w0, [x0, #24]
    44001460:	7100041f 	cmp	w0, #0x1
    44001464:	54000121 	b.ne	44001488 <psci_is_last_on_cpu+0x70>  // b.any
    44001468:	b9400280 	ldr	w0, [x20]
    4400146c:	6b13001f 	cmp	w0, w19
    44001470:	54fffec8 	b.hi	44001448 <psci_is_last_on_cpu+0x30>  // b.pmore
    44001474:	52800020 	mov	w0, #0x1                   	// #1
    44001478:	a94153f3 	ldp	x19, x20, [sp, #16]
    4400147c:	f94013f5 	ldr	x21, [sp, #32]
    44001480:	a8c37bfd 	ldp	x29, x30, [sp], #48
    44001484:	d65f03c0 	ret
    44001488:	52800000 	mov	w0, #0x0                   	// #0
    4400148c:	a94153f3 	ldp	x19, x20, [sp, #16]
    44001490:	f94013f5 	ldr	x21, [sp, #32]
    44001494:	a8c37bfd 	ldp	x29, x30, [sp], #48
    44001498:	d65f03c0 	ret
    4400149c:	00000000 	.inst	0x00000000 ; undefined

00000000440014a0 <psci_init_req_local_pwr_states>:
    440014a0:	90000040 	adrp	x0, 44009000 <__STACKS_START__+0x1f80>
    440014a4:	b9498800 	ldr	w0, [x0, #2440]
    440014a8:	34000140 	cbz	w0, 440014d0 <psci_init_req_local_pwr_states+0x30>
    440014ac:	90000042 	adrp	x2, 44009000 <__STACKS_START__+0x1f80>
    440014b0:	52800041 	mov	w1, #0x2                   	// #2
    440014b4:	7100041f 	cmp	w0, #0x1
    440014b8:	911b4040 	add	x0, x2, #0x6d0
    440014bc:	391b4041 	strb	w1, [x2, #1744]
    440014c0:	540000a9 	b.ls	440014d4 <psci_init_req_local_pwr_states+0x34>  // b.plast
    440014c4:	52804042 	mov	w2, #0x202                 	// #514
    440014c8:	39000401 	strb	w1, [x0, #1]
    440014cc:	79000402 	strh	w2, [x0, #2]
    440014d0:	d65f03c0 	ret
    440014d4:	39000801 	strb	w1, [x0, #2]
    440014d8:	d65f03c0 	ret
    440014dc:	00000000 	.inst	0x00000000 ; undefined

00000000440014e0 <psci_get_target_local_pwr_states>:
    440014e0:	a9be7bfd 	stp	x29, x30, [sp, #-32]!
    440014e4:	910003fd 	mov	x29, sp
    440014e8:	a90153f3 	stp	x19, x20, [sp, #16]
    440014ec:	2a0003f4 	mov	w20, w0
    440014f0:	aa0103f3 	mov	x19, x1
    440014f4:	d53ed040 	mrs	x0, tpidr_el3
    440014f8:	39408000 	ldrb	w0, [x0, #32]
    440014fc:	39000020 	strb	w0, [x1]
    44001500:	94000ee0 	bl	44005080 <plat_my_core_pos>
    44001504:	d37c7c00 	ubfiz	x0, x0, #4, #32
    44001508:	90000041 	adrp	x1, 44009000 <__STACKS_START__+0x1f80>
    4400150c:	911a0021 	add	x1, x1, #0x680
    44001510:	8b000021 	add	x1, x1, x0
    44001514:	b9400820 	ldr	w0, [x1, #8]
    44001518:	340002b4 	cbz	w20, 4400156c <psci_get_target_local_pwr_states+0x8c>
    4400151c:	90000041 	adrp	x1, 44009000 <__STACKS_START__+0x1f80>
    44001520:	911aa021 	add	x1, x1, #0x6a8
    44001524:	52800022 	mov	w2, #0x1                   	// #1
    44001528:	d37c7c00 	ubfiz	x0, x0, #4, #32
    4400152c:	8b000020 	add	x0, x1, x0
    44001530:	39403003 	ldrb	w3, [x0, #12]
    44001534:	38224a63 	strb	w3, [x19, w2, uxtw]
    44001538:	11000442 	add	w2, w2, #0x1
    4400153c:	6b02029f 	cmp	w20, w2
    44001540:	b9400800 	ldr	w0, [x0, #8]
    44001544:	54ffff22 	b.cs	44001528 <psci_get_target_local_pwr_states+0x48>  // b.hs, b.nlast
    44001548:	7100085f 	cmp	w2, #0x2
    4400154c:	540000a8 	b.hi	44001560 <psci_get_target_local_pwr_states+0x80>  // b.pmore
    44001550:	38224a7f 	strb	wzr, [x19, w2, uxtw]
    44001554:	11000442 	add	w2, w2, #0x1
    44001558:	71000c5f 	cmp	w2, #0x3
    4400155c:	54ffffa1 	b.ne	44001550 <psci_get_target_local_pwr_states+0x70>  // b.any
    44001560:	a94153f3 	ldp	x19, x20, [sp, #16]
    44001564:	a8c27bfd 	ldp	x29, x30, [sp], #32
    44001568:	d65f03c0 	ret
    4400156c:	52800022 	mov	w2, #0x1                   	// #1
    44001570:	17fffff8 	b	44001550 <psci_get_target_local_pwr_states+0x70>
    44001574:	00000000 	.inst	0x00000000 ; undefined

0000000044001578 <psci_get_parent_pwr_domain_nodes>:
    44001578:	d37c7c00 	ubfiz	x0, x0, #4, #32
    4400157c:	90000043 	adrp	x3, 44009000 <__STACKS_START__+0x1f80>
    44001580:	911a0063 	add	x3, x3, #0x680
    44001584:	8b000063 	add	x3, x3, x0
    44001588:	b9400863 	ldr	w3, [x3, #8]
    4400158c:	34000181 	cbz	w1, 440015bc <psci_get_parent_pwr_domain_nodes+0x44>
    44001590:	90000045 	adrp	x5, 44009000 <__STACKS_START__+0x1f80>
    44001594:	911aa0a5 	add	x5, x5, #0x6a8
    44001598:	52800024 	mov	w4, #0x1                   	// #1
    4400159c:	d503201f 	nop
    440015a0:	d37c7c60 	ubfiz	x0, x3, #4, #32
    440015a4:	b8004443 	str	w3, [x2], #4
    440015a8:	8b0000a0 	add	x0, x5, x0
    440015ac:	11000484 	add	w4, w4, #0x1
    440015b0:	6b04003f 	cmp	w1, w4
    440015b4:	b9400803 	ldr	w3, [x0, #8]
    440015b8:	54ffff42 	b.cs	440015a0 <psci_get_parent_pwr_domain_nodes+0x28>  // b.hs, b.nlast
    440015bc:	d65f03c0 	ret

00000000440015c0 <psci_set_pwr_domains_to_run>:
    440015c0:	a9be7bfd 	stp	x29, x30, [sp, #-32]!
    440015c4:	910003fd 	mov	x29, sp
    440015c8:	f9000bf3 	str	x19, [sp, #16]
    440015cc:	2a0003f3 	mov	w19, w0
    440015d0:	94000eac 	bl	44005080 <plat_my_core_pos>
    440015d4:	34000513 	cbz	w19, 44001674 <psci_set_pwr_domains_to_run+0xb4>
    440015d8:	2a0003e8 	mov	w8, w0
    440015dc:	90000041 	adrp	x1, 44009000 <__STACKS_START__+0x1f80>
    440015e0:	911a0021 	add	x1, x1, #0x680
    440015e4:	90000043 	adrp	x3, 44009000 <__STACKS_START__+0x1f80>
    440015e8:	8b081021 	add	x1, x1, x8, lsl #4
    440015ec:	911aa063 	add	x3, x3, #0x6a8
    440015f0:	90000042 	adrp	x2, 44009000 <__STACKS_START__+0x1f80>
    440015f4:	90000047 	adrp	x7, 44009000 <__STACKS_START__+0x1f80>
    440015f8:	911b40e7 	add	x7, x7, #0x6d0
    440015fc:	b9400821 	ldr	w1, [x1, #8]
    44001600:	b9498849 	ldr	w9, [x2, #2440]
    44001604:	52800002 	mov	w2, #0x0                   	// #0
    44001608:	11000845 	add	w5, w2, #0x2
    4400160c:	7100045f 	cmp	w2, #0x1
    44001610:	2a0103e1 	mov	w1, w1
    44001614:	11000444 	add	w4, w2, #0x1
    44001618:	8b011066 	add	x6, x3, x1, lsl #4
    4400161c:	aa0603e1 	mov	x1, x6
    44001620:	390030df 	strb	wzr, [x6, #12]
    44001624:	540001a9 	b.ls	44001658 <psci_set_pwr_domains_to_run+0x98>  // b.plast
    44001628:	6b1300bf 	cmp	w5, w19
    4400162c:	2a0403e2 	mov	w2, w4
    44001630:	54000228 	b.hi	44001674 <psci_set_pwr_domains_to_run+0xb4>  // b.pmore
    44001634:	b9400821 	ldr	w1, [x1, #8]
    44001638:	11000845 	add	w5, w2, #0x2
    4400163c:	7100045f 	cmp	w2, #0x1
    44001640:	11000444 	add	w4, w2, #0x1
    44001644:	2a0103e1 	mov	w1, w1
    44001648:	8b011066 	add	x6, x3, x1, lsl #4
    4400164c:	aa0603e1 	mov	x1, x6
    44001650:	390030df 	strb	wzr, [x6, #12]
    44001654:	54fffea8 	b.hi	44001628 <psci_set_pwr_domains_to_run+0x68>  // b.pmore
    44001658:	8b2244e2 	add	x2, x7, w2, uxtw #1
    4400165c:	6b09001f 	cmp	w0, w9
    44001660:	54fffe42 	b.cs	44001628 <psci_set_pwr_domains_to_run+0x68>  // b.hs, b.nlast
    44001664:	3828685f 	strb	wzr, [x2, x8]
    44001668:	6b1300bf 	cmp	w5, w19
    4400166c:	2a0403e2 	mov	w2, w4
    44001670:	54fffe29 	b.ls	44001634 <psci_set_pwr_domains_to_run+0x74>  // b.plast
    44001674:	d53ed040 	mrs	x0, tpidr_el3
    44001678:	b900181f 	str	wzr, [x0, #24]
    4400167c:	d53ed040 	mrs	x0, tpidr_el3
    44001680:	3900801f 	strb	wzr, [x0, #32]
    44001684:	f9400bf3 	ldr	x19, [sp, #16]
    44001688:	a8c27bfd 	ldp	x29, x30, [sp], #32
    4400168c:	d65f03c0 	ret

0000000044001690 <psci_do_state_coordination>:
    44001690:	a9b97bfd 	stp	x29, x30, [sp, #-112]!
    44001694:	910003fd 	mov	x29, sp
    44001698:	a9025bf5 	stp	x21, x22, [sp, #32]
    4400169c:	a90363f7 	stp	x23, x24, [sp, #48]
    440016a0:	90000058 	adrp	x24, 44009000 <__STACKS_START__+0x1f80>
    440016a4:	a9046bf9 	stp	x25, x26, [sp, #64]
    440016a8:	2a0003f9 	mov	w25, w0
    440016ac:	a90573fb 	stp	x27, x28, [sp, #80]
    440016b0:	aa0103fc 	mov	x28, x1
    440016b4:	94000e73 	bl	44005080 <plat_my_core_pos>
    440016b8:	2a0003f6 	mov	w22, w0
    440016bc:	911a0300 	add	x0, x24, #0x680
    440016c0:	f90037e0 	str	x0, [sp, #104]
    440016c4:	2a1603f8 	mov	w24, w22
    440016c8:	8b181000 	add	x0, x0, x24, lsl #4
    440016cc:	b9400800 	ldr	w0, [x0, #8]
    440016d0:	34000899 	cbz	w25, 440017e0 <psci_do_state_coordination+0x150>
    440016d4:	a90153f3 	stp	x19, x20, [sp, #16]
    440016d8:	5280003a 	mov	w26, #0x1                   	// #1
    440016dc:	51000741 	sub	w1, w26, #0x1
    440016e0:	9000005b 	adrp	x27, 44009000 <__STACKS_START__+0x1f80>
    440016e4:	90000057 	adrp	x23, 44009000 <__STACKS_START__+0x1f80>
    440016e8:	90000055 	adrp	x21, 44009000 <__STACKS_START__+0x1f80>
    440016ec:	911aa37b 	add	x27, x27, #0x6a8
    440016f0:	912622f7 	add	x23, x23, #0x988
    440016f4:	911b42b5 	add	x21, x21, #0x6d0
    440016f8:	7100043f 	cmp	w1, #0x1
    440016fc:	54000269 	b.ls	44001748 <psci_do_state_coordination+0xb8>  // b.plast
    44001700:	2a0003e0 	mov	w0, w0
    44001704:	2a1a03f4 	mov	w20, w26
    44001708:	8b001373 	add	x19, x27, x0, lsl #4
    4400170c:	d2800001 	mov	x1, #0x0                   	// #0
    44001710:	2a1a03e0 	mov	w0, w26
    44001714:	b9400662 	ldr	w2, [x19, #4]
    44001718:	940005f6 	bl	44002ef0 <plat_get_target_pwr_state>
    4400171c:	38346b80 	strb	w0, [x28, x20]
    44001720:	72001c1f 	tst	w0, #0xff
    44001724:	11000741 	add	w1, w26, #0x1
    44001728:	540003e0 	b.eq	440017a4 <psci_do_state_coordination+0x114>  // b.none
    4400172c:	6b19003f 	cmp	w1, w25
    44001730:	b9400a60 	ldr	w0, [x19, #8]
    44001734:	54000968 	b.hi	44001860 <psci_do_state_coordination+0x1d0>  // b.pmore
    44001738:	2a0103fa 	mov	w26, w1
    4400173c:	51000741 	sub	w1, w26, #0x1
    44001740:	7100043f 	cmp	w1, #0x1
    44001744:	54fffde8 	b.hi	44001700 <psci_do_state_coordination+0x70>  // b.pmore
    44001748:	b94002e4 	ldr	w4, [x23]
    4400174c:	2a1a03f4 	mov	w20, w26
    44001750:	6b0402df 	cmp	w22, w4
    44001754:	54000082 	b.cs	44001764 <psci_do_state_coordination+0xd4>  // b.hs, b.nlast
    44001758:	8b2146a2 	add	x2, x21, w1, uxtw #1
    4400175c:	387a4b85 	ldrb	w5, [x28, w26, uxtw]
    44001760:	38386845 	strb	w5, [x2, x24]
    44001764:	2a0003e0 	mov	w0, w0
    44001768:	d37cec02 	lsl	x2, x0, #4
    4400176c:	b8626b62 	ldr	w2, [x27, x2]
    44001770:	6b02009f 	cmp	w4, w2
    44001774:	54fffca9 	b.ls	44001708 <psci_do_state_coordination+0x78>  // b.plast
    44001778:	8b001373 	add	x19, x27, x0, lsl #4
    4400177c:	2a0203e2 	mov	w2, w2
    44001780:	8b214441 	add	x1, x2, w1, uxtw #1
    44001784:	2a1a03e0 	mov	w0, w26
    44001788:	8b0102a1 	add	x1, x21, x1
    4400178c:	b9400662 	ldr	w2, [x19, #4]
    44001790:	940005d8 	bl	44002ef0 <plat_get_target_pwr_state>
    44001794:	38346b80 	strb	w0, [x28, x20]
    44001798:	72001c1f 	tst	w0, #0xff
    4400179c:	11000741 	add	w1, w26, #0x1
    440017a0:	54fffc61 	b.ne	4400172c <psci_do_state_coordination+0x9c>  // b.any
    440017a4:	6b01033f 	cmp	w25, w1
    440017a8:	540001a3 	b.cc	440017dc <psci_do_state_coordination+0x14c>  // b.lo, b.ul, b.last
    440017ac:	90000040 	adrp	x0, 44009000 <__STACKS_START__+0x1f80>
    440017b0:	90000044 	adrp	x4, 44009000 <__STACKS_START__+0x1f80>
    440017b4:	911b4084 	add	x4, x4, #0x6d0
    440017b8:	b9498805 	ldr	w5, [x0, #2440]
    440017bc:	51000420 	sub	w0, w1, #0x1
    440017c0:	2a0103e2 	mov	w2, w1
    440017c4:	7100041f 	cmp	w0, #0x1
    440017c8:	11000421 	add	w1, w1, #0x1
    440017cc:	540003e9 	b.ls	44001848 <psci_do_state_coordination+0x1b8>  // b.plast
    440017d0:	38226b9f 	strb	wzr, [x28, x2]
    440017d4:	6b01033f 	cmp	w25, w1
    440017d8:	54ffff22 	b.cs	440017bc <psci_do_state_coordination+0x12c>  // b.hs, b.nlast
    440017dc:	a94153f3 	ldp	x19, x20, [sp, #16]
    440017e0:	39400381 	ldrb	w1, [x28]
    440017e4:	d53ed040 	mrs	x0, tpidr_el3
    440017e8:	39008001 	strb	w1, [x0, #32]
    440017ec:	9000005b 	adrp	x27, 44009000 <__STACKS_START__+0x1f80>
    440017f0:	911aa37b 	add	x27, x27, #0x6a8
    440017f4:	94000e23 	bl	44005080 <plat_my_core_pos>
    440017f8:	d37c7c00 	ubfiz	x0, x0, #4, #32
    440017fc:	f94037e1 	ldr	x1, [sp, #104]
    44001800:	8b000038 	add	x24, x1, x0
    44001804:	52800021 	mov	w1, #0x1                   	// #1
    44001808:	b9400b00 	ldr	w0, [x24, #8]
    4400180c:	34000139 	cbz	w25, 44001830 <psci_do_state_coordination+0x1a0>
    44001810:	d37c7c00 	ubfiz	x0, x0, #4, #32
    44001814:	38614b82 	ldrb	w2, [x28, w1, uxtw]
    44001818:	8b000360 	add	x0, x27, x0
    4400181c:	11000421 	add	w1, w1, #0x1
    44001820:	6b01033f 	cmp	w25, w1
    44001824:	39003002 	strb	w2, [x0, #12]
    44001828:	b9400800 	ldr	w0, [x0, #8]
    4400182c:	54ffff22 	b.cs	44001810 <psci_do_state_coordination+0x180>  // b.hs, b.nlast
    44001830:	a9425bf5 	ldp	x21, x22, [sp, #32]
    44001834:	a94363f7 	ldp	x23, x24, [sp, #48]
    44001838:	a9446bf9 	ldp	x25, x26, [sp, #64]
    4400183c:	a94573fb 	ldp	x27, x28, [sp, #80]
    44001840:	a8c77bfd 	ldp	x29, x30, [sp], #112
    44001844:	d65f03c0 	ret
    44001848:	8b204480 	add	x0, x4, w0, uxtw #1
    4400184c:	6b0502df 	cmp	w22, w5
    44001850:	54fffc02 	b.cs	440017d0 <psci_do_state_coordination+0x140>  // b.hs, b.nlast
    44001854:	38626b86 	ldrb	w6, [x28, x2]
    44001858:	38386806 	strb	w6, [x0, x24]
    4400185c:	17ffffdd 	b	440017d0 <psci_do_state_coordination+0x140>
    44001860:	11000b41 	add	w1, w26, #0x2
    44001864:	17ffffd0 	b	440017a4 <psci_do_state_coordination+0x114>

0000000044001868 <psci_find_max_off_lvl>:
    44001868:	39400801 	ldrb	w1, [x0, #2]
    4400186c:	7100083f 	cmp	w1, #0x2
    44001870:	54000120 	b.eq	44001894 <psci_find_max_off_lvl+0x2c>  // b.none
    44001874:	39400401 	ldrb	w1, [x0, #1]
    44001878:	7100083f 	cmp	w1, #0x2
    4400187c:	54000100 	b.eq	4400189c <psci_find_max_off_lvl+0x34>  // b.none
    44001880:	39400001 	ldrb	w1, [x0]
    44001884:	52800060 	mov	w0, #0x3                   	// #3
    44001888:	7100083f 	cmp	w1, #0x2
    4400188c:	1a9f1000 	csel	w0, w0, wzr, ne  // ne = any
    44001890:	d65f03c0 	ret
    44001894:	2a0103e0 	mov	w0, w1
    44001898:	d65f03c0 	ret
    4400189c:	52800020 	mov	w0, #0x1                   	// #1
    440018a0:	d65f03c0 	ret
    440018a4:	00000000 	.inst	0x00000000 ; undefined

00000000440018a8 <psci_find_target_suspend_lvl>:
    440018a8:	39400801 	ldrb	w1, [x0, #2]
    440018ac:	35000101 	cbnz	w1, 440018cc <psci_find_target_suspend_lvl+0x24>
    440018b0:	39400401 	ldrb	w1, [x0, #1]
    440018b4:	35000101 	cbnz	w1, 440018d4 <psci_find_target_suspend_lvl+0x2c>
    440018b8:	39400001 	ldrb	w1, [x0]
    440018bc:	52800060 	mov	w0, #0x3                   	// #3
    440018c0:	7100003f 	cmp	w1, #0x0
    440018c4:	1a9f0000 	csel	w0, w0, wzr, eq  // eq = none
    440018c8:	d65f03c0 	ret
    440018cc:	52800040 	mov	w0, #0x2                   	// #2
    440018d0:	d65f03c0 	ret
    440018d4:	52800020 	mov	w0, #0x1                   	// #1
    440018d8:	d65f03c0 	ret
    440018dc:	00000000 	.inst	0x00000000 ; undefined

00000000440018e0 <psci_acquire_pwr_domain_locks>:
    440018e0:	34000380 	cbz	w0, 44001950 <psci_acquire_pwr_domain_locks+0x70>
    440018e4:	a9bc7bfd 	stp	x29, x30, [sp, #-64]!
    440018e8:	910003fd 	mov	x29, sp
    440018ec:	a90153f3 	stp	x19, x20, [sp, #16]
    440018f0:	2a0003f4 	mov	w20, w0
    440018f4:	52800033 	mov	w19, #0x1                   	// #1
    440018f8:	a9025bf5 	stp	x21, x22, [sp, #32]
    440018fc:	90000056 	adrp	x22, 44009000 <__STACKS_START__+0x1f80>
    44001900:	aa0103f5 	mov	x21, x1
    44001904:	911aa2d6 	add	x22, x22, #0x6a8
    44001908:	f9001bf7 	str	x23, [sp, #48]
    4400190c:	90000057 	adrp	x23, 44009000 <__STACKS_START__+0x1f80>
    44001910:	911a82f7 	add	x23, x23, #0x6a0
    44001914:	d503201f 	nop
    44001918:	51000662 	sub	w2, w19, #0x1
    4400191c:	11000673 	add	w19, w19, #0x1
    44001920:	b8627aa2 	ldr	w2, [x21, x2, lsl #2]
    44001924:	8b0212c2 	add	x2, x22, x2, lsl #4
    44001928:	79401c40 	ldrh	w0, [x2, #14]
    4400192c:	8b000ae0 	add	x0, x23, x0, lsl #2
    44001930:	94000dbc 	bl	44005020 <spin_lock>
    44001934:	6b13029f 	cmp	w20, w19
    44001938:	54ffff02 	b.cs	44001918 <psci_acquire_pwr_domain_locks+0x38>  // b.hs, b.nlast
    4400193c:	a94153f3 	ldp	x19, x20, [sp, #16]
    44001940:	a9425bf5 	ldp	x21, x22, [sp, #32]
    44001944:	f9401bf7 	ldr	x23, [sp, #48]
    44001948:	a8c47bfd 	ldp	x29, x30, [sp], #64
    4400194c:	d65f03c0 	ret
    44001950:	d65f03c0 	ret
    44001954:	00000000 	.inst	0x00000000 ; undefined

0000000044001958 <psci_release_pwr_domain_locks>:
    44001958:	34000380 	cbz	w0, 440019c8 <psci_release_pwr_domain_locks+0x70>
    4400195c:	a9bc7bfd 	stp	x29, x30, [sp, #-64]!
    44001960:	910003fd 	mov	x29, sp
    44001964:	a90153f3 	stp	x19, x20, [sp, #16]
    44001968:	51000414 	sub	w20, w0, #0x1
    4400196c:	8b140834 	add	x20, x1, x20, lsl #2
    44001970:	a9025bf5 	stp	x21, x22, [sp, #32]
    44001974:	90000056 	adrp	x22, 44009000 <__STACKS_START__+0x1f80>
    44001978:	aa0103f5 	mov	x21, x1
    4400197c:	911aa2d6 	add	x22, x22, #0x6a8
    44001980:	f9001bf7 	str	x23, [sp, #48]
    44001984:	90000057 	adrp	x23, 44009000 <__STACKS_START__+0x1f80>
    44001988:	911a82f7 	add	x23, x23, #0x6a0
    4400198c:	d503201f 	nop
    44001990:	aa1403f3 	mov	x19, x20
    44001994:	b85fc660 	ldr	w0, [x19], #-4
    44001998:	8b0012c0 	add	x0, x22, x0, lsl #4
    4400199c:	79401c00 	ldrh	w0, [x0, #14]
    440019a0:	8b000ae0 	add	x0, x23, x0, lsl #2
    440019a4:	94000da7 	bl	44005040 <spin_unlock>
    440019a8:	eb15029f 	cmp	x20, x21
    440019ac:	aa1303f4 	mov	x20, x19
    440019b0:	54ffff01 	b.ne	44001990 <psci_release_pwr_domain_locks+0x38>  // b.any
    440019b4:	a94153f3 	ldp	x19, x20, [sp, #16]
    440019b8:	a9425bf5 	ldp	x21, x22, [sp, #32]
    440019bc:	f9401bf7 	ldr	x23, [sp, #48]
    440019c0:	a8c47bfd 	ldp	x29, x30, [sp], #64
    440019c4:	d65f03c0 	ret
    440019c8:	d65f03c0 	ret
    440019cc:	00000000 	.inst	0x00000000 ; undefined

00000000440019d0 <psci_validate_mpidr>:
    440019d0:	a9bf7bfd 	stp	x29, x30, [sp, #-16]!
    440019d4:	910003fd 	mov	x29, sp
    440019d8:	94000698 	bl	44003438 <plat_core_pos_by_mpidr>
    440019dc:	7100001f 	cmp	w0, #0x0
    440019e0:	a8c17bfd 	ldp	x29, x30, [sp], #16
    440019e4:	12800020 	mov	w0, #0xfffffffe            	// #-2
    440019e8:	1a9fb000 	csel	w0, w0, wzr, lt  // lt = tstop
    440019ec:	d65f03c0 	ret

00000000440019f0 <psci_validate_entry_point>:
    440019f0:	a9bb7bfd 	stp	x29, x30, [sp, #-80]!
    440019f4:	90000043 	adrp	x3, 44009000 <__STACKS_START__+0x1f80>
    440019f8:	910003fd 	mov	x29, sp
    440019fc:	a90153f3 	stp	x19, x20, [sp, #16]
    44001a00:	aa0003f3 	mov	x19, x0
    44001a04:	aa0103f4 	mov	x20, x1
    44001a08:	f9436460 	ldr	x0, [x3, #1736]
    44001a0c:	a90363f7 	stp	x23, x24, [sp, #48]
    44001a10:	aa0203f8 	mov	x24, x2
    44001a14:	f9403001 	ldr	x1, [x0, #96]
    44001a18:	b4000081 	cbz	x1, 44001a28 <psci_validate_entry_point+0x38>
    44001a1c:	aa1403e0 	mov	x0, x20
    44001a20:	d63f0020 	blr	x1
    44001a24:	350006a0 	cbnz	w0, 44001af8 <psci_validate_entry_point+0x108>
    44001a28:	a9025bf5 	stp	x21, x22, [sp, #32]
    44001a2c:	f90023f9 	str	x25, [sp, #64]
    44001a30:	d53e1115 	mrs	x21, scr_el3
    44001a34:	d5381000 	mrs	x0, sctlr_el1
    44001a38:	927802b9 	and	x25, x21, #0x100
    44001a3c:	36400055 	tbz	w21, #8, 44001a44 <psci_validate_entry_point+0x54>
    44001a40:	d53c1000 	mrs	x0, sctlr_el2
    44001a44:	f2670000 	ands	x0, x0, #0x2000000
    44001a48:	52800076 	mov	w22, #0x3                   	// #3
    44001a4c:	1a9f16c1 	csinc	w1, w22, wzr, ne  // ne = any
    44001a50:	f100001f 	cmp	x0, #0x0
    44001a54:	52802020 	mov	w0, #0x101                 	// #257
    44001a58:	f9000674 	str	x20, [x19, #8]
    44001a5c:	72a00b00 	movk	w0, #0x58, lsl #16
    44001a60:	29000660 	stp	w0, w1, [x19]
    44001a64:	1a9f07f7 	cset	w23, ne  // ne = any
    44001a68:	d2800801 	mov	x1, #0x40                  	// #64
    44001a6c:	91006260 	add	x0, x19, #0x18
    44001a70:	94000dd7 	bl	440051cc <zeromem>
    44001a74:	f9000e78 	str	x24, [x19, #24]
    44001a78:	365001d5 	tbz	w21, #10, 44001ab0 <psci_validate_entry_point+0xc0>
    44001a7c:	370003b4 	tbnz	w20, #0, 44001af0 <psci_validate_entry_point+0x100>
    44001a80:	f100033f 	cmp	x25, #0x0
    44001a84:	528078a2 	mov	w2, #0x3c5                 	// #965
    44001a88:	52807921 	mov	w1, #0x3c9                 	// #969
    44001a8c:	1a821021 	csel	w1, w1, w2, ne  // ne = any
    44001a90:	a9425bf5 	ldp	x21, x22, [sp, #32]
    44001a94:	52800000 	mov	w0, #0x0                   	// #0
    44001a98:	f94023f9 	ldr	x25, [sp, #64]
    44001a9c:	b9001261 	str	w1, [x19, #16]
    44001aa0:	a94153f3 	ldp	x19, x20, [sp, #16]
    44001aa4:	a94363f7 	ldp	x23, x24, [sp, #48]
    44001aa8:	a8c57bfd 	ldp	x29, x30, [sp], #80
    44001aac:	d65f03c0 	ret
    44001ab0:	f100033f 	cmp	x25, #0x0
    44001ab4:	52800140 	mov	w0, #0xa                   	// #10
    44001ab8:	531b0294 	ubfiz	w20, w20, #5, #1
    44001abc:	1a961016 	csel	w22, w0, w22, ne  // ne = any
    44001ac0:	52803a01 	mov	w1, #0x1d0                 	// #464
    44001ac4:	2a160294 	orr	w20, w20, w22
    44001ac8:	2a172437 	orr	w23, w1, w23, lsl #9
    44001acc:	52800000 	mov	w0, #0x0                   	// #0
    44001ad0:	2a170294 	orr	w20, w20, w23
    44001ad4:	a9425bf5 	ldp	x21, x22, [sp, #32]
    44001ad8:	f94023f9 	ldr	x25, [sp, #64]
    44001adc:	b9001274 	str	w20, [x19, #16]
    44001ae0:	a94153f3 	ldp	x19, x20, [sp, #16]
    44001ae4:	a94363f7 	ldp	x23, x24, [sp, #48]
    44001ae8:	a8c57bfd 	ldp	x29, x30, [sp], #80
    44001aec:	d65f03c0 	ret
    44001af0:	a9425bf5 	ldp	x21, x22, [sp, #32]
    44001af4:	f94023f9 	ldr	x25, [sp, #64]
    44001af8:	12800100 	mov	w0, #0xfffffff7            	// #-9
    44001afc:	17fffff9 	b	44001ae0 <psci_validate_entry_point+0xf0>

0000000044001b00 <psci_warmboot_entrypoint>:
    44001b00:	a9bb7bfd 	stp	x29, x30, [sp, #-80]!
    44001b04:	910003fd 	mov	x29, sp
    44001b08:	a90363f7 	stp	x23, x24, [sp, #48]
    44001b0c:	94000d5d 	bl	44005080 <plat_my_core_pos>
    44001b10:	2a0003f7 	mov	w23, w0
    44001b14:	790083ff 	strh	wzr, [sp, #64]
    44001b18:	39010bff 	strb	wzr, [sp, #66]
    44001b1c:	f90027ff 	str	xzr, [sp, #72]
    44001b20:	d53ed040 	mrs	x0, tpidr_el3
    44001b24:	b9401800 	ldr	w0, [x0, #24]
    44001b28:	a90153f3 	stp	x19, x20, [sp, #16]
    44001b2c:	7100041f 	cmp	w0, #0x1
    44001b30:	a9025bf5 	stp	x21, x22, [sp, #32]
    44001b34:	540009a0 	b.eq	44001c68 <psci_warmboot_entrypoint+0x168>  // b.none
    44001b38:	d53ed042 	mrs	x2, tpidr_el3
    44001b3c:	90000041 	adrp	x1, 44009000 <__STACKS_START__+0x1f80>
    44001b40:	d37c7ee0 	ubfiz	x0, x23, #4, #32
    44001b44:	911a0021 	add	x1, x1, #0x680
    44001b48:	b9401c53 	ldr	w19, [x2, #28]
    44001b4c:	8b000020 	add	x0, x1, x0
    44001b50:	71000e7f 	cmp	w19, #0x3
    44001b54:	b9400801 	ldr	w1, [x0, #8]
    44001b58:	54000840 	b.eq	44001c60 <psci_warmboot_entrypoint+0x160>  // b.none
    44001b5c:	34000393 	cbz	w19, 44001bcc <psci_warmboot_entrypoint+0xcc>
    44001b60:	90000055 	adrp	x21, 44009000 <__STACKS_START__+0x1f80>
    44001b64:	910123e3 	add	x3, sp, #0x48
    44001b68:	911aa2b5 	add	x21, x21, #0x6a8
    44001b6c:	52800022 	mov	w2, #0x1                   	// #1
    44001b70:	d37c7c20 	ubfiz	x0, x1, #4, #32
    44001b74:	b8004461 	str	w1, [x3], #4
    44001b78:	8b0002a0 	add	x0, x21, x0
    44001b7c:	11000442 	add	w2, w2, #0x1
    44001b80:	6b13005f 	cmp	w2, w19
    44001b84:	b9400801 	ldr	w1, [x0, #8]
    44001b88:	54ffff49 	b.ls	44001b70 <psci_warmboot_entrypoint+0x70>  // b.plast
    44001b8c:	51000678 	sub	w24, w19, #0x1
    44001b90:	910133f4 	add	x20, sp, #0x4c
    44001b94:	90000056 	adrp	x22, 44009000 <__STACKS_START__+0x1f80>
    44001b98:	910123e0 	add	x0, sp, #0x48
    44001b9c:	8b384a98 	add	x24, x20, w24, uxtw #2
    44001ba0:	911a82d6 	add	x22, x22, #0x6a0
    44001ba4:	14000002 	b	44001bac <psci_warmboot_entrypoint+0xac>
    44001ba8:	91001294 	add	x20, x20, #0x4
    44001bac:	b9400000 	ldr	w0, [x0]
    44001bb0:	8b0012a0 	add	x0, x21, x0, lsl #4
    44001bb4:	79401c00 	ldrh	w0, [x0, #14]
    44001bb8:	8b000ac0 	add	x0, x22, x0, lsl #2
    44001bbc:	94000d19 	bl	44005020 <spin_lock>
    44001bc0:	eb14031f 	cmp	x24, x20
    44001bc4:	aa1403e0 	mov	x0, x20
    44001bc8:	54ffff01 	b.ne	44001ba8 <psci_warmboot_entrypoint+0xa8>  // b.any
    44001bcc:	2a1303e0 	mov	w0, w19
    44001bd0:	910103e1 	add	x1, sp, #0x40
    44001bd4:	97fffe43 	bl	440014e0 <psci_get_target_local_pwr_states>
    44001bd8:	d53ed040 	mrs	x0, tpidr_el3
    44001bdc:	b9401800 	ldr	w0, [x0, #24]
    44001be0:	910103e1 	add	x1, sp, #0x40
    44001be4:	7100081f 	cmp	w0, #0x2
    44001be8:	2a1703e0 	mov	w0, w23
    44001bec:	54000360 	b.eq	44001c58 <psci_warmboot_entrypoint+0x158>  // b.none
    44001bf0:	94000442 	bl	44002cf8 <psci_cpu_suspend_finish>
    44001bf4:	2a1303e0 	mov	w0, w19
    44001bf8:	97fffe72 	bl	440015c0 <psci_set_pwr_domains_to_run>
    44001bfc:	34000253 	cbz	w19, 44001c44 <psci_warmboot_entrypoint+0x144>
    44001c00:	51000673 	sub	w19, w19, #0x1
    44001c04:	910123f7 	add	x23, sp, #0x48
    44001c08:	90000055 	adrp	x21, 44009000 <__STACKS_START__+0x1f80>
    44001c0c:	90000056 	adrp	x22, 44009000 <__STACKS_START__+0x1f80>
    44001c10:	8b130af3 	add	x19, x23, x19, lsl #2
    44001c14:	911aa2b5 	add	x21, x21, #0x6a8
    44001c18:	911a82d6 	add	x22, x22, #0x6a0
    44001c1c:	14000002 	b	44001c24 <psci_warmboot_entrypoint+0x124>
    44001c20:	aa1403f3 	mov	x19, x20
    44001c24:	aa1303f4 	mov	x20, x19
    44001c28:	b85fc680 	ldr	w0, [x20], #-4
    44001c2c:	8b0012a0 	add	x0, x21, x0, lsl #4
    44001c30:	79401c00 	ldrh	w0, [x0, #14]
    44001c34:	8b000ac0 	add	x0, x22, x0, lsl #2
    44001c38:	94000d02 	bl	44005040 <spin_unlock>
    44001c3c:	eb17027f 	cmp	x19, x23
    44001c40:	54ffff01 	b.ne	44001c20 <psci_warmboot_entrypoint+0x120>  // b.any
    44001c44:	a94153f3 	ldp	x19, x20, [sp, #16]
    44001c48:	a9425bf5 	ldp	x21, x22, [sp, #32]
    44001c4c:	a94363f7 	ldp	x23, x24, [sp, #48]
    44001c50:	a8c57bfd 	ldp	x29, x30, [sp], #80
    44001c54:	d65f03c0 	ret
    44001c58:	9400029c 	bl	440026c8 <psci_cpu_on_finish>
    44001c5c:	17ffffe6 	b	44001bf4 <psci_warmboot_entrypoint+0xf4>
    44001c60:	52800053 	mov	w19, #0x2                   	// #2
    44001c64:	17ffffbf 	b	44001b60 <psci_warmboot_entrypoint+0x60>
    44001c68:	90000020 	adrp	x0, 44005000 <init_cpu_data_ptr+0xc>
    44001c6c:	91188000 	add	x0, x0, #0x620
    44001c70:	940006d4 	bl	440037c0 <tf_log>
    44001c74:	9400074b 	bl	440039a0 <console_flush>
    44001c78:	94000d1f 	bl	440050f4 <do_panic>
    44001c7c:	00000000 	.inst	0x00000000 ; undefined

0000000044001c80 <psci_spd_migrate_info>:
    44001c80:	90000041 	adrp	x1, 44009000 <__STACKS_START__+0x1f80>
    44001c84:	f9436c21 	ldr	x1, [x1, #1752]
    44001c88:	b4000081 	cbz	x1, 44001c98 <psci_spd_migrate_info+0x18>
    44001c8c:	f9401821 	ldr	x1, [x1, #48]
    44001c90:	b4000041 	cbz	x1, 44001c98 <psci_spd_migrate_info+0x18>
    44001c94:	d61f0020 	br	x1
    44001c98:	12800000 	mov	w0, #0xffffffff            	// #-1
    44001c9c:	d65f03c0 	ret

0000000044001ca0 <psci_print_power_domain_map>:
    44001ca0:	d65f03c0 	ret
    44001ca4:	00000000 	.inst	0x00000000 ; undefined

0000000044001ca8 <psci_do_pwrdown_sequence>:
    44001ca8:	14000c14 	b	44004cf8 <prepare_cpu_pwr_dwn>
    44001cac:	00000000 	.inst	0x00000000 ; undefined

0000000044001cb0 <psci_cpu_on>:
    44001cb0:	a9b77bfd 	stp	x29, x30, [sp, #-144]!
    44001cb4:	910003fd 	mov	x29, sp
    44001cb8:	a90153f3 	stp	x19, x20, [sp, #16]
    44001cbc:	aa0103f3 	mov	x19, x1
    44001cc0:	aa0203f4 	mov	x20, x2
    44001cc4:	f90013f5 	str	x21, [sp, #32]
    44001cc8:	aa0003f5 	mov	x21, x0
    44001ccc:	97ffff41 	bl	440019d0 <psci_validate_mpidr>
    44001cd0:	350001a0 	cbnz	w0, 44001d04 <psci_cpu_on+0x54>
    44001cd4:	aa1403e2 	mov	x2, x20
    44001cd8:	aa1303e1 	mov	x1, x19
    44001cdc:	9100e3e0 	add	x0, sp, #0x38
    44001ce0:	97ffff44 	bl	440019f0 <psci_validate_entry_point>
    44001ce4:	35000080 	cbnz	w0, 44001cf4 <psci_cpu_on+0x44>
    44001ce8:	9100e3e1 	add	x1, sp, #0x38
    44001cec:	aa1503e0 	mov	x0, x21
    44001cf0:	94000216 	bl	44002548 <psci_cpu_on_start>
    44001cf4:	a94153f3 	ldp	x19, x20, [sp, #16]
    44001cf8:	f94013f5 	ldr	x21, [sp, #32]
    44001cfc:	a8c97bfd 	ldp	x29, x30, [sp], #144
    44001d00:	d65f03c0 	ret
    44001d04:	12800020 	mov	w0, #0xfffffffe            	// #-2
    44001d08:	17fffffb 	b	44001cf4 <psci_cpu_on+0x44>
    44001d0c:	00000000 	.inst	0x00000000 ; undefined

0000000044001d10 <psci_cpu_suspend>:
    44001d10:	a9b67bfd 	stp	x29, x30, [sp, #-160]!
    44001d14:	910003fd 	mov	x29, sp
    44001d18:	a90153f3 	stp	x19, x20, [sp, #16]
    44001d1c:	2a0003f4 	mov	w20, w0
    44001d20:	a9025bf5 	stp	x21, x22, [sp, #32]
    44001d24:	aa0103f6 	mov	x22, x1
    44001d28:	910103e1 	add	x1, sp, #0x40
    44001d2c:	a90363f7 	stp	x23, x24, [sp, #48]
    44001d30:	aa0203f7 	mov	x23, x2
    44001d34:	790083ff 	strh	wzr, [sp, #64]
    44001d38:	39010bff 	strb	wzr, [sp, #66]
    44001d3c:	97fffda9 	bl	440013e0 <psci_validate_power_state>
    44001d40:	2a0003f3 	mov	w19, w0
    44001d44:	340000e0 	cbz	w0, 44001d60 <psci_cpu_suspend+0x50>
    44001d48:	2a1303e0 	mov	w0, w19
    44001d4c:	a94153f3 	ldp	x19, x20, [sp, #16]
    44001d50:	a9425bf5 	ldp	x21, x22, [sp, #32]
    44001d54:	a94363f7 	ldp	x23, x24, [sp, #48]
    44001d58:	a8ca7bfd 	ldp	x29, x30, [sp], #160
    44001d5c:	d65f03c0 	ret
    44001d60:	910103e0 	add	x0, sp, #0x40
    44001d64:	d3504294 	ubfx	x20, x20, #16, #1
    44001d68:	97fffed0 	bl	440018a8 <psci_find_target_suspend_lvl>
    44001d6c:	2a0003f5 	mov	w21, w0
    44001d70:	71000c1f 	cmp	w0, #0x3
    44001d74:	54000520 	b.eq	44001e18 <psci_cpu_suspend+0x108>  // b.none
    44001d78:	2a000280 	orr	w0, w20, w0
    44001d7c:	35000220 	cbnz	w0, 44001dc0 <psci_cpu_suspend+0xb0>
    44001d80:	90000040 	adrp	x0, 44009000 <__STACKS_START__+0x1f80>
    44001d84:	f9436400 	ldr	x0, [x0, #1736]
    44001d88:	f9400001 	ldr	x1, [x0]
    44001d8c:	b4000421 	cbz	x1, 44001e10 <psci_cpu_suspend+0x100>
    44001d90:	394103e0 	ldrb	w0, [sp, #64]
    44001d94:	d53ed042 	mrs	x2, tpidr_el3
    44001d98:	39008040 	strb	w0, [x2, #32]
    44001d9c:	d63f0020 	blr	x1
    44001da0:	d53ed040 	mrs	x0, tpidr_el3
    44001da4:	3900801f 	strb	wzr, [x0, #32]
    44001da8:	2a1303e0 	mov	w0, w19
    44001dac:	a94153f3 	ldp	x19, x20, [sp, #16]
    44001db0:	a9425bf5 	ldp	x21, x22, [sp, #32]
    44001db4:	a94363f7 	ldp	x23, x24, [sp, #48]
    44001db8:	a8ca7bfd 	ldp	x29, x30, [sp], #160
    44001dbc:	d65f03c0 	ret
    44001dc0:	910123f8 	add	x24, sp, #0x48
    44001dc4:	340000d4 	cbz	w20, 44001ddc <psci_cpu_suspend+0xcc>
    44001dc8:	aa1703e2 	mov	x2, x23
    44001dcc:	aa1603e1 	mov	x1, x22
    44001dd0:	aa1803e0 	mov	x0, x24
    44001dd4:	97ffff07 	bl	440019f0 <psci_validate_entry_point>
    44001dd8:	35000180 	cbnz	w0, 44001e08 <psci_cpu_suspend+0xf8>
    44001ddc:	2a1403e3 	mov	w3, w20
    44001de0:	910103e2 	add	x2, sp, #0x40
    44001de4:	2a1503e1 	mov	w1, w21
    44001de8:	aa1803e0 	mov	x0, x24
    44001dec:	94000351 	bl	44002b30 <psci_cpu_suspend_start>
    44001df0:	2a1303e0 	mov	w0, w19
    44001df4:	a94153f3 	ldp	x19, x20, [sp, #16]
    44001df8:	a9425bf5 	ldp	x21, x22, [sp, #32]
    44001dfc:	a94363f7 	ldp	x23, x24, [sp, #48]
    44001e00:	a8ca7bfd 	ldp	x29, x30, [sp], #160
    44001e04:	d65f03c0 	ret
    44001e08:	2a0003f3 	mov	w19, w0
    44001e0c:	17ffffcf 	b	44001d48 <psci_cpu_suspend+0x38>
    44001e10:	12800033 	mov	w19, #0xfffffffe            	// #-2
    44001e14:	17ffffcd 	b	44001d48 <psci_cpu_suspend+0x38>
    44001e18:	90000020 	adrp	x0, 44005000 <init_cpu_data_ptr+0xc>
    44001e1c:	91192000 	add	x0, x0, #0x648
    44001e20:	94000668 	bl	440037c0 <tf_log>
    44001e24:	940006df 	bl	440039a0 <console_flush>
    44001e28:	94000cb3 	bl	440050f4 <do_panic>
    44001e2c:	00000000 	.inst	0x00000000 ; undefined

0000000044001e30 <psci_system_suspend>:
    44001e30:	a9b87bfd 	stp	x29, x30, [sp, #-128]!
    44001e34:	910003fd 	mov	x29, sp
    44001e38:	a90153f3 	stp	x19, x20, [sp, #16]
    44001e3c:	aa0003f3 	mov	x19, x0
    44001e40:	aa0103f4 	mov	x20, x1
    44001e44:	97fffd75 	bl	44001418 <psci_is_last_on_cpu>
    44001e48:	34000340 	cbz	w0, 44001eb0 <psci_system_suspend+0x80>
    44001e4c:	aa1303e1 	mov	x1, x19
    44001e50:	aa1403e2 	mov	x2, x20
    44001e54:	9100a3e0 	add	x0, sp, #0x28
    44001e58:	97fffee6 	bl	440019f0 <psci_validate_entry_point>
    44001e5c:	2a0003f3 	mov	w19, w0
    44001e60:	340000a0 	cbz	w0, 44001e74 <psci_system_suspend+0x44>
    44001e64:	2a1303e0 	mov	w0, w19
    44001e68:	a94153f3 	ldp	x19, x20, [sp, #16]
    44001e6c:	a8c87bfd 	ldp	x29, x30, [sp], #128
    44001e70:	d65f03c0 	ret
    44001e74:	910083e0 	add	x0, sp, #0x20
    44001e78:	97fffd64 	bl	44001408 <psci_query_sys_suspend_pwrstate>
    44001e7c:	910083e0 	add	x0, sp, #0x20
    44001e80:	97fffe8a 	bl	440018a8 <psci_find_target_suspend_lvl>
    44001e84:	7100041f 	cmp	w0, #0x1
    44001e88:	54000149 	b.ls	44001eb0 <psci_system_suspend+0x80>  // b.plast
    44001e8c:	910083e2 	add	x2, sp, #0x20
    44001e90:	9100a3e0 	add	x0, sp, #0x28
    44001e94:	52800023 	mov	w3, #0x1                   	// #1
    44001e98:	52800041 	mov	w1, #0x2                   	// #2
    44001e9c:	94000325 	bl	44002b30 <psci_cpu_suspend_start>
    44001ea0:	2a1303e0 	mov	w0, w19
    44001ea4:	a94153f3 	ldp	x19, x20, [sp, #16]
    44001ea8:	a8c87bfd 	ldp	x29, x30, [sp], #128
    44001eac:	d65f03c0 	ret
    44001eb0:	12800053 	mov	w19, #0xfffffffd            	// #-3
    44001eb4:	17ffffec 	b	44001e64 <psci_system_suspend+0x34>

0000000044001eb8 <psci_affinity_info>:
    44001eb8:	35000281 	cbnz	w1, 44001f08 <psci_affinity_info+0x50>
    44001ebc:	a9be7bfd 	stp	x29, x30, [sp, #-32]!
    44001ec0:	910003fd 	mov	x29, sp
    44001ec4:	f9000bf3 	str	x19, [sp, #16]
    44001ec8:	9400055c 	bl	44003438 <plat_core_pos_by_mpidr>
    44001ecc:	2a0003f3 	mov	w19, w0
    44001ed0:	3100041f 	cmn	w0, #0x1
    44001ed4:	54000160 	b.eq	44001f00 <psci_affinity_info+0x48>  // b.none
    44001ed8:	94000c4c 	bl	44005008 <_cpu_data_by_index>
    44001edc:	91006000 	add	x0, x0, #0x18
    44001ee0:	d2800081 	mov	x1, #0x4                   	// #4
    44001ee4:	94000c90 	bl	44005124 <flush_dcache_range>
    44001ee8:	2a1303e0 	mov	w0, w19
    44001eec:	94000c47 	bl	44005008 <_cpu_data_by_index>
    44001ef0:	b9401800 	ldr	w0, [x0, #24]
    44001ef4:	f9400bf3 	ldr	x19, [sp, #16]
    44001ef8:	a8c27bfd 	ldp	x29, x30, [sp], #32
    44001efc:	d65f03c0 	ret
    44001f00:	12800020 	mov	w0, #0xfffffffe            	// #-2
    44001f04:	17fffffc 	b	44001ef4 <psci_affinity_info+0x3c>
    44001f08:	12800020 	mov	w0, #0xfffffffe            	// #-2
    44001f0c:	d65f03c0 	ret

0000000044001f10 <psci_migrate>:
    44001f10:	a9bd7bfd 	stp	x29, x30, [sp, #-48]!
    44001f14:	910003fd 	mov	x29, sp
    44001f18:	f9000bf3 	str	x19, [sp, #16]
    44001f1c:	aa0003f3 	mov	x19, x0
    44001f20:	9100a3e0 	add	x0, sp, #0x28
    44001f24:	97ffff57 	bl	44001c80 <psci_spd_migrate_info>
    44001f28:	35000220 	cbnz	w0, 44001f6c <psci_migrate+0x5c>
    44001f2c:	d53800a0 	mrs	x0, mpidr_el1
    44001f30:	f94017e1 	ldr	x1, [sp, #40]
    44001f34:	eb00003f 	cmp	x1, x0
    44001f38:	54000261 	b.ne	44001f84 <psci_migrate+0x74>  // b.any
    44001f3c:	aa1303e0 	mov	x0, x19
    44001f40:	97fffea4 	bl	440019d0 <psci_validate_mpidr>
    44001f44:	35000240 	cbnz	w0, 44001f8c <psci_migrate+0x7c>
    44001f48:	d53800a0 	mrs	x0, mpidr_el1
    44001f4c:	90000042 	adrp	x2, 44009000 <__STACKS_START__+0x1f80>
    44001f50:	aa1303e1 	mov	x1, x19
    44001f54:	f9436c42 	ldr	x2, [x2, #1752]
    44001f58:	f9401442 	ldr	x2, [x2, #40]
    44001f5c:	d63f0040 	blr	x2
    44001f60:	f9400bf3 	ldr	x19, [sp, #16]
    44001f64:	a8c37bfd 	ldp	x29, x30, [sp], #48
    44001f68:	d65f03c0 	ret
    44001f6c:	7100041f 	cmp	w0, #0x1
    44001f70:	12800040 	mov	w0, #0xfffffffd            	// #-3
    44001f74:	5a9f0000 	csinv	w0, w0, wzr, eq  // eq = none
    44001f78:	f9400bf3 	ldr	x19, [sp, #16]
    44001f7c:	a8c37bfd 	ldp	x29, x30, [sp], #48
    44001f80:	d65f03c0 	ret
    44001f84:	128000c0 	mov	w0, #0xfffffff9            	// #-7
    44001f88:	17fffff6 	b	44001f60 <psci_migrate+0x50>
    44001f8c:	12800020 	mov	w0, #0xfffffffe            	// #-2
    44001f90:	17fffff4 	b	44001f60 <psci_migrate+0x50>
    44001f94:	00000000 	.inst	0x00000000 ; undefined

0000000044001f98 <psci_node_hw_state>:
    44001f98:	a9be7bfd 	stp	x29, x30, [sp, #-32]!
    44001f9c:	910003fd 	mov	x29, sp
    44001fa0:	a90153f3 	stp	x19, x20, [sp, #16]
    44001fa4:	2a0103f3 	mov	w19, w1
    44001fa8:	aa0003f4 	mov	x20, x0
    44001fac:	97fffe89 	bl	440019d0 <psci_validate_mpidr>
    44001fb0:	7100001f 	cmp	w0, #0x0
    44001fb4:	7a420a62 	ccmp	w19, #0x2, #0x2, eq  // eq = none
    44001fb8:	54000128 	b.hi	44001fdc <psci_node_hw_state+0x44>  // b.pmore
    44001fbc:	90000042 	adrp	x2, 44009000 <__STACKS_START__+0x1f80>
    44001fc0:	2a1303e1 	mov	w1, w19
    44001fc4:	aa1403e0 	mov	x0, x20
    44001fc8:	f9436442 	ldr	x2, [x2, #1736]
    44001fcc:	a94153f3 	ldp	x19, x20, [sp, #16]
    44001fd0:	a8c27bfd 	ldp	x29, x30, [sp], #32
    44001fd4:	f9404042 	ldr	x2, [x2, #128]
    44001fd8:	d61f0040 	br	x2
    44001fdc:	12800020 	mov	w0, #0xfffffffe            	// #-2
    44001fe0:	a94153f3 	ldp	x19, x20, [sp, #16]
    44001fe4:	a8c27bfd 	ldp	x29, x30, [sp], #32
    44001fe8:	d65f03c0 	ret
    44001fec:	00000000 	.inst	0x00000000 ; undefined

0000000044001ff0 <psci_features>:
    44001ff0:	90000041 	adrp	x1, 44009000 <__STACKS_START__+0x1f80>
    44001ff4:	52b00002 	mov	w2, #0x80000000            	// #-2147483648
    44001ff8:	6b02001f 	cmp	w0, w2
    44001ffc:	b9498c21 	ldr	w1, [x1, #2444]
    44002000:	54000260 	b.eq	4400204c <psci_features+0x5c>  // b.none
    44002004:	528c1742 	mov	w2, #0x60ba                	// #24762
    44002008:	f262001f 	tst	x0, #0x40000000
    4400200c:	72a002e2 	movk	w2, #0x17, lsl #16
    44002010:	d3587403 	ubfx	x3, x0, #24, #6
    44002014:	0a020022 	and	w2, w1, w2
    44002018:	1a811041 	csel	w1, w2, w1, ne  // ne = any
    4400201c:	7100107f 	cmp	w3, #0x4
    44002020:	540001a1 	b.ne	44002054 <psci_features+0x64>  // b.any
    44002024:	d3505c04 	ubfx	x4, x0, #16, #8
    44002028:	531f7c02 	lsr	w2, w0, #31
    4400202c:	34000142 	cbz	w2, 44002054 <psci_features+0x64>
    44002030:	121b2803 	and	w3, w0, #0xffe0
    44002034:	2a040063 	orr	w3, w3, w4
    44002038:	350000e3 	cbnz	w3, 44002054 <psci_features+0x64>
    4400203c:	1ac02040 	lsl	w0, w2, w0
    44002040:	6a01001f 	tst	w0, w1
    44002044:	5a9f13e0 	csetm	w0, eq  // eq = none
    44002048:	d65f03c0 	ret
    4400204c:	52800000 	mov	w0, #0x0                   	// #0
    44002050:	d65f03c0 	ret
    44002054:	12800000 	mov	w0, #0xffffffff            	// #-1
    44002058:	d65f03c0 	ret
    4400205c:	00000000 	.inst	0x00000000 ; undefined

0000000044002060 <psci_smc_handler>:
    44002060:	36000f07 	tbz	w7, #0, 44002240 <psci_smc_handler+0x1e0>
    44002064:	f0000025 	adrp	x5, 44009000 <__STACKS_START__+0x1f80>
    44002068:	52800024 	mov	w4, #0x1                   	// #1
    4400206c:	1ac02084 	lsl	w4, w4, w0
    44002070:	b9498ca5 	ldr	w5, [x5, #2444]
    44002074:	6a05009f 	tst	w4, w5
    44002078:	54000e40 	b.eq	44002240 <psci_smc_handler+0x1e0>  // b.none
    4400207c:	a9be7bfd 	stp	x29, x30, [sp, #-32]!
    44002080:	2a0003e4 	mov	w4, w0
    44002084:	aa0203e6 	mov	x6, x2
    44002088:	910003fd 	mov	x29, sp
    4400208c:	aa0103e5 	mov	x5, x1
    44002090:	528000e0 	mov	w0, #0x7                   	// #7
    44002094:	37f00284 	tbnz	w4, #30, 440020e4 <psci_smc_handler+0x84>
    44002098:	72b08000 	movk	w0, #0x8400, lsl #16
    4400209c:	6b00009f 	cmp	w4, w0
    440020a0:	54001040 	b.eq	440022a8 <psci_smc_handler+0x248>  // b.none
    440020a4:	540007e8 	b.hi	440021a0 <psci_smc_handler+0x140>  // b.pmore
    440020a8:	52800060 	mov	w0, #0x3                   	// #3
    440020ac:	72b08000 	movk	w0, #0x8400, lsl #16
    440020b0:	6b00009f 	cmp	w4, w0
    440020b4:	540016c0 	b.eq	4400238c <psci_smc_handler+0x32c>  // b.none
    440020b8:	540003e9 	b.ls	44002134 <psci_smc_handler+0xd4>  // b.plast
    440020bc:	528000a0 	mov	w0, #0x5                   	// #5
    440020c0:	72b08000 	movk	w0, #0x8400, lsl #16
    440020c4:	6b00009f 	cmp	w4, w0
    440020c8:	540014e0 	b.eq	44002364 <psci_smc_handler+0x304>  // b.none
    440020cc:	540011c8 	b.hi	44002304 <psci_smc_handler+0x2a4>  // b.pmore
    440020d0:	2a0203e1 	mov	w1, w2
    440020d4:	2a0503e0 	mov	w0, w5
    440020d8:	97ffff78 	bl	44001eb8 <psci_affinity_info>
    440020dc:	93407c00 	sxtw	x0, w0
    440020e0:	1400001e 	b	44002158 <psci_smc_handler+0xf8>
    440020e4:	72b88000 	movk	w0, #0xc400, lsl #16
    440020e8:	6b00009f 	cmp	w4, w0
    440020ec:	54000de0 	b.eq	440022a8 <psci_smc_handler+0x248>  // b.none
    440020f0:	54000389 	b.ls	44002160 <psci_smc_handler+0x100>  // b.plast
    440020f4:	528001c0 	mov	w0, #0xe                   	// #14
    440020f8:	72b88000 	movk	w0, #0xc400, lsl #16
    440020fc:	6b00009f 	cmp	w4, w0
    44002100:	540010a0 	b.eq	44002314 <psci_smc_handler+0x2b4>  // b.none
    44002104:	540008c9 	b.ls	4400221c <psci_smc_handler+0x1bc>  // b.plast
    44002108:	52800240 	mov	w0, #0x12                  	// #18
    4400210c:	72b88000 	movk	w0, #0xc400, lsl #16
    44002110:	6b00009f 	cmp	w4, w0
    44002114:	54000e80 	b.eq	440022e4 <psci_smc_handler+0x284>  // b.none
    44002118:	11000800 	add	w0, w0, #0x2
    4400211c:	6b00009f 	cmp	w4, w0
    44002120:	54000941 	b.ne	44002248 <psci_smc_handler+0x1e8>  // b.any
    44002124:	aa0203e1 	mov	x1, x2
    44002128:	aa0503e0 	mov	x0, x5
    4400212c:	940000bb 	bl	44002418 <psci_mem_chk_range>
    44002130:	1400000a 	b	44002158 <psci_smc_handler+0xf8>
    44002134:	52800020 	mov	w0, #0x1                   	// #1
    44002138:	72b08000 	movk	w0, #0x8400, lsl #16
    4400213c:	6b00009f 	cmp	w4, w0
    44002140:	540011a0 	b.eq	44002374 <psci_smc_handler+0x314>  // b.none
    44002144:	54000d88 	b.hi	440022f4 <psci_smc_handler+0x294>  // b.pmore
    44002148:	52b08000 	mov	w0, #0x84000000            	// #-2080374784
    4400214c:	6b00009f 	cmp	w4, w0
    44002150:	320083e0 	mov	w0, #0x10001               	// #65537
    44002154:	da9f0000 	csinv	x0, x0, xzr, eq  // eq = none
    44002158:	a8c27bfd 	ldp	x29, x30, [sp], #32
    4400215c:	d65f03c0 	ret
    44002160:	52800060 	mov	w0, #0x3                   	// #3
    44002164:	72b88000 	movk	w0, #0xc400, lsl #16
    44002168:	6b00009f 	cmp	w4, w0
    4400216c:	54000de0 	b.eq	44002328 <psci_smc_handler+0x2c8>  // b.none
    44002170:	54000429 	b.ls	440021f4 <psci_smc_handler+0x194>  // b.plast
    44002174:	52800080 	mov	w0, #0x4                   	// #4
    44002178:	72b88000 	movk	w0, #0xc400, lsl #16
    4400217c:	6b00009f 	cmp	w4, w0
    44002180:	54000a80 	b.eq	440022d0 <psci_smc_handler+0x270>  // b.none
    44002184:	11000400 	add	w0, w0, #0x1
    44002188:	6b00009f 	cmp	w4, w0
    4400218c:	540005e1 	b.ne	44002248 <psci_smc_handler+0x1e8>  // b.any
    44002190:	aa0103e0 	mov	x0, x1
    44002194:	97ffff5f 	bl	44001f10 <psci_migrate>
    44002198:	93407c00 	sxtw	x0, w0
    4400219c:	17ffffef 	b	44002158 <psci_smc_handler+0xf8>
    440021a0:	528001a0 	mov	w0, #0xd                   	// #13
    440021a4:	72b08000 	movk	w0, #0x8400, lsl #16
    440021a8:	6b00009f 	cmp	w4, w0
    440021ac:	54000ca0 	b.eq	44002340 <psci_smc_handler+0x2e0>  // b.none
    440021b0:	54000649 	b.ls	44002278 <psci_smc_handler+0x218>  // b.plast
    440021b4:	52800240 	mov	w0, #0x12                  	// #18
    440021b8:	72b08000 	movk	w0, #0x8400, lsl #16
    440021bc:	6b00009f 	cmp	w4, w0
    440021c0:	54000ca0 	b.eq	44002354 <psci_smc_handler+0x2f4>  // b.none
    440021c4:	54000489 	b.ls	44002254 <psci_smc_handler+0x1f4>  // b.plast
    440021c8:	52800260 	mov	w0, #0x13                  	// #19
    440021cc:	72b08000 	movk	w0, #0x8400, lsl #16
    440021d0:	6b00009f 	cmp	w4, w0
    440021d4:	54000780 	b.eq	440022c4 <psci_smc_handler+0x264>  // b.none
    440021d8:	11000400 	add	w0, w0, #0x1
    440021dc:	6b00009f 	cmp	w4, w0
    440021e0:	54000341 	b.ne	44002248 <psci_smc_handler+0x1e8>  // b.any
    440021e4:	2a0203e1 	mov	w1, w2
    440021e8:	2a0503e0 	mov	w0, w5
    440021ec:	9400008b 	bl	44002418 <psci_mem_chk_range>
    440021f0:	17ffffda 	b	44002158 <psci_smc_handler+0xf8>
    440021f4:	52800020 	mov	w0, #0x1                   	// #1
    440021f8:	72b88000 	movk	w0, #0xc400, lsl #16
    440021fc:	6b00009f 	cmp	w4, w0
    44002200:	54000241 	b.ne	44002248 <psci_smc_handler+0x1e8>  // b.any
    44002204:	aa0303e2 	mov	x2, x3
    44002208:	aa0603e1 	mov	x1, x6
    4400220c:	2a0503e0 	mov	w0, w5
    44002210:	97fffec0 	bl	44001d10 <psci_cpu_suspend>
    44002214:	93407c00 	sxtw	x0, w0
    44002218:	17ffffd0 	b	44002158 <psci_smc_handler+0xf8>
    4400221c:	528001a0 	mov	w0, #0xd                   	// #13
    44002220:	72b88000 	movk	w0, #0xc400, lsl #16
    44002224:	6b00009f 	cmp	w4, w0
    44002228:	54000101 	b.ne	44002248 <psci_smc_handler+0x1e8>  // b.any
    4400222c:	2a0203e1 	mov	w1, w2
    44002230:	aa0503e0 	mov	x0, x5
    44002234:	97ffff59 	bl	44001f98 <psci_node_hw_state>
    44002238:	93407c00 	sxtw	x0, w0
    4400223c:	17ffffc7 	b	44002158 <psci_smc_handler+0xf8>
    44002240:	92800000 	mov	x0, #0xffffffffffffffff    	// #-1
    44002244:	d65f03c0 	ret
    44002248:	92800000 	mov	x0, #0xffffffffffffffff    	// #-1
    4400224c:	a8c27bfd 	ldp	x29, x30, [sp], #32
    44002250:	d65f03c0 	ret
    44002254:	528001c0 	mov	w0, #0xe                   	// #14
    44002258:	72b08000 	movk	w0, #0x8400, lsl #16
    4400225c:	6b00009f 	cmp	w4, w0
    44002260:	54ffff41 	b.ne	44002248 <psci_smc_handler+0x1e8>  // b.any
    44002264:	2a0203e1 	mov	w1, w2
    44002268:	2a0503e0 	mov	w0, w5
    4400226c:	97fffef1 	bl	44001e30 <psci_system_suspend>
    44002270:	93407c00 	sxtw	x0, w0
    44002274:	17ffffb9 	b	44002158 <psci_smc_handler+0xf8>
    44002278:	52800120 	mov	w0, #0x9                   	// #9
    4400227c:	72b08000 	movk	w0, #0x8400, lsl #16
    44002280:	6b00009f 	cmp	w4, w0
    44002284:	54000900 	b.eq	440023a4 <psci_smc_handler+0x344>  // b.none
    44002288:	54000903 	b.cc	440023a8 <psci_smc_handler+0x348>  // b.lo, b.ul, b.last
    4400228c:	11000400 	add	w0, w0, #0x1
    44002290:	6b00009f 	cmp	w4, w0
    44002294:	54fffda1 	b.ne	44002248 <psci_smc_handler+0x1e8>  // b.any
    44002298:	2a0103e0 	mov	w0, w1
    4400229c:	97ffff55 	bl	44001ff0 <psci_features>
    440022a0:	93407c00 	sxtw	x0, w0
    440022a4:	17ffffad 	b	44002158 <psci_smc_handler+0xf8>
    440022a8:	910063e0 	add	x0, sp, #0x18
    440022ac:	97fffe75 	bl	44001c80 <psci_spd_migrate_info>
    440022b0:	f9400fe1 	ldr	x1, [sp, #24]
    440022b4:	7100041f 	cmp	w0, #0x1
    440022b8:	92800020 	mov	x0, #0xfffffffffffffffe    	// #-2
    440022bc:	9a809020 	csel	x0, x1, x0, ls  // ls = plast
    440022c0:	17ffffa6 	b	44002158 <psci_smc_handler+0xf8>
    440022c4:	2a0103e0 	mov	w0, w1
    440022c8:	9400003a 	bl	440023b0 <psci_mem_protect>
    440022cc:	17ffffa3 	b	44002158 <psci_smc_handler+0xf8>
    440022d0:	2a0203e1 	mov	w1, w2
    440022d4:	aa0503e0 	mov	x0, x5
    440022d8:	97fffef8 	bl	44001eb8 <psci_affinity_info>
    440022dc:	93407c00 	sxtw	x0, w0
    440022e0:	17ffff9e 	b	44002158 <psci_smc_handler+0xf8>
    440022e4:	aa0203e1 	mov	x1, x2
    440022e8:	2a0503e0 	mov	w0, w5
    440022ec:	940002cd 	bl	44002e20 <psci_system_reset2>
    440022f0:	17ffff9a 	b	44002158 <psci_smc_handler+0xf8>
    440022f4:	52800040 	mov	w0, #0x2                   	// #2
    440022f8:	9400005c 	bl	44002468 <psci_do_cpu_off>
    440022fc:	93407c00 	sxtw	x0, w0
    44002300:	17ffff96 	b	44002158 <psci_smc_handler+0xf8>
    44002304:	910063e0 	add	x0, sp, #0x18
    44002308:	97fffe5e 	bl	44001c80 <psci_spd_migrate_info>
    4400230c:	93407c00 	sxtw	x0, w0
    44002310:	17ffff92 	b	44002158 <psci_smc_handler+0xf8>
    44002314:	aa0203e1 	mov	x1, x2
    44002318:	aa0503e0 	mov	x0, x5
    4400231c:	97fffec5 	bl	44001e30 <psci_system_suspend>
    44002320:	93407c00 	sxtw	x0, w0
    44002324:	17ffff8d 	b	44002158 <psci_smc_handler+0xf8>
    44002328:	aa0303e2 	mov	x2, x3
    4400232c:	aa0603e1 	mov	x1, x6
    44002330:	aa0503e0 	mov	x0, x5
    44002334:	97fffe5f 	bl	44001cb0 <psci_cpu_on>
    44002338:	93407c00 	sxtw	x0, w0
    4400233c:	17ffff87 	b	44002158 <psci_smc_handler+0xf8>
    44002340:	2a0203e1 	mov	w1, w2
    44002344:	2a0503e0 	mov	w0, w5
    44002348:	97ffff14 	bl	44001f98 <psci_node_hw_state>
    4400234c:	93407c00 	sxtw	x0, w0
    44002350:	17ffff82 	b	44002158 <psci_smc_handler+0xf8>
    44002354:	2a0203e1 	mov	w1, w2
    44002358:	2a0503e0 	mov	w0, w5
    4400235c:	940002b1 	bl	44002e20 <psci_system_reset2>
    44002360:	17ffff7e 	b	44002158 <psci_smc_handler+0xf8>
    44002364:	2a0103e0 	mov	w0, w1
    44002368:	97fffeea 	bl	44001f10 <psci_migrate>
    4400236c:	93407c00 	sxtw	x0, w0
    44002370:	17ffff7a 	b	44002158 <psci_smc_handler+0xf8>
    44002374:	2a0303e2 	mov	w2, w3
    44002378:	2a0603e1 	mov	w1, w6
    4400237c:	2a0503e0 	mov	w0, w5
    44002380:	97fffe64 	bl	44001d10 <psci_cpu_suspend>
    44002384:	93407c00 	sxtw	x0, w0
    44002388:	17ffff74 	b	44002158 <psci_smc_handler+0xf8>
    4400238c:	2a0303e2 	mov	w2, w3
    44002390:	2a0603e1 	mov	w1, w6
    44002394:	2a0503e0 	mov	w0, w5
    44002398:	97fffe46 	bl	44001cb0 <psci_cpu_on>
    4400239c:	93407c00 	sxtw	x0, w0
    440023a0:	17ffff6e 	b	44002158 <psci_smc_handler+0xf8>
    440023a4:	94000291 	bl	44002de8 <psci_system_reset>
    440023a8:	94000282 	bl	44002db0 <psci_system_off>
    440023ac:	00000000 	.inst	0x00000000 ; undefined

00000000440023b0 <psci_mem_protect>:
    440023b0:	a9bd7bfd 	stp	x29, x30, [sp, #-48]!
    440023b4:	910003fd 	mov	x29, sp
    440023b8:	a90153f3 	stp	x19, x20, [sp, #16]
    440023bc:	f0000033 	adrp	x19, 44009000 <__STACKS_START__+0x1f80>
    440023c0:	2a0003f4 	mov	w20, w0
    440023c4:	f9436661 	ldr	x1, [x19, #1736]
    440023c8:	9100b3e0 	add	x0, sp, #0x2c
    440023cc:	f9404821 	ldr	x1, [x1, #144]
    440023d0:	d63f0020 	blr	x1
    440023d4:	37f80180 	tbnz	w0, #31, 44002404 <psci_mem_protect+0x54>
    440023d8:	f9436661 	ldr	x1, [x19, #1736]
    440023dc:	2a1403e0 	mov	w0, w20
    440023e0:	f9404c21 	ldr	x1, [x1, #152]
    440023e4:	d63f0020 	blr	x1
    440023e8:	37f800e0 	tbnz	w0, #31, 44002404 <psci_mem_protect+0x54>
    440023ec:	b9402fe0 	ldr	w0, [sp, #44]
    440023f0:	a94153f3 	ldp	x19, x20, [sp, #16]
    440023f4:	7100001f 	cmp	w0, #0x0
    440023f8:	9a9f07e0 	cset	x0, ne  // ne = any
    440023fc:	a8c37bfd 	ldp	x29, x30, [sp], #48
    44002400:	d65f03c0 	ret
    44002404:	92800000 	mov	x0, #0xffffffffffffffff    	// #-1
    44002408:	a94153f3 	ldp	x19, x20, [sp, #16]
    4400240c:	a8c37bfd 	ldp	x29, x30, [sp], #48
    44002410:	d65f03c0 	ret
    44002414:	00000000 	.inst	0x00000000 ; undefined

0000000044002418 <psci_mem_chk_range>:
    44002418:	b4000221 	cbz	x1, 4400245c <psci_mem_chk_range+0x44>
    4400241c:	cb0103e2 	neg	x2, x1
    44002420:	eb00005f 	cmp	x2, x0
    44002424:	540001c3 	b.cc	4400245c <psci_mem_chk_range+0x44>  // b.lo, b.ul, b.last
    44002428:	a9bf7bfd 	stp	x29, x30, [sp, #-16]!
    4400242c:	f0000022 	adrp	x2, 44009000 <__STACKS_START__+0x1f80>
    44002430:	910003fd 	mov	x29, sp
    44002434:	f9436442 	ldr	x2, [x2, #1736]
    44002438:	f9404442 	ldr	x2, [x2, #136]
    4400243c:	d63f0040 	blr	x2
    44002440:	37f80080 	tbnz	w0, #31, 44002450 <psci_mem_chk_range+0x38>
    44002444:	d2800000 	mov	x0, #0x0                   	// #0
    44002448:	a8c17bfd 	ldp	x29, x30, [sp], #16
    4400244c:	d65f03c0 	ret
    44002450:	92800040 	mov	x0, #0xfffffffffffffffd    	// #-3
    44002454:	a8c17bfd 	ldp	x29, x30, [sp], #16
    44002458:	d65f03c0 	ret
    4400245c:	92800040 	mov	x0, #0xfffffffffffffffd    	// #-3
    44002460:	d65f03c0 	ret
    44002464:	00000000 	.inst	0x00000000 ; undefined

0000000044002468 <psci_do_cpu_off>:
    44002468:	a9bd7bfd 	stp	x29, x30, [sp, #-48]!
    4400246c:	910003fd 	mov	x29, sp
    44002470:	a90153f3 	stp	x19, x20, [sp, #16]
    44002474:	2a0003f3 	mov	w19, w0
    44002478:	94000b02 	bl	44005080 <plat_my_core_pos>
    4400247c:	52804044 	mov	w4, #0x202                 	// #514
    44002480:	52800043 	mov	w3, #0x2                   	// #2
    44002484:	9100a3e2 	add	x2, sp, #0x28
    44002488:	2a1303e1 	mov	w1, w19
    4400248c:	790043e4 	strh	w4, [sp, #32]
    44002490:	39008be3 	strb	w3, [sp, #34]
    44002494:	f90017ff 	str	xzr, [sp, #40]
    44002498:	97fffc38 	bl	44001578 <psci_get_parent_pwr_domain_nodes>
    4400249c:	2a1303e0 	mov	w0, w19
    440024a0:	9100a3e1 	add	x1, sp, #0x28
    440024a4:	97fffd0f 	bl	440018e0 <psci_acquire_pwr_domain_locks>
    440024a8:	f0000020 	adrp	x0, 44009000 <__STACKS_START__+0x1f80>
    440024ac:	f9436c00 	ldr	x0, [x0, #1752]
    440024b0:	b40000e0 	cbz	x0, 440024cc <psci_do_cpu_off+0x64>
    440024b4:	f9400401 	ldr	x1, [x0, #8]
    440024b8:	b40000a1 	cbz	x1, 440024cc <psci_do_cpu_off+0x64>
    440024bc:	d2800000 	mov	x0, #0x0                   	// #0
    440024c0:	d63f0020 	blr	x1
    440024c4:	2a0003f4 	mov	w20, w0
    440024c8:	350002e0 	cbnz	w0, 44002524 <psci_do_cpu_off+0xbc>
    440024cc:	910083e1 	add	x1, sp, #0x20
    440024d0:	2a1303e0 	mov	w0, w19
    440024d4:	f0000034 	adrp	x20, 44009000 <__STACKS_START__+0x1f80>
    440024d8:	97fffc6e 	bl	44001690 <psci_do_state_coordination>
    440024dc:	910083e0 	add	x0, sp, #0x20
    440024e0:	97fffce2 	bl	44001868 <psci_find_max_off_lvl>
    440024e4:	97fffdf1 	bl	44001ca8 <psci_do_pwrdown_sequence>
    440024e8:	f9436681 	ldr	x1, [x20, #1736]
    440024ec:	910083e0 	add	x0, sp, #0x20
    440024f0:	f9400821 	ldr	x1, [x1, #16]
    440024f4:	d63f0020 	blr	x1
    440024f8:	9100a3e1 	add	x1, sp, #0x28
    440024fc:	2a1303e0 	mov	w0, w19
    44002500:	97fffd16 	bl	44001958 <psci_release_pwr_domain_locks>
    44002504:	d53ed041 	mrs	x1, tpidr_el3
    44002508:	f9436680 	ldr	x0, [x20, #1736]
    4400250c:	52800022 	mov	w2, #0x1                   	// #1
    44002510:	b9001822 	str	w2, [x1, #24]
    44002514:	f9402001 	ldr	x1, [x0, #64]
    44002518:	b4000141 	cbz	x1, 44002540 <psci_do_cpu_off+0xd8>
    4400251c:	910083e0 	add	x0, sp, #0x20
    44002520:	d63f0020 	blr	x1
    44002524:	9100a3e1 	add	x1, sp, #0x28
    44002528:	2a1303e0 	mov	w0, w19
    4400252c:	97fffd0b 	bl	44001958 <psci_release_pwr_domain_locks>
    44002530:	2a1403e0 	mov	w0, w20
    44002534:	a94153f3 	ldp	x19, x20, [sp, #16]
    44002538:	a8c37bfd 	ldp	x29, x30, [sp], #48
    4400253c:	d65f03c0 	ret
    44002540:	94000ac2 	bl	44005048 <psci_power_down_wfi>
    44002544:	00000000 	.inst	0x00000000 ; undefined

0000000044002548 <psci_cpu_on_start>:
    44002548:	a9bc7bfd 	stp	x29, x30, [sp, #-64]!
    4400254c:	910003fd 	mov	x29, sp
    44002550:	a90153f3 	stp	x19, x20, [sp, #16]
    44002554:	d2800194 	mov	x20, #0xc                   	// #12
    44002558:	a9025bf5 	stp	x21, x22, [sp, #32]
    4400255c:	aa0103f6 	mov	x22, x1
    44002560:	aa0003f5 	mov	x21, x0
    44002564:	940003b5 	bl	44003438 <plat_core_pos_by_mpidr>
    44002568:	2a0003f3 	mov	w19, w0
    4400256c:	f0000020 	adrp	x0, 44009000 <__STACKS_START__+0x1f80>
    44002570:	911a0000 	add	x0, x0, #0x680
    44002574:	8b335294 	add	x20, x20, w19, uxtw #4
    44002578:	8b000294 	add	x20, x20, x0
    4400257c:	aa1403e0 	mov	x0, x20
    44002580:	94000aa8 	bl	44005020 <spin_lock>
    44002584:	2a1303e0 	mov	w0, w19
    44002588:	94000aa0 	bl	44005008 <_cpu_data_by_index>
    4400258c:	d2800081 	mov	x1, #0x4                   	// #4
    44002590:	91006000 	add	x0, x0, #0x18
    44002594:	94000ae4 	bl	44005124 <flush_dcache_range>
    44002598:	2a1303e0 	mov	w0, w19
    4400259c:	94000a9b 	bl	44005008 <_cpu_data_by_index>
    440025a0:	b9401800 	ldr	w0, [x0, #24]
    440025a4:	34000880 	cbz	w0, 440026b4 <psci_cpu_on_start+0x16c>
    440025a8:	7100081f 	cmp	w0, #0x2
    440025ac:	54000880 	b.eq	440026bc <psci_cpu_on_start+0x174>  // b.none
    440025b0:	f0000020 	adrp	x0, 44009000 <__STACKS_START__+0x1f80>
    440025b4:	f9001bf7 	str	x23, [sp, #48]
    440025b8:	f9436c00 	ldr	x0, [x0, #1752]
    440025bc:	b40000a0 	cbz	x0, 440025d0 <psci_cpu_on_start+0x88>
    440025c0:	f9400001 	ldr	x1, [x0]
    440025c4:	b4000061 	cbz	x1, 440025d0 <psci_cpu_on_start+0x88>
    440025c8:	aa1503e0 	mov	x0, x21
    440025cc:	d63f0020 	blr	x1
    440025d0:	52800057 	mov	w23, #0x2                   	// #2
    440025d4:	2a1303e0 	mov	w0, w19
    440025d8:	94000a8c 	bl	44005008 <_cpu_data_by_index>
    440025dc:	b9001817 	str	w23, [x0, #24]
    440025e0:	2a1303e0 	mov	w0, w19
    440025e4:	94000a89 	bl	44005008 <_cpu_data_by_index>
    440025e8:	91006000 	add	x0, x0, #0x18
    440025ec:	d2800081 	mov	x1, #0x4                   	// #4
    440025f0:	94000acd 	bl	44005124 <flush_dcache_range>
    440025f4:	2a1303e0 	mov	w0, w19
    440025f8:	94000a84 	bl	44005008 <_cpu_data_by_index>
    440025fc:	b9401800 	ldr	w0, [x0, #24]
    44002600:	6b17001f 	cmp	w0, w23
    44002604:	54000120 	b.eq	44002628 <psci_cpu_on_start+0xe0>  // b.none
    44002608:	2a1303e0 	mov	w0, w19
    4400260c:	94000a7f 	bl	44005008 <_cpu_data_by_index>
    44002610:	b9001817 	str	w23, [x0, #24]
    44002614:	2a1303e0 	mov	w0, w19
    44002618:	94000a7c 	bl	44005008 <_cpu_data_by_index>
    4400261c:	91006000 	add	x0, x0, #0x18
    44002620:	d2800081 	mov	x1, #0x4                   	// #4
    44002624:	94000ac0 	bl	44005124 <flush_dcache_range>
    44002628:	f0000021 	adrp	x1, 44009000 <__STACKS_START__+0x1f80>
    4400262c:	aa1503e0 	mov	x0, x21
    44002630:	f9436421 	ldr	x1, [x1, #1736]
    44002634:	f9400421 	ldr	x1, [x1, #8]
    44002638:	d63f0020 	blr	x1
    4400263c:	2a0003f5 	mov	w21, w0
    44002640:	34000240 	cbz	w0, 44002688 <psci_cpu_on_start+0x140>
    44002644:	2a1303e0 	mov	w0, w19
    44002648:	94000a70 	bl	44005008 <_cpu_data_by_index>
    4400264c:	52800021 	mov	w1, #0x1                   	// #1
    44002650:	b9001801 	str	w1, [x0, #24]
    44002654:	2a1303e0 	mov	w0, w19
    44002658:	94000a6c 	bl	44005008 <_cpu_data_by_index>
    4400265c:	91006000 	add	x0, x0, #0x18
    44002660:	d2800081 	mov	x1, #0x4                   	// #4
    44002664:	94000ab0 	bl	44005124 <flush_dcache_range>
    44002668:	f9401bf7 	ldr	x23, [sp, #48]
    4400266c:	aa1403e0 	mov	x0, x20
    44002670:	94000a74 	bl	44005040 <spin_unlock>
    44002674:	2a1503e0 	mov	w0, w21
    44002678:	a94153f3 	ldp	x19, x20, [sp, #16]
    4400267c:	a9425bf5 	ldp	x21, x22, [sp, #32]
    44002680:	a8c47bfd 	ldp	x29, x30, [sp], #64
    44002684:	d65f03c0 	ret
    44002688:	aa1603e1 	mov	x1, x22
    4400268c:	2a1303e0 	mov	w0, w19
    44002690:	97fffa9c 	bl	44001100 <cm_init_context_by_index>
    44002694:	aa1403e0 	mov	x0, x20
    44002698:	f9401bf7 	ldr	x23, [sp, #48]
    4400269c:	94000a69 	bl	44005040 <spin_unlock>
    440026a0:	2a1503e0 	mov	w0, w21
    440026a4:	a94153f3 	ldp	x19, x20, [sp, #16]
    440026a8:	a9425bf5 	ldp	x21, x22, [sp, #32]
    440026ac:	a8c47bfd 	ldp	x29, x30, [sp], #64
    440026b0:	d65f03c0 	ret
    440026b4:	12800075 	mov	w21, #0xfffffffc            	// #-4
    440026b8:	17ffffed 	b	4400266c <psci_cpu_on_start+0x124>
    440026bc:	12800095 	mov	w21, #0xfffffffb            	// #-5
    440026c0:	17ffffeb 	b	4400266c <psci_cpu_on_start+0x124>
    440026c4:	00000000 	.inst	0x00000000 ; undefined

00000000440026c8 <psci_cpu_on_finish>:
    440026c8:	a9bd7bfd 	stp	x29, x30, [sp, #-48]!
    440026cc:	910003fd 	mov	x29, sp
    440026d0:	a90153f3 	stp	x19, x20, [sp, #16]
    440026d4:	f0000033 	adrp	x19, 44009000 <__STACKS_START__+0x1f80>
    440026d8:	aa0103f4 	mov	x20, x1
    440026dc:	a9025bf5 	stp	x21, x22, [sp, #32]
    440026e0:	2a0003f5 	mov	w21, w0
    440026e4:	aa0103e0 	mov	x0, x1
    440026e8:	f9436661 	ldr	x1, [x19, #1736]
    440026ec:	f9401421 	ldr	x1, [x1, #40]
    440026f0:	d63f0020 	blr	x1
    440026f4:	f9436660 	ldr	x0, [x19, #1736]
    440026f8:	f9401802 	ldr	x2, [x0, #48]
    440026fc:	b4000062 	cbz	x2, 44002708 <psci_cpu_on_finish+0x40>
    44002700:	aa1403e0 	mov	x0, x20
    44002704:	d63f0040 	blr	x2
    44002708:	d2800193 	mov	x19, #0xc                   	// #12
    4400270c:	f0000036 	adrp	x22, 44009000 <__STACKS_START__+0x1f80>
    44002710:	8b355273 	add	x19, x19, w21, uxtw #4
    44002714:	911a02d6 	add	x22, x22, #0x680
    44002718:	940000fe 	bl	44002b10 <psci_arch_setup>
    4400271c:	8b1302d3 	add	x19, x22, x19
    44002720:	aa1303e0 	mov	x0, x19
    44002724:	94000a3f 	bl	44005020 <spin_lock>
    44002728:	aa1303e0 	mov	x0, x19
    4400272c:	94000a45 	bl	44005040 <spin_unlock>
    44002730:	f0000020 	adrp	x0, 44009000 <__STACKS_START__+0x1f80>
    44002734:	f9436c00 	ldr	x0, [x0, #1752]
    44002738:	b40000a0 	cbz	x0, 4400274c <psci_cpu_on_finish+0x84>
    4400273c:	f9400c01 	ldr	x1, [x0, #24]
    44002740:	b4000061 	cbz	x1, 4400274c <psci_cpu_on_finish+0x84>
    44002744:	d2800000 	mov	x0, #0x0                   	// #0
    44002748:	d63f0020 	blr	x1
    4400274c:	f0000014 	adrp	x20, 44005000 <init_cpu_data_ptr+0xc>
    44002750:	f0000000 	adrp	x0, 44005000 <init_cpu_data_ptr+0xc>
    44002754:	912a6281 	add	x1, x20, #0xa98
    44002758:	912a6000 	add	x0, x0, #0xa98
    4400275c:	eb00003f 	cmp	x1, x0
    44002760:	540001a2 	b.cs	44002794 <psci_cpu_on_finish+0xcc>  // b.hs, b.nlast
    44002764:	d1000414 	sub	x20, x0, #0x1
    44002768:	aa0103f3 	mov	x19, x1
    4400276c:	cb010294 	sub	x20, x20, x1
    44002770:	927df294 	and	x20, x20, #0xfffffffffffffff8
    44002774:	91002294 	add	x20, x20, #0x8
    44002778:	8b010294 	add	x20, x20, x1
    4400277c:	d503201f 	nop
    44002780:	f8408661 	ldr	x1, [x19], #8
    44002784:	d2800000 	mov	x0, #0x0                   	// #0
    44002788:	d63f0020 	blr	x1
    4400278c:	eb14027f 	cmp	x19, x20
    44002790:	54ffff81 	b.ne	44002780 <psci_cpu_on_finish+0xb8>  // b.any
    44002794:	d53800a0 	mrs	x0, mpidr_el1
    44002798:	d37c7eb5 	ubfiz	x21, x21, #4, #32
    4400279c:	92409c00 	and	x0, x0, #0xffffffffff
    440027a0:	9260dc00 	and	x0, x0, #0xffffffff00ffffff
    440027a4:	a94153f3 	ldp	x19, x20, [sp, #16]
    440027a8:	f8356ac0 	str	x0, [x22, x21]
    440027ac:	a9425bf5 	ldp	x21, x22, [sp, #32]
    440027b0:	a8c37bfd 	ldp	x29, x30, [sp], #48
    440027b4:	17fffad9 	b	44001318 <cm_prepare_el3_exit_ns>

00000000440027b8 <psci_setup>:
    440027b8:	a9b77bfd 	stp	x29, x30, [sp, #-144]!
    440027bc:	910003fd 	mov	x29, sp
    440027c0:	a90153f3 	stp	x19, x20, [sp, #16]
    440027c4:	a9025bf5 	stp	x21, x22, [sp, #32]
    440027c8:	aa0003f6 	mov	x22, x0
    440027cc:	a90363f7 	stp	x23, x24, [sp, #48]
    440027d0:	a9046bf9 	stp	x25, x26, [sp, #64]
    440027d4:	a90573fb 	stp	x27, x28, [sp, #80]
    440027d8:	94000700 	bl	440043d8 <plat_get_syscnt_freq2>
    440027dc:	2a0003e0 	mov	w0, w0
    440027e0:	d51be000 	msr	cntfrq_el0, x0
    440027e4:	9400094e 	bl	44004d1c <init_cpu_ops>
    440027e8:	f0000035 	adrp	x21, 44009000 <__STACKS_START__+0x1f80>
    440027ec:	9400030f 	bl	44003428 <plat_get_power_domain_tree_desc>
    440027f0:	f000003a 	adrp	x26, 44009000 <__STACKS_START__+0x1f80>
    440027f4:	911a02b5 	add	x21, x21, #0x680
    440027f8:	9104035a 	add	x26, x26, #0x100
    440027fc:	aa0003e8 	mov	x8, x0
    44002800:	52800018 	mov	w24, #0x0                   	// #0
    44002804:	52800001 	mov	w1, #0x0                   	// #0
    44002808:	52800000 	mov	w0, #0x0                   	// #0
    4400280c:	52800039 	mov	w25, #0x1                   	// #1
    44002810:	52800057 	mov	w23, #0x2                   	// #2
    44002814:	f0000027 	adrp	x7, 44009000 <__STACKS_START__+0x1f80>
    44002818:	2a0103f4 	mov	w20, w1
    4400281c:	340007b9 	cbz	w25, 44002910 <psci_setup+0x158>
    44002820:	911aa0fb 	add	x27, x7, #0x6a8
    44002824:	0b180329 	add	w9, w25, w24
    44002828:	52800019 	mov	w25, #0x0                   	// #0
    4400282c:	d503201f 	nop
    44002830:	3878491c 	ldrb	w28, [x8, w24, uxtw]
    44002834:	0b140384 	add	w4, w28, w20
    44002838:	6b04029f 	cmp	w20, w4
    4400283c:	54000602 	b.cs	440028fc <psci_setup+0x144>  // b.hs, b.nlast
    44002840:	51000703 	sub	w3, w24, #0x1
    44002844:	12001eeb 	and	w11, w23, #0xff
    44002848:	9280000a 	mov	x10, #0xffffffffffffffff    	// #-1
    4400284c:	1400000c 	b	4400287c <psci_setup+0xc4>
    44002850:	8b33d373 	add	x19, x27, w19, sxtw #4
    44002854:	d37c3c20 	ubfiz	x0, x1, #4, #16
    44002858:	8b000360 	add	x0, x27, x0
    4400285c:	52800042 	mov	w2, #0x2                   	// #2
    44002860:	11000694 	add	w20, w20, #0x1
    44002864:	3900366b 	strb	w11, [x19, #13]
    44002868:	6b04029f 	cmp	w20, w4
    4400286c:	79001c01 	strh	w1, [x0, #14]
    44002870:	b9000a63 	str	w3, [x19, #8]
    44002874:	39003262 	strb	w2, [x19, #12]
    44002878:	54000420 	b.eq	440028fc <psci_setup+0x144>  // b.none
    4400287c:	12003e81 	and	w1, w20, #0xffff
    44002880:	12003e93 	and	w19, w20, #0xffff
    44002884:	35fffe77 	cbnz	w23, 44002850 <psci_setup+0x98>
    44002888:	937c7e61 	sbfiz	x1, x19, #4, #32
    4400288c:	2a1303e0 	mov	w0, w19
    44002890:	8b0102a2 	add	x2, x21, x1
    44002894:	f90037e8 	str	x8, [sp, #104]
    44002898:	290e13e3 	stp	w3, w4, [sp, #112]
    4400289c:	11000694 	add	w20, w20, #0x1
    440028a0:	f8216aaa 	str	x10, [x21, x1]
    440028a4:	b9000843 	str	w3, [x2, #8]
    440028a8:	290f27eb 	stp	w11, w9, [sp, #120]
    440028ac:	940009d7 	bl	44005008 <_cpu_data_by_index>
    440028b0:	aa0003e6 	mov	x6, x0
    440028b4:	52804801 	mov	w1, #0x240                 	// #576
    440028b8:	91006005 	add	x5, x0, #0x18
    440028bc:	52800022 	mov	w2, #0x1                   	// #1
    440028c0:	2a1303e0 	mov	w0, w19
    440028c4:	9ba16a61 	umaddl	x1, w19, w1, x26
    440028c8:	b90018c2 	str	w2, [x6, #24]
    440028cc:	52800066 	mov	w6, #0x3                   	// #3
    440028d0:	b90004a6 	str	w6, [x5, #4]
    440028d4:	52800046 	mov	w6, #0x2                   	// #2
    440028d8:	390020a6 	strb	w6, [x5, #8]
    440028dc:	97fff645 	bl	440001f0 <cm_set_context_by_index>
    440028e0:	294e13e3 	ldp	w3, w4, [sp, #112]
    440028e4:	f0000027 	adrp	x7, 44009000 <__STACKS_START__+0x1f80>
    440028e8:	9280000a 	mov	x10, #0xffffffffffffffff    	// #-1
    440028ec:	294f27eb 	ldp	w11, w9, [sp, #120]
    440028f0:	6b04029f 	cmp	w20, w4
    440028f4:	f94037e8 	ldr	x8, [sp, #104]
    440028f8:	54fffc21 	b.ne	4400287c <psci_setup+0xc4>  // b.any
    440028fc:	11000718 	add	w24, w24, #0x1
    44002900:	0b1c0339 	add	w25, w25, w28
    44002904:	6b09031f 	cmp	w24, w9
    44002908:	54fff941 	b.ne	44002830 <psci_setup+0x78>  // b.any
    4400290c:	2a1403e0 	mov	w0, w20
    44002910:	710006f7 	subs	w23, w23, #0x1
    44002914:	52800001 	mov	w1, #0x0                   	// #0
    44002918:	54fff800 	b.eq	44002818 <psci_setup+0x60>  // b.none
    4400291c:	310006ff 	cmn	w23, #0x1
    44002920:	54000f41 	b.ne	44002b08 <psci_setup+0x350>  // b.any
    44002924:	f0000034 	adrp	x20, 44009000 <__STACKS_START__+0x1f80>
    44002928:	b9098a80 	str	w0, [x20, #2440]
    4400292c:	340004a0 	cbz	w0, 440029c0 <psci_setup+0x208>
    44002930:	f0000037 	adrp	x23, 44009000 <__STACKS_START__+0x1f80>
    44002934:	91262294 	add	x20, x20, #0x988
    44002938:	911aa2f7 	add	x23, x23, #0x6a8
    4400293c:	52800019 	mov	w25, #0x0                   	// #0
    44002940:	52800018 	mov	w24, #0x0                   	// #0
    44002944:	52800013 	mov	w19, #0x0                   	// #0
    44002948:	2a1303e0 	mov	w0, w19
    4400294c:	910223e2 	add	x2, sp, #0x88
    44002950:	52800041 	mov	w1, #0x2                   	// #2
    44002954:	97fffb09 	bl	44001578 <psci_get_parent_pwr_domain_nodes>
    44002958:	b9408fe0 	ldr	w0, [sp, #140]
    4400295c:	b9400284 	ldr	w4, [x20]
    44002960:	6b00033f 	cmp	w25, w0
    44002964:	2a0003f9 	mov	w25, w0
    44002968:	2a0003e0 	mov	w0, w0
    4400296c:	54000060 	b.eq	44002978 <psci_setup+0x1c0>  // b.none
    44002970:	d37cec01 	lsl	x1, x0, #4
    44002974:	b8216af3 	str	w19, [x23, x1]
    44002978:	8b0012e0 	add	x0, x23, x0, lsl #4
    4400297c:	b9408be1 	ldr	w1, [sp, #136]
    44002980:	6b01031f 	cmp	w24, w1
    44002984:	2a0103f8 	mov	w24, w1
    44002988:	b9400402 	ldr	w2, [x0, #4]
    4400298c:	2a0103e1 	mov	w1, w1
    44002990:	11000442 	add	w2, w2, #0x1
    44002994:	b9000402 	str	w2, [x0, #4]
    44002998:	8b0112e3 	add	x3, x23, x1, lsl #4
    4400299c:	d37cec21 	lsl	x1, x1, #4
    440029a0:	54000040 	b.eq	440029a8 <psci_setup+0x1f0>  // b.none
    440029a4:	b8216af3 	str	w19, [x23, x1]
    440029a8:	b9400460 	ldr	w0, [x3, #4]
    440029ac:	11000673 	add	w19, w19, #0x1
    440029b0:	6b04027f 	cmp	w19, w4
    440029b4:	11000400 	add	w0, w0, #0x1
    440029b8:	b9000460 	str	w0, [x3, #4]
    440029bc:	54fffc63 	b.cc	44002948 <psci_setup+0x190>  // b.lo, b.ul, b.last
    440029c0:	d53800b3 	mrs	x19, mpidr_el1
    440029c4:	940009af 	bl	44005080 <plat_my_core_pos>
    440029c8:	d37c7c00 	ubfiz	x0, x0, #4, #32
    440029cc:	92409e61 	and	x1, x19, #0xffffffffff
    440029d0:	f0000033 	adrp	x19, 44009000 <__STACKS_START__+0x1f80>
    440029d4:	9260dc21 	and	x1, x1, #0xffffffff00ffffff
    440029d8:	f8206aa1 	str	x1, [x21, x0]
    440029dc:	97fffab1 	bl	440014a0 <psci_init_req_local_pwr_states>
    440029e0:	52800040 	mov	w0, #0x2                   	// #2
    440029e4:	97fffaf7 	bl	440015c0 <psci_set_pwr_domains_to_run>
    440029e8:	f94006c0 	ldr	x0, [x22, #8]
    440029ec:	911b2261 	add	x1, x19, #0x6c8
    440029f0:	9400024c 	bl	44003320 <plat_setup_psci_ops>
    440029f4:	f9436661 	ldr	x1, [x19, #1736]
    440029f8:	52808223 	mov	w3, #0x411                 	// #1041
    440029fc:	2a0303e4 	mov	w4, w3
    44002a00:	f0000020 	adrp	x0, 44009000 <__STACKS_START__+0x1f80>
    44002a04:	528082a2 	mov	w2, #0x415                 	// #1045
    44002a08:	a9409423 	ldp	x3, x5, [x1, #8]
    44002a0c:	f10000bf 	cmp	x5, #0x0
    44002a10:	1a841042 	csel	w2, w2, w4, ne  // ne = any
    44002a14:	b9098c02 	str	w2, [x0, #2444]
    44002a18:	b40000c3 	cbz	x3, 44002a30 <psci_setup+0x278>
    44002a1c:	f9401422 	ldr	x2, [x1, #40]
    44002a20:	b4000082 	cbz	x2, 44002a30 <psci_setup+0x278>
    44002a24:	b9498c02 	ldr	w2, [x0, #2444]
    44002a28:	321d0042 	orr	w2, w2, #0x8
    44002a2c:	b9098c02 	str	w2, [x0, #2444]
    44002a30:	f9401022 	ldr	x2, [x1, #32]
    44002a34:	b40001a2 	cbz	x2, 44002a68 <psci_setup+0x2b0>
    44002a38:	f9401c22 	ldr	x2, [x1, #56]
    44002a3c:	b4000162 	cbz	x2, 44002a68 <psci_setup+0x2b0>
    44002a40:	f9402c22 	ldr	x2, [x1, #88]
    44002a44:	b4000082 	cbz	x2, 44002a54 <psci_setup+0x29c>
    44002a48:	b9498c02 	ldr	w2, [x0, #2444]
    44002a4c:	321f0042 	orr	w2, w2, #0x2
    44002a50:	b9098c02 	str	w2, [x0, #2444]
    44002a54:	f9403422 	ldr	x2, [x1, #104]
    44002a58:	b4000082 	cbz	x2, 44002a68 <psci_setup+0x2b0>
    44002a5c:	b9498c02 	ldr	w2, [x0, #2444]
    44002a60:	32120042 	orr	w2, w2, #0x4000
    44002a64:	b9098c02 	str	w2, [x0, #2444]
    44002a68:	f9402422 	ldr	x2, [x1, #72]
    44002a6c:	b4000082 	cbz	x2, 44002a7c <psci_setup+0x2c4>
    44002a70:	b9498c02 	ldr	w2, [x0, #2444]
    44002a74:	32180042 	orr	w2, w2, #0x100
    44002a78:	b9098c02 	str	w2, [x0, #2444]
    44002a7c:	f9402822 	ldr	x2, [x1, #80]
    44002a80:	b4000082 	cbz	x2, 44002a90 <psci_setup+0x2d8>
    44002a84:	b9498c02 	ldr	w2, [x0, #2444]
    44002a88:	32170042 	orr	w2, w2, #0x200
    44002a8c:	b9098c02 	str	w2, [x0, #2444]
    44002a90:	f9404022 	ldr	x2, [x1, #128]
    44002a94:	b4000082 	cbz	x2, 44002aa4 <psci_setup+0x2ec>
    44002a98:	b9498c02 	ldr	w2, [x0, #2444]
    44002a9c:	32130042 	orr	w2, w2, #0x2000
    44002aa0:	b9098c02 	str	w2, [x0, #2444]
    44002aa4:	f9404822 	ldr	x2, [x1, #144]
    44002aa8:	b40000c2 	cbz	x2, 44002ac0 <psci_setup+0x308>
    44002aac:	f9404c22 	ldr	x2, [x1, #152]
    44002ab0:	b4000082 	cbz	x2, 44002ac0 <psci_setup+0x308>
    44002ab4:	b9498c02 	ldr	w2, [x0, #2444]
    44002ab8:	320d0042 	orr	w2, w2, #0x80000
    44002abc:	b9098c02 	str	w2, [x0, #2444]
    44002ac0:	f9404422 	ldr	x2, [x1, #136]
    44002ac4:	b4000082 	cbz	x2, 44002ad4 <psci_setup+0x31c>
    44002ac8:	b9498c02 	ldr	w2, [x0, #2444]
    44002acc:	320c0042 	orr	w2, w2, #0x100000
    44002ad0:	b9098c02 	str	w2, [x0, #2444]
    44002ad4:	f9405021 	ldr	x1, [x1, #160]
    44002ad8:	b4000081 	cbz	x1, 44002ae8 <psci_setup+0x330>
    44002adc:	b9498c01 	ldr	w1, [x0, #2444]
    44002ae0:	320e0021 	orr	w1, w1, #0x40000
    44002ae4:	b9098c01 	str	w1, [x0, #2444]
    44002ae8:	52800000 	mov	w0, #0x0                   	// #0
    44002aec:	a94153f3 	ldp	x19, x20, [sp, #16]
    44002af0:	a9425bf5 	ldp	x21, x22, [sp, #32]
    44002af4:	a94363f7 	ldp	x23, x24, [sp, #48]
    44002af8:	a9446bf9 	ldp	x25, x26, [sp, #64]
    44002afc:	a94573fb 	ldp	x27, x28, [sp, #80]
    44002b00:	a8c97bfd 	ldp	x29, x30, [sp], #144
    44002b04:	d65f03c0 	ret
    44002b08:	2a1403e1 	mov	w1, w20
    44002b0c:	17ffff43 	b	44002818 <psci_setup+0x60>

0000000044002b10 <psci_arch_setup>:
    44002b10:	a9bf7bfd 	stp	x29, x30, [sp, #-16]!
    44002b14:	910003fd 	mov	x29, sp
    44002b18:	94000630 	bl	440043d8 <plat_get_syscnt_freq2>
    44002b1c:	2a0003e0 	mov	w0, w0
    44002b20:	d51be000 	msr	cntfrq_el0, x0
    44002b24:	a8c17bfd 	ldp	x29, x30, [sp], #16
    44002b28:	1400087d 	b	44004d1c <init_cpu_ops>
    44002b2c:	00000000 	.inst	0x00000000 ; undefined

0000000044002b30 <psci_cpu_suspend_start>:
    44002b30:	a9ba7bfd 	stp	x29, x30, [sp, #-96]!
    44002b34:	910003fd 	mov	x29, sp
    44002b38:	a90153f3 	stp	x19, x20, [sp, #16]
    44002b3c:	2a0103f3 	mov	w19, w1
    44002b40:	2a0303f4 	mov	w20, w3
    44002b44:	a9025bf5 	stp	x21, x22, [sp, #32]
    44002b48:	aa0203f6 	mov	x22, x2
    44002b4c:	a90363f7 	stp	x23, x24, [sp, #48]
    44002b50:	aa0003f7 	mov	x23, x0
    44002b54:	9400094b 	bl	44005080 <plat_my_core_pos>
    44002b58:	910143e2 	add	x2, sp, #0x50
    44002b5c:	2a0003f5 	mov	w21, w0
    44002b60:	2a1303e1 	mov	w1, w19
    44002b64:	f9002bff 	str	xzr, [sp, #80]
    44002b68:	97fffa84 	bl	44001578 <psci_get_parent_pwr_domain_nodes>
    44002b6c:	910143e1 	add	x1, sp, #0x50
    44002b70:	2a1303e0 	mov	w0, w19
    44002b74:	97fffb5b 	bl	440018e0 <psci_acquire_pwr_domain_locks>
    44002b78:	d538c100 	mrs	x0, isr_el1
    44002b7c:	b4000120 	cbz	x0, 44002ba0 <psci_cpu_suspend_start+0x70>
    44002b80:	910143e1 	add	x1, sp, #0x50
    44002b84:	2a1303e0 	mov	w0, w19
    44002b88:	97fffb74 	bl	44001958 <psci_release_pwr_domain_locks>
    44002b8c:	a94153f3 	ldp	x19, x20, [sp, #16]
    44002b90:	a9425bf5 	ldp	x21, x22, [sp, #32]
    44002b94:	a94363f7 	ldp	x23, x24, [sp, #48]
    44002b98:	a8c67bfd 	ldp	x29, x30, [sp], #96
    44002b9c:	d65f03c0 	ret
    44002ba0:	aa1603e1 	mov	x1, x22
    44002ba4:	2a1303e0 	mov	w0, w19
    44002ba8:	97fffaba 	bl	44001690 <psci_do_state_coordination>
    44002bac:	35000474 	cbnz	w20, 44002c38 <psci_cpu_suspend_start+0x108>
    44002bb0:	f0000034 	adrp	x20, 44009000 <__STACKS_START__+0x1f80>
    44002bb4:	aa1603e0 	mov	x0, x22
    44002bb8:	f9436681 	ldr	x1, [x20, #1736]
    44002bbc:	f9401021 	ldr	x1, [x1, #32]
    44002bc0:	d63f0020 	blr	x1
    44002bc4:	910143e1 	add	x1, sp, #0x50
    44002bc8:	2a1303e0 	mov	w0, w19
    44002bcc:	97fffb63 	bl	44001958 <psci_release_pwr_domain_locks>
    44002bd0:	d503207f 	wfi
    44002bd4:	910163e2 	add	x2, sp, #0x58
    44002bd8:	2a1503e0 	mov	w0, w21
    44002bdc:	2a1303e1 	mov	w1, w19
    44002be0:	f9002fff 	str	xzr, [sp, #88]
    44002be4:	97fffa65 	bl	44001578 <psci_get_parent_pwr_domain_nodes>
    44002be8:	910163e1 	add	x1, sp, #0x58
    44002bec:	2a1303e0 	mov	w0, w19
    44002bf0:	97fffb3c 	bl	440018e0 <psci_acquire_pwr_domain_locks>
    44002bf4:	910123e1 	add	x1, sp, #0x48
    44002bf8:	2a1303e0 	mov	w0, w19
    44002bfc:	97fffa39 	bl	440014e0 <psci_get_target_local_pwr_states>
    44002c00:	f9436681 	ldr	x1, [x20, #1736]
    44002c04:	910123e0 	add	x0, sp, #0x48
    44002c08:	f9401c21 	ldr	x1, [x1, #56]
    44002c0c:	d63f0020 	blr	x1
    44002c10:	2a1303e0 	mov	w0, w19
    44002c14:	97fffa6b 	bl	440015c0 <psci_set_pwr_domains_to_run>
    44002c18:	910163e1 	add	x1, sp, #0x58
    44002c1c:	2a1303e0 	mov	w0, w19
    44002c20:	97fffb4e 	bl	44001958 <psci_release_pwr_domain_locks>
    44002c24:	a94153f3 	ldp	x19, x20, [sp, #16]
    44002c28:	a9425bf5 	ldp	x21, x22, [sp, #32]
    44002c2c:	a94363f7 	ldp	x23, x24, [sp, #48]
    44002c30:	a8c67bfd 	ldp	x29, x30, [sp], #96
    44002c34:	d65f03c0 	ret
    44002c38:	aa1603e0 	mov	x0, x22
    44002c3c:	97fffb0b 	bl	44001868 <psci_find_max_off_lvl>
    44002c40:	f0000015 	adrp	x21, 44005000 <init_cpu_data_ptr+0xc>
    44002c44:	2a0003f8 	mov	w24, w0
    44002c48:	912a62a1 	add	x1, x21, #0xa98
    44002c4c:	f0000000 	adrp	x0, 44005000 <init_cpu_data_ptr+0xc>
    44002c50:	912a6000 	add	x0, x0, #0xa98
    44002c54:	eb00003f 	cmp	x1, x0
    44002c58:	540001a2 	b.cs	44002c8c <psci_cpu_suspend_start+0x15c>  // b.hs, b.nlast
    44002c5c:	d1000415 	sub	x21, x0, #0x1
    44002c60:	aa0103f4 	mov	x20, x1
    44002c64:	cb0102b5 	sub	x21, x21, x1
    44002c68:	927df2b5 	and	x21, x21, #0xfffffffffffffff8
    44002c6c:	910022b5 	add	x21, x21, #0x8
    44002c70:	8b0102b5 	add	x21, x21, x1
    44002c74:	d503201f 	nop
    44002c78:	f8408681 	ldr	x1, [x20], #8
    44002c7c:	d2800000 	mov	x0, #0x0                   	// #0
    44002c80:	d63f0020 	blr	x1
    44002c84:	eb15029f 	cmp	x20, x21
    44002c88:	54ffff81 	b.ne	44002c78 <psci_cpu_suspend_start+0x148>  // b.any
    44002c8c:	d53ed041 	mrs	x1, tpidr_el3
    44002c90:	f0000020 	adrp	x0, 44009000 <__STACKS_START__+0x1f80>
    44002c94:	b9001c33 	str	w19, [x1, #28]
    44002c98:	f9436c00 	ldr	x0, [x0, #1752]
    44002c9c:	b40000a0 	cbz	x0, 44002cb0 <psci_cpu_suspend_start+0x180>
    44002ca0:	f9400801 	ldr	x1, [x0, #16]
    44002ca4:	b4000061 	cbz	x1, 44002cb0 <psci_cpu_suspend_start+0x180>
    44002ca8:	2a1803e0 	mov	w0, w24
    44002cac:	d63f0020 	blr	x1
    44002cb0:	f0000034 	adrp	x20, 44009000 <__STACKS_START__+0x1f80>
    44002cb4:	aa1703e0 	mov	x0, x23
    44002cb8:	97fff91e 	bl	44001130 <cm_init_my_context>
    44002cbc:	2a1803e0 	mov	w0, w24
    44002cc0:	97fffbfa 	bl	44001ca8 <psci_do_pwrdown_sequence>
    44002cc4:	f9436681 	ldr	x1, [x20, #1736]
    44002cc8:	aa1603e0 	mov	x0, x22
    44002ccc:	f9401021 	ldr	x1, [x1, #32]
    44002cd0:	d63f0020 	blr	x1
    44002cd4:	910143e1 	add	x1, sp, #0x50
    44002cd8:	2a1303e0 	mov	w0, w19
    44002cdc:	97fffb1f 	bl	44001958 <psci_release_pwr_domain_locks>
    44002ce0:	f9436680 	ldr	x0, [x20, #1736]
    44002ce4:	f9402001 	ldr	x1, [x0, #64]
    44002ce8:	b4000061 	cbz	x1, 44002cf4 <psci_cpu_suspend_start+0x1c4>
    44002cec:	aa1603e0 	mov	x0, x22
    44002cf0:	d63f0020 	blr	x1
    44002cf4:	940008d5 	bl	44005048 <psci_power_down_wfi>

0000000044002cf8 <psci_cpu_suspend_finish>:
    44002cf8:	a9be7bfd 	stp	x29, x30, [sp, #-32]!
    44002cfc:	f0000022 	adrp	x2, 44009000 <__STACKS_START__+0x1f80>
    44002d00:	aa0103e0 	mov	x0, x1
    44002d04:	910003fd 	mov	x29, sp
    44002d08:	a90153f3 	stp	x19, x20, [sp, #16]
    44002d0c:	aa0103f4 	mov	x20, x1
    44002d10:	f9436441 	ldr	x1, [x2, #1736]
    44002d14:	f9401c21 	ldr	x1, [x1, #56]
    44002d18:	d63f0020 	blr	x1
    44002d1c:	940005af 	bl	440043d8 <plat_get_syscnt_freq2>
    44002d20:	2a0003e0 	mov	w0, w0
    44002d24:	d51be000 	msr	cntfrq_el0, x0
    44002d28:	f0000033 	adrp	x19, 44009000 <__STACKS_START__+0x1f80>
    44002d2c:	f9436e60 	ldr	x0, [x19, #1752]
    44002d30:	b4000120 	cbz	x0, 44002d54 <psci_cpu_suspend_finish+0x5c>
    44002d34:	f9401000 	ldr	x0, [x0, #32]
    44002d38:	b40000e0 	cbz	x0, 44002d54 <psci_cpu_suspend_finish+0x5c>
    44002d3c:	aa1403e0 	mov	x0, x20
    44002d40:	97fffaca 	bl	44001868 <psci_find_max_off_lvl>
    44002d44:	f9436e61 	ldr	x1, [x19, #1752]
    44002d48:	2a0003e0 	mov	w0, w0
    44002d4c:	f9401021 	ldr	x1, [x1, #32]
    44002d50:	d63f0020 	blr	x1
    44002d54:	d53ed040 	mrs	x0, tpidr_el3
    44002d58:	52800061 	mov	w1, #0x3                   	// #3
    44002d5c:	b9001c01 	str	w1, [x0, #28]
    44002d60:	f0000014 	adrp	x20, 44005000 <init_cpu_data_ptr+0xc>
    44002d64:	f0000000 	adrp	x0, 44005000 <init_cpu_data_ptr+0xc>
    44002d68:	912a6281 	add	x1, x20, #0xa98
    44002d6c:	912a6000 	add	x0, x0, #0xa98
    44002d70:	eb00003f 	cmp	x1, x0
    44002d74:	54000182 	b.cs	44002da4 <psci_cpu_suspend_finish+0xac>  // b.hs, b.nlast
    44002d78:	d1000414 	sub	x20, x0, #0x1
    44002d7c:	aa0103f3 	mov	x19, x1
    44002d80:	cb010294 	sub	x20, x20, x1
    44002d84:	927df294 	and	x20, x20, #0xfffffffffffffff8
    44002d88:	91002294 	add	x20, x20, #0x8
    44002d8c:	8b010294 	add	x20, x20, x1
    44002d90:	f8408661 	ldr	x1, [x19], #8
    44002d94:	d2800000 	mov	x0, #0x0                   	// #0
    44002d98:	d63f0020 	blr	x1
    44002d9c:	eb14027f 	cmp	x19, x20
    44002da0:	54ffff81 	b.ne	44002d90 <psci_cpu_suspend_finish+0x98>  // b.any
    44002da4:	a94153f3 	ldp	x19, x20, [sp, #16]
    44002da8:	a8c27bfd 	ldp	x29, x30, [sp], #32
    44002dac:	17fff95b 	b	44001318 <cm_prepare_el3_exit_ns>

0000000044002db0 <psci_system_off>:
    44002db0:	a9bf7bfd 	stp	x29, x30, [sp, #-16]!
    44002db4:	910003fd 	mov	x29, sp
    44002db8:	97fffbba 	bl	44001ca0 <psci_print_power_domain_map>
    44002dbc:	f0000020 	adrp	x0, 44009000 <__STACKS_START__+0x1f80>
    44002dc0:	f9436c00 	ldr	x0, [x0, #1752]
    44002dc4:	b4000080 	cbz	x0, 44002dd4 <psci_system_off+0x24>
    44002dc8:	f9401c00 	ldr	x0, [x0, #56]
    44002dcc:	b4000040 	cbz	x0, 44002dd4 <psci_system_off+0x24>
    44002dd0:	d63f0000 	blr	x0
    44002dd4:	940002f3 	bl	440039a0 <console_flush>
    44002dd8:	f0000020 	adrp	x0, 44009000 <__STACKS_START__+0x1f80>
    44002ddc:	f9436400 	ldr	x0, [x0, #1736]
    44002de0:	f9402400 	ldr	x0, [x0, #72]
    44002de4:	d63f0000 	blr	x0

0000000044002de8 <psci_system_reset>:
    44002de8:	a9bf7bfd 	stp	x29, x30, [sp, #-16]!
    44002dec:	910003fd 	mov	x29, sp
    44002df0:	97fffbac 	bl	44001ca0 <psci_print_power_domain_map>
    44002df4:	f0000020 	adrp	x0, 44009000 <__STACKS_START__+0x1f80>
    44002df8:	f9436c00 	ldr	x0, [x0, #1752]
    44002dfc:	b4000080 	cbz	x0, 44002e0c <psci_system_reset+0x24>
    44002e00:	f9402000 	ldr	x0, [x0, #64]
    44002e04:	b4000040 	cbz	x0, 44002e0c <psci_system_reset+0x24>
    44002e08:	d63f0000 	blr	x0
    44002e0c:	940002e5 	bl	440039a0 <console_flush>
    44002e10:	f0000020 	adrp	x0, 44009000 <__STACKS_START__+0x1f80>
    44002e14:	f9436400 	ldr	x0, [x0, #1736]
    44002e18:	f9402800 	ldr	x0, [x0, #80]
    44002e1c:	d63f0000 	blr	x0

0000000044002e20 <psci_system_reset2>:
    44002e20:	a9bd7bfd 	stp	x29, x30, [sp, #-48]!
    44002e24:	910003fd 	mov	x29, sp
    44002e28:	a90153f3 	stp	x19, x20, [sp, #16]
    44002e2c:	2a0003f3 	mov	w19, w0
    44002e30:	531f7e74 	lsr	w20, w19, #31
    44002e34:	a9025bf5 	stp	x21, x22, [sp, #32]
    44002e38:	aa0103f6 	mov	x22, x1
    44002e3c:	97fffb99 	bl	44001ca0 <psci_print_power_domain_map>
    44002e40:	34000294 	cbz	w20, 44002e90 <psci_system_reset2+0x70>
    44002e44:	f0000035 	adrp	x21, 44009000 <__STACKS_START__+0x1f80>
    44002e48:	f0000020 	adrp	x0, 44009000 <__STACKS_START__+0x1f80>
    44002e4c:	f9436c00 	ldr	x0, [x0, #1752]
    44002e50:	b4000080 	cbz	x0, 44002e60 <psci_system_reset2+0x40>
    44002e54:	f9402000 	ldr	x0, [x0, #64]
    44002e58:	b4000040 	cbz	x0, 44002e60 <psci_system_reset2+0x40>
    44002e5c:	d63f0000 	blr	x0
    44002e60:	940002d0 	bl	440039a0 <console_flush>
    44002e64:	f94366a3 	ldr	x3, [x21, #1736]
    44002e68:	aa1603e2 	mov	x2, x22
    44002e6c:	2a1303e1 	mov	w1, w19
    44002e70:	2a1403e0 	mov	w0, w20
    44002e74:	f9405063 	ldr	x3, [x3, #160]
    44002e78:	d63f0060 	blr	x3
    44002e7c:	93407c00 	sxtw	x0, w0
    44002e80:	a94153f3 	ldp	x19, x20, [sp, #16]
    44002e84:	a9425bf5 	ldp	x21, x22, [sp, #32]
    44002e88:	a8c37bfd 	ldp	x29, x30, [sp], #48
    44002e8c:	d65f03c0 	ret
    44002e90:	92800020 	mov	x0, #0xfffffffffffffffe    	// #-2
    44002e94:	35ffff73 	cbnz	w19, 44002e80 <psci_system_reset2+0x60>
    44002e98:	f0000035 	adrp	x21, 44009000 <__STACKS_START__+0x1f80>
    44002e9c:	f94366a0 	ldr	x0, [x21, #1736]
    44002ea0:	f9404c01 	ldr	x1, [x0, #152]
    44002ea4:	b4fffd21 	cbz	x1, 44002e48 <psci_system_reset2+0x28>
    44002ea8:	52800000 	mov	w0, #0x0                   	// #0
    44002eac:	d63f0020 	blr	x1
    44002eb0:	36fffcc0 	tbz	w0, #31, 44002e48 <psci_system_reset2+0x28>
    44002eb4:	92800000 	mov	x0, #0xffffffffffffffff    	// #-1
    44002eb8:	17fffff2 	b	44002e80 <psci_system_reset2+0x60>
    44002ebc:	00000000 	.inst	0x00000000 ; undefined

0000000044002ec0 <plat_ic_get_pending_interrupt_type>:
    44002ec0:	a9bf7bfd 	stp	x29, x30, [sp, #-16]!
    44002ec4:	910003fd 	mov	x29, sp
    44002ec8:	97fff7a8 	bl	44000d68 <gicv3_get_pending_interrupt_type>
    44002ecc:	510ff001 	sub	w1, w0, #0x3fc
    44002ed0:	71000c3f 	cmp	w1, #0x3
    44002ed4:	52800020 	mov	w0, #0x1                   	// #1
    44002ed8:	54000088 	b.hi	44002ee8 <plat_ic_get_pending_interrupt_type+0x28>  // b.pmore
    44002edc:	f0000000 	adrp	x0, 44005000 <init_cpu_data_ptr+0xc>
    44002ee0:	911a0000 	add	x0, x0, #0x680
    44002ee4:	b8615800 	ldr	w0, [x0, w1, uxtw #2]
    44002ee8:	a8c17bfd 	ldp	x29, x30, [sp], #16
    44002eec:	d65f03c0 	ret

0000000044002ef0 <plat_get_target_pwr_state>:
    44002ef0:	51000442 	sub	w2, w2, #0x1
    44002ef4:	52800040 	mov	w0, #0x2                   	// #2
    44002ef8:	91000442 	add	x2, x2, #0x1
    44002efc:	8b020023 	add	x3, x1, x2
    44002f00:	38401422 	ldrb	w2, [x1], #1
    44002f04:	6b00005f 	cmp	w2, w0
    44002f08:	1a803040 	csel	w0, w2, w0, cc  // cc = lo, ul, last
    44002f0c:	eb03003f 	cmp	x1, x3
    44002f10:	12001c00 	and	w0, w0, #0xff
    44002f14:	54ffff61 	b.ne	44002f00 <plat_get_target_pwr_state+0x10>  // b.any
    44002f18:	d65f03c0 	ret
    44002f1c:	00000000 	.inst	0x00000000 ; undefined

0000000044002f20 <bl31_early_platform_setup2>:
    44002f20:	a9be7bfd 	stp	x29, x30, [sp, #-32]!
    44002f24:	52984002 	mov	w2, #0xc200                	// #49664
    44002f28:	529c2001 	mov	w1, #0xe100                	// #57600
    44002f2c:	910003fd 	mov	x29, sp
    44002f30:	a90153f3 	stp	x19, x20, [sp, #16]
    44002f34:	aa0003f4 	mov	x20, x0
    44002f38:	f0000033 	adrp	x19, 44009000 <__STACKS_START__+0x1f80>
    44002f3c:	d2970000 	mov	x0, #0xb800                	// #47104
    44002f40:	911e4273 	add	x19, x19, #0x790
    44002f44:	aa1303e3 	mov	x3, x19
    44002f48:	72a00022 	movk	w2, #0x1, lsl #16
    44002f4c:	72a0bea1 	movk	w1, #0x5f5, lsl #16
    44002f50:	f2a20080 	movk	x0, #0x1004, lsl #16
    44002f54:	940008f6 	bl	4400532c <console_rzg2l_register>
    44002f58:	34000160 	cbz	w0, 44002f84 <bl31_early_platform_setup2+0x64>
    44002f5c:	aa1303e0 	mov	x0, x19
    44002f60:	528000e1 	mov	w1, #0x7                   	// #7
    44002f64:	9400025b 	bl	440038d0 <console_set_scope>
    44002f68:	aa1403e1 	mov	x1, x20
    44002f6c:	f0000020 	adrp	x0, 44009000 <__STACKS_START__+0x1f80>
    44002f70:	a94153f3 	ldp	x19, x20, [sp, #16]
    44002f74:	911b8000 	add	x0, x0, #0x6e0
    44002f78:	a8c27bfd 	ldp	x29, x30, [sp], #32
    44002f7c:	d2801602 	mov	x2, #0xb0                  	// #176
    44002f80:	14000518 	b	440043e0 <memcpy>
    44002f84:	94000287 	bl	440039a0 <console_flush>
    44002f88:	9400085b 	bl	440050f4 <do_panic>
    44002f8c:	00000000 	.inst	0x00000000 ; undefined

0000000044002f90 <bl31_plat_arch_setup>:
    44002f90:	a9b57bfd 	stp	x29, x30, [sp, #-176]!
    44002f94:	d2801082 	mov	x2, #0x84                  	// #132
    44002f98:	52800001 	mov	w1, #0x0                   	// #0
    44002f9c:	910003fd 	mov	x29, sp
    44002fa0:	9100b3e0 	add	x0, sp, #0x2c
    44002fa4:	9400052b 	bl	44004450 <memset>
    44002fa8:	d0ffffe5 	adrp	x5, 44000000 <bl31_entrypoint>
    44002fac:	d0000064 	adrp	x4, 44010000 <__BL31_END__>
    44002fb0:	910000a5 	add	x5, x5, #0x0
    44002fb4:	91000084 	add	x4, x4, #0x0
    44002fb8:	d0ffffe3 	adrp	x3, 44000000 <bl31_entrypoint>
    44002fbc:	b0000022 	adrp	x2, 44007000 <__RO_END__>
    44002fc0:	91000063 	add	x3, x3, #0x0
    44002fc4:	91000042 	add	x2, x2, #0x0
    44002fc8:	cb050084 	sub	x4, x4, x5
    44002fcc:	cb030042 	sub	x2, x2, x3
    44002fd0:	d2a80006 	mov	x6, #0x40000000            	// #1073741824
    44002fd4:	52800149 	mov	w9, #0xa                   	// #10
    44002fd8:	52800048 	mov	w8, #0x2                   	// #2
    44002fdc:	52800847 	mov	w7, #0x42                  	// #66
    44002fe0:	f0000001 	adrp	x1, 44005000 <init_cpu_data_ptr+0xc>
    44002fe4:	911a4021 	add	x1, x1, #0x690
    44002fe8:	910043e0 	add	x0, sp, #0x10
    44002fec:	a90117e5 	stp	x5, x5, [sp, #16]
    44002ff0:	f90013e4 	str	x4, [sp, #32]
    44002ff4:	b9002be9 	str	w9, [sp, #40]
    44002ff8:	a9030fe6 	stp	x6, x3, [sp, #48]
    44002ffc:	a9040be3 	stp	x3, x2, [sp, #64]
    44003000:	b90053e8 	str	w8, [sp, #80]
    44003004:	f9002fe6 	str	x6, [sp, #88]
    44003008:	b9007be7 	str	w7, [sp, #120]
    4400300c:	f90043e6 	str	x6, [sp, #128]
    44003010:	94000280 	bl	44003a10 <setup_page_tables>
    44003014:	52800000 	mov	w0, #0x0                   	// #0
    44003018:	94000312 	bl	44003c60 <enable_mmu_el3>
    4400301c:	a8cb7bfd 	ldp	x29, x30, [sp], #176
    44003020:	d65f03c0 	ret
    44003024:	00000000 	.inst	0x00000000 ; undefined

0000000044003028 <bl31_platform_setup>:
    44003028:	a9bf7bfd 	stp	x29, x30, [sp, #-16]!
    4400302c:	910003fd 	mov	x29, sp
    44003030:	940000f0 	bl	440033f0 <plat_security_setup>
    44003034:	94000015 	bl	44003088 <plat_gic_driver_init>
    44003038:	a8c17bfd 	ldp	x29, x30, [sp], #16
    4400303c:	14000017 	b	44003098 <plat_gic_init>

0000000044003040 <bl31_plat_get_next_image_ep_info>:
    44003040:	d0000021 	adrp	x1, 44009000 <__STACKS_START__+0x1f80>
    44003044:	911b8021 	add	x1, x1, #0x6e0
    44003048:	7100041f 	cmp	w0, #0x1
    4400304c:	91016020 	add	x0, x1, #0x58
    44003050:	9a810000 	csel	x0, x0, x1, eq  // eq = none
    44003054:	f9400401 	ldr	x1, [x0, #8]
    44003058:	f100003f 	cmp	x1, #0x0
    4400305c:	9a9f1000 	csel	x0, x0, xzr, ne  // ne = any
    44003060:	d65f03c0 	ret
    44003064:	00000000 	.inst	0x00000000 ; undefined

0000000044003068 <syc_get_freq>:
    44003068:	d2800400 	mov	x0, #0x20                  	// #32
    4400306c:	f2a22000 	movk	x0, #0x1100, lsl #16
    44003070:	b9400000 	ldr	w0, [x0]
    44003074:	d65f03c0 	ret

0000000044003078 <plat_mpidr_to_core_pos>:
    44003078:	d53800a1 	mrs	x1, mpidr_el1
    4400307c:	92680021 	and	x1, x1, #0x1000000
    44003080:	aa000020 	orr	x0, x1, x0
    44003084:	140000ed 	b	44003438 <plat_core_pos_by_mpidr>

0000000044003088 <plat_gic_driver_init>:
    44003088:	d0000000 	adrp	x0, 44005000 <init_cpu_data_ptr+0xc>
    4400308c:	911cc000 	add	x0, x0, #0x730
    44003090:	17fff6a4 	b	44000b20 <gicv3_driver_init>
    44003094:	00000000 	.inst	0x00000000 ; undefined

0000000044003098 <plat_gic_init>:
    44003098:	a9bf7bfd 	stp	x29, x30, [sp, #-16]!
    4400309c:	910003fd 	mov	x29, sp
    440030a0:	97fff6b8 	bl	44000b80 <gicv3_distif_init>
    440030a4:	940007f7 	bl	44005080 <plat_my_core_pos>
    440030a8:	97fff6da 	bl	44000c10 <gicv3_rdistif_init>
    440030ac:	940007f5 	bl	44005080 <plat_my_core_pos>
    440030b0:	a8c17bfd 	ldp	x29, x30, [sp], #16
    440030b4:	17fff6f9 	b	44000c98 <gicv3_cpuif_enable>

00000000440030b8 <plat_gic_cpuif_enable>:
    440030b8:	a9bf7bfd 	stp	x29, x30, [sp, #-16]!
    440030bc:	910003fd 	mov	x29, sp
    440030c0:	940007f0 	bl	44005080 <plat_my_core_pos>
    440030c4:	a8c17bfd 	ldp	x29, x30, [sp], #16
    440030c8:	17fff6f4 	b	44000c98 <gicv3_cpuif_enable>
    440030cc:	00000000 	.inst	0x00000000 ; undefined

00000000440030d0 <plat_gic_cpuif_disable>:
    440030d0:	a9bf7bfd 	stp	x29, x30, [sp, #-16]!
    440030d4:	910003fd 	mov	x29, sp
    440030d8:	940007ea 	bl	44005080 <plat_my_core_pos>
    440030dc:	a8c17bfd 	ldp	x29, x30, [sp], #16
    440030e0:	17fff712 	b	44000d28 <gicv3_cpuif_disable>
    440030e4:	00000000 	.inst	0x00000000 ; undefined

00000000440030e8 <plat_gic_pcpu_init>:
    440030e8:	a9bf7bfd 	stp	x29, x30, [sp, #-16]!
    440030ec:	910003fd 	mov	x29, sp
    440030f0:	940007e4 	bl	44005080 <plat_my_core_pos>
    440030f4:	a8c17bfd 	ldp	x29, x30, [sp], #16
    440030f8:	17fff6c6 	b	44000c10 <gicv3_rdistif_init>
    440030fc:	00000000 	.inst	0x00000000 ; undefined

0000000044003100 <rzg2l_pwr_domain_on>:
    44003100:	d10083ff 	sub	sp, sp, #0x20
    44003104:	d2810b04 	mov	x4, #0x858                 	// #2136
    44003108:	d2810c03 	mov	x3, #0x860                 	// #2144
    4400310c:	d2816782 	mov	x2, #0xb3c                 	// #2876
    44003110:	d2816881 	mov	x1, #0xb44                 	// #2884
    44003114:	f2a22044 	movk	x4, #0x1102, lsl #16
    44003118:	f2a22043 	movk	x3, #0x1102, lsl #16
    4400311c:	f2a22022 	movk	x2, #0x1101, lsl #16
    44003120:	f2a22021 	movk	x1, #0x1101, lsl #16
    44003124:	f2c10b84 	movk	x4, #0x85c, lsl #32
    44003128:	f2c10c83 	movk	x3, #0x864, lsl #32
    4400312c:	f2c16702 	movk	x2, #0xb38, lsl #32
    44003130:	f2c16801 	movk	x1, #0xb40, lsl #32
    44003134:	f2e22044 	movk	x4, #0x1102, lsl #48
    44003138:	f2e22043 	movk	x3, #0x1102, lsl #48
    4400313c:	f2e22022 	movk	x2, #0x1101, lsl #48
    44003140:	f2e22021 	movk	x1, #0x1101, lsl #48
    44003144:	a9000fe4 	stp	x4, x3, [sp]
    44003148:	53083c00 	ubfx	w0, w0, #8, #8
    4400314c:	a90107e2 	stp	x2, x1, [sp, #16]
    44003150:	7100041f 	cmp	w0, #0x1
    44003154:	540008c8 	b.hi	4400326c <rzg2l_pwr_domain_on+0x16c>  // b.pmore
    44003158:	d281a101 	mov	x1, #0xd08                 	// #3336
    4400315c:	93407c04 	sxtw	x4, w0
    44003160:	f2a22041 	movk	x1, #0x1102, lsl #16
    44003164:	910043e7 	add	x7, sp, #0x10
    44003168:	910053e6 	add	x6, sp, #0x14
    4400316c:	b9400021 	ldr	w1, [x1]
    44003170:	36000181 	tbz	w1, #0, 440031a0 <rzg2l_pwr_domain_on+0xa0>
    44003174:	d37df081 	lsl	x1, x4, #3
    44003178:	52800022 	mov	w2, #0x1                   	// #1
    4400317c:	b86168e3 	ldr	w3, [x7, x1]
    44003180:	b86168c1 	ldr	w1, [x6, x1]
    44003184:	b9000062 	str	w2, [x3]
    44003188:	b9400022 	ldr	w2, [x1]
    4400318c:	3607ffe2 	tbz	w2, #0, 44003188 <rzg2l_pwr_domain_on+0x88>
    44003190:	b900007f 	str	wzr, [x3]
    44003194:	d503201f 	nop
    44003198:	b9400022 	ldr	w2, [x1]
    4400319c:	3707ffe2 	tbnz	w2, #0, 44003198 <rzg2l_pwr_domain_on+0x98>
    440031a0:	d37df083 	lsl	x3, x4, #3
    440031a4:	910013e9 	add	x9, sp, #0x4
    440031a8:	d0000022 	adrp	x2, 44009000 <__STACKS_START__+0x1f80>
    440031ac:	d2810008 	mov	x8, #0x800                 	// #2048
    440031b0:	f2a22028 	movk	x8, #0x1101, lsl #16
    440031b4:	52a00025 	mov	w5, #0x10000               	// #65536
    440031b8:	b8636bea 	ldr	w10, [sp, x3]
    440031bc:	52800021 	mov	w1, #0x1                   	// #1
    440031c0:	f943e842 	ldr	x2, [x2, #2000]
    440031c4:	1ac020a5 	lsl	w5, w5, w0
    440031c8:	b8636929 	ldr	w9, [x9, x3]
    440031cc:	1ac02021 	lsl	w1, w1, w0
    440031d0:	121e7443 	and	w3, w2, #0xfffffffc
    440031d4:	b9000143 	str	w3, [x10]
    440031d8:	d3609c42 	ubfx	x2, x2, #32, #8
    440031dc:	d2813003 	mov	x3, #0x980                 	// #2432
    440031e0:	f2a22023 	movk	x3, #0x1101, lsl #16
    440031e4:	b9000122 	str	w2, [x9]
    440031e8:	b9000105 	str	w5, [x8]
    440031ec:	d503201f 	nop
    440031f0:	b9400062 	ldr	w2, [x3]
    440031f4:	6a02003f 	tst	w1, w2
    440031f8:	54ffffc0 	b.eq	440031f0 <rzg2l_pwr_domain_on+0xf0>  // b.none
    440031fc:	d2810003 	mov	x3, #0x800                 	// #2048
    44003200:	528000a2 	mov	w2, #0x5                   	// #5
    44003204:	72a000a2 	movk	w2, #0x5, lsl #16
    44003208:	f2a22023 	movk	x3, #0x1101, lsl #16
    4400320c:	1ac02040 	lsl	w0, w2, w0
    44003210:	d2813002 	mov	x2, #0x980                 	// #2432
    44003214:	f2a22022 	movk	x2, #0x1101, lsl #16
    44003218:	b9000060 	str	w0, [x3]
    4400321c:	d503201f 	nop
    44003220:	b9400040 	ldr	w0, [x2]
    44003224:	6a00003f 	tst	w1, w0
    44003228:	54ffffc1 	b.ne	44003220 <rzg2l_pwr_domain_on+0x120>  // b.any
    4400322c:	d37df084 	lsl	x4, x4, #3
    44003230:	52800021 	mov	w1, #0x1                   	// #1
    44003234:	72a00101 	movk	w1, #0x8, lsl #16
    44003238:	b86468e2 	ldr	w2, [x7, x4]
    4400323c:	b86468c0 	ldr	w0, [x6, x4]
    44003240:	b9000041 	str	w1, [x2]
    44003244:	d503201f 	nop
    44003248:	b9400001 	ldr	w1, [x0]
    4400324c:	3607ffe1 	tbz	w1, #0, 44003248 <rzg2l_pwr_domain_on+0x148>
    44003250:	52a00101 	mov	w1, #0x80000               	// #524288
    44003254:	b9000041 	str	w1, [x2]
    44003258:	b9400001 	ldr	w1, [x0]
    4400325c:	3707ffe1 	tbnz	w1, #0, 44003258 <rzg2l_pwr_domain_on+0x158>
    44003260:	52800000 	mov	w0, #0x0                   	// #0
    44003264:	910083ff 	add	sp, sp, #0x20
    44003268:	d65f03c0 	ret
    4400326c:	12800020 	mov	w0, #0xfffffffe            	// #-2
    44003270:	17fffffd 	b	44003264 <rzg2l_pwr_domain_on+0x164>
    44003274:	00000000 	.inst	0x00000000 ; undefined

0000000044003278 <rzg2l_system_off>:
    44003278:	a9bf7bfd 	stp	x29, x30, [sp, #-16]!
    4400327c:	910003fd 	mov	x29, sp
    44003280:	d503207f 	wfi
    44003284:	d0000000 	adrp	x0, 44005000 <init_cpu_data_ptr+0xc>
    44003288:	91202000 	add	x0, x0, #0x808
    4400328c:	9400014d 	bl	440037c0 <tf_log>
    44003290:	940001c4 	bl	440039a0 <console_flush>
    44003294:	94000798 	bl	440050f4 <do_panic>

0000000044003298 <rzg2l_pwr_domain_on_finish>:
    44003298:	a9bf7bfd 	stp	x29, x30, [sp, #-16]!
    4400329c:	910003fd 	mov	x29, sp
    440032a0:	97ffff92 	bl	440030e8 <plat_gic_pcpu_init>
    440032a4:	a8c17bfd 	ldp	x29, x30, [sp], #16
    440032a8:	17ffff84 	b	440030b8 <plat_gic_cpuif_enable>
    440032ac:	00000000 	.inst	0x00000000 ; undefined

00000000440032b0 <rzg2l_pwr_domain_off>:
    440032b0:	a9be7bfd 	stp	x29, x30, [sp, #-32]!
    440032b4:	910003fd 	mov	x29, sp
    440032b8:	f9000bf3 	str	x19, [sp, #16]
    440032bc:	d53800b3 	mrs	x19, mpidr_el1
    440032c0:	97ffff84 	bl	440030d0 <plat_gic_cpuif_disable>
    440032c4:	53083e73 	ubfx	w19, w19, #8, #8
    440032c8:	d281a302 	mov	x2, #0xd18                 	// #3352
    440032cc:	d281a080 	mov	x0, #0xd04                 	// #3332
    440032d0:	f2a22042 	movk	x2, #0x1102, lsl #16
    440032d4:	52802001 	mov	w1, #0x100                 	// #256
    440032d8:	f2a22040 	movk	x0, #0x1102, lsl #16
    440032dc:	1ad32021 	lsl	w1, w1, w19
    440032e0:	b9000041 	str	w1, [x2]
    440032e4:	d281a282 	mov	x2, #0xd14                 	// #3348
    440032e8:	f2a22042 	movk	x2, #0x1102, lsl #16
    440032ec:	b9000001 	str	w1, [x0]
    440032f0:	b9400040 	ldr	w0, [x2]
    440032f4:	6a20003f 	bics	wzr, w1, w0
    440032f8:	54ffffc1 	b.ne	440032f0 <rzg2l_pwr_domain_off+0x40>  // b.any
    440032fc:	d281a100 	mov	x0, #0xd08                 	// #3336
    44003300:	52800021 	mov	w1, #0x1                   	// #1
    44003304:	f2a22040 	movk	x0, #0x1102, lsl #16
    44003308:	b9000001 	str	w1, [x0]
    4400330c:	d5033fdf 	isb
    44003310:	d5033f9f 	dsb	sy
    44003314:	f9400bf3 	ldr	x19, [sp, #16]
    44003318:	a8c27bfd 	ldp	x29, x30, [sp], #32
    4400331c:	d65f03c0 	ret

0000000044003320 <plat_setup_psci_ops>:
    44003320:	d0000023 	adrp	x3, 44009000 <__STACKS_START__+0x1f80>
    44003324:	d0000002 	adrp	x2, 44005000 <init_cpu_data_ptr+0xc>
    44003328:	911d8042 	add	x2, x2, #0x760
    4400332c:	f903e860 	str	x0, [x3, #2000]
    44003330:	52800000 	mov	w0, #0x0                   	// #0
    44003334:	f9000022 	str	x2, [x1]
    44003338:	d65f03c0 	ret
    4400333c:	00000000 	.inst	0x00000000 ; undefined

0000000044003340 <plat_tzc400_setup>:
    44003340:	a9bb7bfd 	stp	x29, x30, [sp, #-80]!
    44003344:	910003fd 	mov	x29, sp
    44003348:	a90153f3 	stp	x19, x20, [sp, #16]
    4400334c:	aa0103f3 	mov	x19, x1
    44003350:	aa0003f4 	mov	x20, x0
    44003354:	a903ffff 	stp	xzr, xzr, [sp, #56]
    44003358:	f90027ff 	str	xzr, [sp, #72]
    4400335c:	97fff68b 	bl	44000d88 <tzc400_init>
    44003360:	97fff6d6 	bl	44000eb8 <tzc400_disable_filters>
    44003364:	32008fe1 	mov	w1, #0xf000f               	// #983055
    44003368:	52800060 	mov	w0, #0x3                   	// #3
    4400336c:	97fff695 	bl	44000dc0 <tzc400_configure_region0>
    44003370:	b4000353 	cbz	x19, 440033d8 <plat_tzc400_setup+0x98>
    44003374:	f9400262 	ldr	x2, [x19]
    44003378:	f90013f5 	str	x21, [sp, #32]
    4400337c:	b9400295 	ldr	w21, [x20]
    44003380:	d35866b5 	ubfx	x21, x21, #24, #2
    44003384:	110006a0 	add	w0, w21, #0x1
    44003388:	b40001c2 	cbz	x2, 440033c0 <plat_tzc400_setup+0x80>
    4400338c:	52800035 	mov	w21, #0x1                   	// #1
    44003390:	2a1503f4 	mov	w20, w21
    44003394:	1ac022b5 	lsl	w21, w21, w0
    44003398:	510006b5 	sub	w21, w21, #0x1
    4400339c:	d503201f 	nop
    440033a0:	29421664 	ldp	w4, w5, [x19, #16]
    440033a4:	2a1403e1 	mov	w1, w20
    440033a8:	f9400663 	ldr	x3, [x19, #8]
    440033ac:	2a1503e0 	mov	w0, w21
    440033b0:	11000694 	add	w20, w20, #0x1
    440033b4:	97fff689 	bl	44000dd8 <tzc400_configure_region>
    440033b8:	f8418e62 	ldr	x2, [x19, #24]!
    440033bc:	b5ffff22 	cbnz	x2, 440033a0 <plat_tzc400_setup+0x60>
    440033c0:	52800020 	mov	w0, #0x1                   	// #1
    440033c4:	f94013f5 	ldr	x21, [sp, #32]
    440033c8:	97fff66c 	bl	44000d78 <tzc400_set_action>
    440033cc:	a94153f3 	ldp	x19, x20, [sp, #16]
    440033d0:	a8c57bfd 	ldp	x29, x30, [sp], #80
    440033d4:	17fff697 	b	44000e30 <tzc400_enable_filters>
    440033d8:	b9400280 	ldr	w0, [x20]
    440033dc:	52800020 	mov	w0, #0x1                   	// #1
    440033e0:	97fff666 	bl	44000d78 <tzc400_set_action>
    440033e4:	a94153f3 	ldp	x19, x20, [sp, #16]
    440033e8:	a8c57bfd 	ldp	x29, x30, [sp], #80
    440033ec:	17fff691 	b	44000e30 <tzc400_enable_filters>

00000000440033f0 <plat_security_setup>:
    440033f0:	a9bc7bfd 	stp	x29, x30, [sp, #-64]!
    440033f4:	d2a220a0 	mov	x0, #0x11050000            	// #285540352
    440033f8:	910003fd 	mov	x29, sp
    440033fc:	910043e1 	add	x1, sp, #0x10
    44003400:	a9017fff 	stp	xzr, xzr, [sp, #16]
    44003404:	a9027fff 	stp	xzr, xzr, [sp, #32]
    44003408:	a9037fff 	stp	xzr, xzr, [sp, #48]
    4400340c:	97ffffcd 	bl	44003340 <plat_tzc400_setup>
    44003410:	9100a3e1 	add	x1, sp, #0x28
    44003414:	d2a22080 	mov	x0, #0x11040000            	// #285474816
    44003418:	97ffffca 	bl	44003340 <plat_tzc400_setup>
    4400341c:	a8c47bfd 	ldp	x29, x30, [sp], #64
    44003420:	d65f03c0 	ret
    44003424:	00000000 	.inst	0x00000000 ; undefined

0000000044003428 <plat_get_power_domain_tree_desc>:
    44003428:	d0000000 	adrp	x0, 44005000 <init_cpu_data_ptr+0xc>
    4400342c:	9120e000 	add	x0, x0, #0x838
    44003430:	d65f03c0 	ret
    44003434:	00000000 	.inst	0x00000000 ; undefined

0000000044003438 <plat_core_pos_by_mpidr>:
    44003438:	d348fc02 	lsr	x2, x0, #8
    4400343c:	53105c01 	ubfx	w1, w0, #16, #8
    44003440:	121f1843 	and	w3, w2, #0xfe
    44003444:	12001c40 	and	w0, w2, #0xff
    44003448:	2a030021 	orr	w1, w1, w3
    4400344c:	7100003f 	cmp	w1, #0x0
    44003450:	5a9f0000 	csinv	w0, w0, wzr, eq  // eq = none
    44003454:	d65f03c0 	ret

0000000044003458 <rz_plat_sip_handler>:
    44003458:	52800201 	mov	w1, #0x10                  	// #16
    4400345c:	72b04001 	movk	w1, #0x8200, lsl #16
    44003460:	6b01001f 	cmp	w0, w1
    44003464:	540003a0 	b.eq	440034d8 <rz_plat_sip_handler+0x80>  // b.none
    44003468:	11000421 	add	w1, w1, #0x1
    4400346c:	6b01001f 	cmp	w0, w1
    44003470:	540002c1 	b.ne	440034c8 <rz_plat_sip_handler+0x70>  // b.any
    44003474:	370002a7 	tbnz	w7, #0, 440034c8 <rz_plat_sip_handler+0x70>
    44003478:	d2822803 	mov	x3, #0x1140                	// #4416
    4400347c:	d2822882 	mov	x2, #0x1144                	// #4420
    44003480:	d2822901 	mov	x1, #0x1148                	// #4424
    44003484:	d2822980 	mov	x0, #0x114c                	// #4428
    44003488:	f2a230c3 	movk	x3, #0x1186, lsl #16
    4400348c:	f2a230c2 	movk	x2, #0x1186, lsl #16
    44003490:	f2a230c1 	movk	x1, #0x1186, lsl #16
    44003494:	f2a230c0 	movk	x0, #0x1186, lsl #16
    44003498:	b9400063 	ldr	w3, [x3]
    4400349c:	b9400042 	ldr	w2, [x2]
    440034a0:	b9400021 	ldr	w1, [x1]
    440034a4:	b9400000 	ldr	w0, [x0]
    440034a8:	2a0303e3 	mov	w3, w3
    440034ac:	2a0203e2 	mov	w2, w2
    440034b0:	a90008c3 	stp	x3, x2, [x6]
    440034b4:	2a0103e1 	mov	w1, w1
    440034b8:	2a0003e0 	mov	w0, w0
    440034bc:	a90100c1 	stp	x1, x0, [x6, #16]
    440034c0:	aa0603e0 	mov	x0, x6
    440034c4:	d65f03c0 	ret
    440034c8:	92800000 	mov	x0, #0xffffffffffffffff    	// #-1
    440034cc:	f90000c0 	str	x0, [x6]
    440034d0:	aa0603e0 	mov	x0, x6
    440034d4:	d65f03c0 	ret
    440034d8:	d2822f01 	mov	x1, #0x1178                	// #4472
    440034dc:	d2814080 	mov	x0, #0xa04                 	// #2564
    440034e0:	f2a230c1 	movk	x1, #0x1186, lsl #16
    440034e4:	f2a22040 	movk	x0, #0x1102, lsl #16
    440034e8:	b9400021 	ldr	w1, [x1]
    440034ec:	b9400000 	ldr	w0, [x0]
    440034f0:	2a0103e1 	mov	w1, w1
    440034f4:	2a0003e0 	mov	w0, w0
    440034f8:	a90000c1 	stp	x1, x0, [x6]
    440034fc:	aa0603e0 	mov	x0, x6
    44003500:	d65f03c0 	ret
    44003504:	00000000 	.inst	0x00000000 ; undefined

0000000044003508 <rz_sip_handler>:
    44003508:	17ffffd4 	b	44003458 <rz_plat_sip_handler>
    4400350c:	00000000 	.inst	0x00000000 ; undefined

0000000044003510 <arm_arch_svc_smc_handler>:
    44003510:	a9be7bfd 	stp	x29, x30, [sp, #-32]!
    44003514:	52800042 	mov	w2, #0x2                   	// #2
    44003518:	72b00002 	movk	w2, #0x8000, lsl #16
    4400351c:	910003fd 	mov	x29, sp
    44003520:	6b02001f 	cmp	w0, w2
    44003524:	54000500 	b.eq	440035c4 <arm_arch_svc_smc_handler+0xb4>  // b.none
    44003528:	540001a9 	b.ls	4400355c <arm_arch_svc_smc_handler+0x4c>  // b.plast
    4400352c:	32013be1 	mov	w1, #0x80003fff            	// #-2147467265
    44003530:	6b01001f 	cmp	w0, w1
    44003534:	540000e0 	b.eq	44003550 <arm_arch_svc_smc_handler+0x40>  // b.none
    44003538:	54000663 	b.cc	44003604 <arm_arch_svc_smc_handler+0xf4>  // b.lo, b.ul, b.last
    4400353c:	52900021 	mov	w1, #0x8001                	// #32769
    44003540:	72afffe1 	movk	w1, #0x7fff, lsl #16
    44003544:	0b010000 	add	w0, w0, w1
    44003548:	7100041f 	cmp	w0, #0x1
    4400354c:	540005c8 	b.hi	44003604 <arm_arch_svc_smc_handler+0xf4>  // b.pmore
    44003550:	aa0603e0 	mov	x0, x6
    44003554:	a8c27bfd 	ldp	x29, x30, [sp], #32
    44003558:	d65f03c0 	ret
    4400355c:	52b00002 	mov	w2, #0x80000000            	// #-2147483648
    44003560:	6b02001f 	cmp	w0, w2
    44003564:	54000560 	b.eq	44003610 <arm_arch_svc_smc_handler+0x100>  // b.none
    44003568:	320107e2 	mov	w2, #0x80000001            	// #-2147483647
    4400356c:	6b02001f 	cmp	w0, w2
    44003570:	540004a1 	b.ne	44003604 <arm_arch_svc_smc_handler+0xf4>  // b.any
    44003574:	d2800040 	mov	x0, #0x2                   	// #2
    44003578:	f2b00000 	movk	x0, #0x8000, lsl #16
    4400357c:	eb00003f 	cmp	x1, x0
    44003580:	540006a0 	b.eq	44003654 <arm_arch_svc_smc_handler+0x144>  // b.none
    44003584:	54000369 	b.ls	440035f0 <arm_arch_svc_smc_handler+0xe0>  // b.plast
    44003588:	32013fe0 	mov	w0, #0x80007fff            	// #-2147450881
    4400358c:	92800022 	mov	x2, #0xfffffffffffffffe    	// #-2
    44003590:	eb00003f 	cmp	x1, x0
    44003594:	54000100 	b.eq	440035b4 <arm_arch_svc_smc_handler+0xa4>  // b.none
    44003598:	320183e0 	mov	w0, #0x80008000            	// #-2147450880
    4400359c:	eb00003f 	cmp	x1, x0
    440035a0:	54000680 	b.eq	44003670 <arm_arch_svc_smc_handler+0x160>  // b.none
    440035a4:	32013be0 	mov	w0, #0x80003fff            	// #-2147467265
    440035a8:	92800002 	mov	x2, #0xffffffffffffffff    	// #-1
    440035ac:	eb00003f 	cmp	x1, x0
    440035b0:	540003c0 	b.eq	44003628 <arm_arch_svc_smc_handler+0x118>  // b.none
    440035b4:	f90000c2 	str	x2, [x6]
    440035b8:	aa0603e0 	mov	x0, x6
    440035bc:	a8c27bfd 	ldp	x29, x30, [sp], #32
    440035c0:	d65f03c0 	ret
    440035c4:	f100043f 	cmp	x1, #0x1
    440035c8:	54000620 	b.eq	4400368c <arm_arch_svc_smc_handler+0x17c>  // b.none
    440035cc:	b50006c1 	cbnz	x1, 440036a4 <arm_arch_svc_smc_handler+0x194>
    440035d0:	f9000fe6 	str	x6, [sp, #24]
    440035d4:	94000109 	bl	440039f8 <plat_get_soc_version>
    440035d8:	f9400fe6 	ldr	x6, [sp, #24]
    440035dc:	93407c00 	sxtw	x0, w0
    440035e0:	f90000c0 	str	x0, [x6]
    440035e4:	aa0603e0 	mov	x0, x6
    440035e8:	a8c27bfd 	ldp	x29, x30, [sp], #32
    440035ec:	d65f03c0 	ret
    440035f0:	d2b00000 	mov	x0, #0x80000000            	// #2147483648
    440035f4:	eb00003f 	cmp	x1, x0
    440035f8:	da9f23e2 	csetm	x2, cc  // cc = lo, ul, last
    440035fc:	f90000c2 	str	x2, [x6]
    44003600:	17ffffee 	b	440035b8 <arm_arch_svc_smc_handler+0xa8>
    44003604:	92800000 	mov	x0, #0xffffffffffffffff    	// #-1
    44003608:	f90000c0 	str	x0, [x6]
    4400360c:	17fffff6 	b	440035e4 <arm_arch_svc_smc_handler+0xd4>
    44003610:	d2800040 	mov	x0, #0x2                   	// #2
    44003614:	f2a00020 	movk	x0, #0x1, lsl #16
    44003618:	f90000c0 	str	x0, [x6]
    4400361c:	aa0603e0 	mov	x0, x6
    44003620:	a8c27bfd 	ldp	x29, x30, [sp], #32
    44003624:	d65f03c0 	ret
    44003628:	f9000fe6 	str	x6, [sp, #24]
    4400362c:	940005e0 	bl	44004dac <check_smccc_arch_wa3_applies>
    44003630:	d2800002 	mov	x2, #0x0                   	// #0
    44003634:	f9400fe6 	ldr	x6, [sp, #24]
    44003638:	35fffbe0 	cbnz	w0, 440035b4 <arm_arch_svc_smc_handler+0xa4>
    4400363c:	940005d4 	bl	44004d8c <check_wa_cve_2017_5715>
    44003640:	7100001f 	cmp	w0, #0x0
    44003644:	f9400fe6 	ldr	x6, [sp, #24]
    44003648:	9a9f17e2 	cset	x2, eq  // eq = none
    4400364c:	f90000c2 	str	x2, [x6]
    44003650:	17ffffda 	b	440035b8 <arm_arch_svc_smc_handler+0xa8>
    44003654:	aa0103e0 	mov	x0, x1
    44003658:	f9000fe6 	str	x6, [sp, #24]
    4400365c:	940000eb 	bl	44003a08 <plat_is_smccc_feature_available>
    44003660:	93407c02 	sxtw	x2, w0
    44003664:	f9400fe6 	ldr	x6, [sp, #24]
    44003668:	f90000c2 	str	x2, [x6]
    4400366c:	17ffffd3 	b	440035b8 <arm_arch_svc_smc_handler+0xa8>
    44003670:	f9000fe6 	str	x6, [sp, #24]
    44003674:	940005c6 	bl	44004d8c <check_wa_cve_2017_5715>
    44003678:	f9400fe6 	ldr	x6, [sp, #24]
    4400367c:	7100001f 	cmp	w0, #0x0
    44003680:	9a9f17e2 	cset	x2, eq  // eq = none
    44003684:	f90000c2 	str	x2, [x6]
    44003688:	17ffffcc 	b	440035b8 <arm_arch_svc_smc_handler+0xa8>
    4400368c:	f9000fe6 	str	x6, [sp, #24]
    44003690:	940000dc 	bl	44003a00 <plat_get_soc_revision>
    44003694:	f9400fe6 	ldr	x6, [sp, #24]
    44003698:	93407c00 	sxtw	x0, w0
    4400369c:	f90000c0 	str	x0, [x6]
    440036a0:	17ffffd1 	b	440035e4 <arm_arch_svc_smc_handler+0xd4>
    440036a4:	92800040 	mov	x0, #0xfffffffffffffffd    	// #-3
    440036a8:	f90000c0 	str	x0, [x6]
    440036ac:	17ffffce 	b	440035e4 <arm_arch_svc_smc_handler+0xd4>

00000000440036b0 <std_svc_setup>:
    440036b0:	a9bf7bfd 	stp	x29, x30, [sp, #-16]!
    440036b4:	529ffc00 	mov	w0, #0xffe0                	// #65504
    440036b8:	910003fd 	mov	x29, sp
    440036bc:	97fff2d9 	bl	44000220 <get_arm_std_svc_args>
    440036c0:	97fffc3e 	bl	440027b8 <psci_setup>
    440036c4:	7100001f 	cmp	w0, #0x0
    440036c8:	1a9f07e0 	cset	w0, ne  // ne = any
    440036cc:	a8c17bfd 	ldp	x29, x30, [sp], #16
    440036d0:	d65f03c0 	ret
    440036d4:	00000000 	.inst	0x00000000 ; undefined

00000000440036d8 <std_svc_smc_handler>:
    440036d8:	a9be7bfd 	stp	x29, x30, [sp, #-32]!
    440036dc:	910003fd 	mov	x29, sp
    440036e0:	f9000bf3 	str	x19, [sp, #16]
    440036e4:	aa0603f3 	mov	x19, x6
    440036e8:	37f000a0 	tbnz	w0, #30, 440036fc <std_svc_smc_handler+0x24>
    440036ec:	92407c21 	and	x1, x1, #0xffffffff
    440036f0:	92407c42 	and	x2, x2, #0xffffffff
    440036f4:	92407c63 	and	x3, x3, #0xffffffff
    440036f8:	92407c84 	and	x4, x4, #0xffffffff
    440036fc:	721b281f 	tst	w0, #0xffe0
    44003700:	54000240 	b.eq	44003748 <std_svc_smc_handler+0x70>  // b.none
    44003704:	529fe021 	mov	w1, #0xff01                	// #65281
    44003708:	72b08001 	movk	w1, #0x8400, lsl #16
    4400370c:	6b01001f 	cmp	w0, w1
    44003710:	54000360 	b.eq	4400377c <std_svc_smc_handler+0xa4>  // b.none
    44003714:	11000821 	add	w1, w1, #0x2
    44003718:	6b01001f 	cmp	w0, w1
    4400371c:	54000240 	b.eq	44003764 <std_svc_smc_handler+0x8c>  // b.none
    44003720:	529fe001 	mov	w1, #0xff00                	// #65280
    44003724:	72b08001 	movk	w1, #0x8400, lsl #16
    44003728:	6b01001f 	cmp	w0, w1
    4400372c:	d2800240 	mov	x0, #0x12                  	// #18
    44003730:	da9f0000 	csinv	x0, x0, xzr, eq  // eq = none
    44003734:	f9000260 	str	x0, [x19]
    44003738:	aa1303e0 	mov	x0, x19
    4400373c:	f9400bf3 	ldr	x19, [sp, #16]
    44003740:	a8c27bfd 	ldp	x29, x30, [sp], #32
    44003744:	d65f03c0 	ret
    44003748:	aa1303e6 	mov	x6, x19
    4400374c:	97fffa45 	bl	44002060 <psci_smc_handler>
    44003750:	f9000260 	str	x0, [x19]
    44003754:	aa1303e0 	mov	x0, x19
    44003758:	f9400bf3 	ldr	x19, [sp, #16]
    4400375c:	a8c27bfd 	ldp	x29, x30, [sp], #32
    44003760:	d65f03c0 	ret
    44003764:	d2800020 	mov	x0, #0x1                   	// #1
    44003768:	a900027f 	stp	xzr, x0, [x19]
    4400376c:	aa1303e0 	mov	x0, x19
    44003770:	f9400bf3 	ldr	x19, [sp, #16]
    44003774:	a8c27bfd 	ldp	x29, x30, [sp], #32
    44003778:	d65f03c0 	ret
    4400377c:	d2882ac0 	mov	x0, #0x4156                	// #16726
    44003780:	d285b5c1 	mov	x1, #0x2dae                	// #11694
    44003784:	d29f0c62 	mov	x2, #0xf863                	// #63587
    44003788:	d2920b63 	mov	x3, #0x905b                	// #36955
    4400378c:	f2bc5ec0 	movk	x0, #0xe2f6, lsl #16
    44003790:	f2bf7801 	movk	x1, #0xfbc0, lsl #16
    44003794:	f2a8fd02 	movk	x2, #0x47e8, lsl #16
    44003798:	f2a211a3 	movk	x3, #0x108d, lsl #16
    4400379c:	a9000a63 	stp	x3, x2, [x19]
    440037a0:	a9010261 	stp	x1, x0, [x19, #16]
    440037a4:	aa1303e0 	mov	x0, x19
    440037a8:	f9400bf3 	ldr	x19, [sp, #16]
    440037ac:	a8c27bfd 	ldp	x29, x30, [sp], #32
    440037b0:	d65f03c0 	ret
    440037b4:	00000000 	.inst	0x00000000 ; undefined

00000000440037b8 <print_entry_point_info>:
    440037b8:	d65f03c0 	ret
    440037bc:	00000000 	.inst	0x00000000 ; undefined

00000000440037c0 <tf_log>:
    440037c0:	a9b67bfd 	stp	x29, x30, [sp, #-160]!
    440037c4:	90000028 	adrp	x8, 44007000 <__RO_END__>
    440037c8:	910003fd 	mov	x29, sp
    440037cc:	f90037e1 	str	x1, [sp, #104]
    440037d0:	b9406508 	ldr	w8, [x8, #100]
    440037d4:	39400001 	ldrb	w1, [x0]
    440037d8:	a9070fe2 	stp	x2, x3, [sp, #112]
    440037dc:	6b01011f 	cmp	w8, w1
    440037e0:	a90817e4 	stp	x4, x5, [sp, #128]
    440037e4:	a9091fe6 	stp	x6, x7, [sp, #144]
    440037e8:	54000062 	b.cs	440037f4 <tf_log+0x34>  // b.hs, b.nlast
    440037ec:	a8ca7bfd 	ldp	x29, x30, [sp], #160
    440037f0:	d65f03c0 	ret
    440037f4:	a90153f3 	stp	x19, x20, [sp, #16]
    440037f8:	aa0003f4 	mov	x20, x0
    440037fc:	2a0103e0 	mov	w0, w1
    44003800:	9400008e 	bl	44003a38 <plat_log_get_prefix>
    44003804:	aa0003f3 	mov	x19, x0
    44003808:	39400000 	ldrb	w0, [x0]
    4400380c:	34000080 	cbz	w0, 4400381c <tf_log+0x5c>
    44003810:	940004b4 	bl	44004ae0 <putchar>
    44003814:	38401e60 	ldrb	w0, [x19, #1]!
    44003818:	35ffffc0 	cbnz	w0, 44003810 <tf_log+0x50>
    4400381c:	910283e0 	add	x0, sp, #0xa0
    44003820:	910283e1 	add	x1, sp, #0xa0
    44003824:	a90407e0 	stp	x0, x1, [sp, #64]
    44003828:	910183e3 	add	x3, sp, #0x60
    4400382c:	128006e2 	mov	w2, #0xffffffc8            	// #-56
    44003830:	f9002be3 	str	x3, [sp, #80]
    44003834:	910083e1 	add	x1, sp, #0x20
    44003838:	290b7fe2 	stp	w2, wzr, [sp, #88]
    4400383c:	91000680 	add	x0, x20, #0x1
    44003840:	a9440fe2 	ldp	x2, x3, [sp, #64]
    44003844:	a9020fe2 	stp	x2, x3, [sp, #32]
    44003848:	a9450fe2 	ldp	x2, x3, [sp, #80]
    4400384c:	a9030fe2 	stp	x2, x3, [sp, #48]
    44003850:	9400035e 	bl	440045c8 <vprintf>
    44003854:	a94153f3 	ldp	x19, x20, [sp, #16]
    44003858:	a8ca7bfd 	ldp	x29, x30, [sp], #160
    4400385c:	d65f03c0 	ret

0000000044003860 <tf_log_newline>:
    44003860:	90000021 	adrp	x1, 44007000 <__RO_END__>
    44003864:	39400000 	ldrb	w0, [x0]
    44003868:	b9406421 	ldr	w1, [x1, #100]
    4400386c:	6b00003f 	cmp	w1, w0
    44003870:	54000042 	b.cs	44003878 <tf_log_newline+0x18>  // b.hs, b.nlast
    44003874:	d65f03c0 	ret
    44003878:	52800140 	mov	w0, #0xa                   	// #10
    4400387c:	14000499 	b	44004ae0 <putchar>

0000000044003880 <console_register>:
    44003880:	d0000023 	adrp	x3, 44009000 <__STACKS_START__+0x1f80>
    44003884:	f943ec62 	ldr	x2, [x3, #2008]
    44003888:	b4000122 	cbz	x2, 440038ac <console_register+0x2c>
    4400388c:	eb02001f 	cmp	x0, x2
    44003890:	54000120 	b.eq	440038b4 <console_register+0x34>  // b.none
    44003894:	aa0203e1 	mov	x1, x2
    44003898:	14000002 	b	440038a0 <console_register+0x20>
    4400389c:	540000c0 	b.eq	440038b4 <console_register+0x34>  // b.none
    440038a0:	f9400021 	ldr	x1, [x1]
    440038a4:	eb01001f 	cmp	x0, x1
    440038a8:	b5ffffa1 	cbnz	x1, 4400389c <console_register+0x1c>
    440038ac:	f9000002 	str	x2, [x0]
    440038b0:	f903ec60 	str	x0, [x3, #2008]
    440038b4:	52800020 	mov	w0, #0x1                   	// #1
    440038b8:	d65f03c0 	ret
    440038bc:	00000000 	.inst	0x00000000 ; undefined

00000000440038c0 <console_switch_state>:
    440038c0:	90000021 	adrp	x1, 44007000 <__RO_END__>
    440038c4:	3901a020 	strb	w0, [x1, #104]
    440038c8:	d65f03c0 	ret
    440038cc:	00000000 	.inst	0x00000000 ; undefined

00000000440038d0 <console_set_scope>:
    440038d0:	f9400402 	ldr	x2, [x0, #8]
    440038d4:	2a0103e1 	mov	w1, w1
    440038d8:	92785c42 	and	x2, x2, #0xffffff00
    440038dc:	aa010042 	orr	x2, x2, x1
    440038e0:	f9000402 	str	x2, [x0, #8]
    440038e4:	d65f03c0 	ret

00000000440038e8 <console_putc>:
    440038e8:	a9bd7bfd 	stp	x29, x30, [sp, #-48]!
    440038ec:	d0000021 	adrp	x1, 44009000 <__STACKS_START__+0x1f80>
    440038f0:	910003fd 	mov	x29, sp
    440038f4:	a90153f3 	stp	x19, x20, [sp, #16]
    440038f8:	f943ec33 	ldr	x19, [x1, #2008]
    440038fc:	a9025bf5 	stp	x21, x22, [sp, #32]
    44003900:	b4000453 	cbz	x19, 44003988 <console_putc+0xa0>
    44003904:	90000034 	adrp	x20, 44007000 <__RO_END__>
    44003908:	2a0003f6 	mov	w22, w0
    4400390c:	9101a294 	add	x20, x20, #0x68
    44003910:	12800ff5 	mov	w21, #0xffffff80            	// #-128
    44003914:	d503201f 	nop
    44003918:	f9400661 	ldr	x1, [x19, #8]
    4400391c:	39400282 	ldrb	w2, [x20]
    44003920:	ea01005f 	tst	x2, x1
    44003924:	54000160 	b.eq	44003950 <console_putc+0x68>  // b.none
    44003928:	f9400a62 	ldr	x2, [x19, #16]
    4400392c:	71002adf 	cmp	w22, #0xa
    44003930:	b4000102 	cbz	x2, 44003950 <console_putc+0x68>
    44003934:	540001c0 	b.eq	4400396c <console_putc+0x84>  // b.none
    44003938:	aa1303e1 	mov	x1, x19
    4400393c:	2a1603e0 	mov	w0, w22
    44003940:	d63f0040 	blr	x2
    44003944:	310202bf 	cmn	w21, #0x80
    44003948:	7a551001 	ccmp	w0, w21, #0x1, ne  // ne = any
    4400394c:	1a80a2b5 	csel	w21, w21, w0, ge  // ge = tcont
    44003950:	f9400273 	ldr	x19, [x19]
    44003954:	b5fffe33 	cbnz	x19, 44003918 <console_putc+0x30>
    44003958:	2a1503e0 	mov	w0, w21
    4400395c:	a94153f3 	ldp	x19, x20, [sp, #16]
    44003960:	a9425bf5 	ldp	x21, x22, [sp, #32]
    44003964:	a8c37bfd 	ldp	x29, x30, [sp], #48
    44003968:	d65f03c0 	ret
    4400396c:	3647fe61 	tbz	w1, #8, 44003938 <console_putc+0x50>
    44003970:	aa1303e1 	mov	x1, x19
    44003974:	528001a0 	mov	w0, #0xd                   	// #13
    44003978:	d63f0040 	blr	x2
    4400397c:	37fffe40 	tbnz	w0, #31, 44003944 <console_putc+0x5c>
    44003980:	f9400a62 	ldr	x2, [x19, #16]
    44003984:	17ffffed 	b	44003938 <console_putc+0x50>
    44003988:	12800ff5 	mov	w21, #0xffffff80            	// #-128
    4400398c:	2a1503e0 	mov	w0, w21
    44003990:	a94153f3 	ldp	x19, x20, [sp, #16]
    44003994:	a9425bf5 	ldp	x21, x22, [sp, #32]
    44003998:	a8c37bfd 	ldp	x29, x30, [sp], #48
    4400399c:	d65f03c0 	ret

00000000440039a0 <console_flush>:
    440039a0:	a9be7bfd 	stp	x29, x30, [sp, #-32]!
    440039a4:	d0000020 	adrp	x0, 44009000 <__STACKS_START__+0x1f80>
    440039a8:	910003fd 	mov	x29, sp
    440039ac:	a90153f3 	stp	x19, x20, [sp, #16]
    440039b0:	f943ec13 	ldr	x19, [x0, #2008]
    440039b4:	b40001b3 	cbz	x19, 440039e8 <console_flush+0x48>
    440039b8:	90000034 	adrp	x20, 44007000 <__RO_END__>
    440039bc:	9101a294 	add	x20, x20, #0x68
    440039c0:	f9400660 	ldr	x0, [x19, #8]
    440039c4:	39400281 	ldrb	w1, [x20]
    440039c8:	ea00003f 	tst	x1, x0
    440039cc:	540000a0 	b.eq	440039e0 <console_flush+0x40>  // b.none
    440039d0:	f9401261 	ldr	x1, [x19, #32]
    440039d4:	aa1303e0 	mov	x0, x19
    440039d8:	b4000041 	cbz	x1, 440039e0 <console_flush+0x40>
    440039dc:	d63f0020 	blr	x1
    440039e0:	f9400273 	ldr	x19, [x19]
    440039e4:	b5fffef3 	cbnz	x19, 440039c0 <console_flush+0x20>
    440039e8:	a94153f3 	ldp	x19, x20, [sp, #16]
    440039ec:	a8c27bfd 	ldp	x29, x30, [sp], #32
    440039f0:	d65f03c0 	ret
    440039f4:	00000000 	.inst	0x00000000 ; undefined

00000000440039f8 <plat_get_soc_version>:
    440039f8:	12800000 	mov	w0, #0xffffffff            	// #-1
    440039fc:	d65f03c0 	ret

0000000044003a00 <plat_get_soc_revision>:
    44003a00:	12800000 	mov	w0, #0xffffffff            	// #-1
    44003a04:	d65f03c0 	ret

0000000044003a08 <plat_is_smccc_feature_available>:
    44003a08:	12800000 	mov	w0, #0xffffffff            	// #-1
    44003a0c:	d65f03c0 	ret

0000000044003a10 <setup_page_tables>:
    44003a10:	a9be7bfd 	stp	x29, x30, [sp, #-32]!
    44003a14:	910003fd 	mov	x29, sp
    44003a18:	f9000bf3 	str	x19, [sp, #16]
    44003a1c:	aa0103f3 	mov	x19, x1
    44003a20:	9400007a 	bl	44003c08 <mmap_add>
    44003a24:	aa1303e0 	mov	x0, x19
    44003a28:	94000078 	bl	44003c08 <mmap_add>
    44003a2c:	f9400bf3 	ldr	x19, [sp, #16]
    44003a30:	a8c27bfd 	ldp	x29, x30, [sp], #32
    44003a34:	14000079 	b	44003c18 <init_xlat_tables>

0000000044003a38 <plat_log_get_prefix>:
    44003a38:	52800641 	mov	w1, #0x32                  	// #50
    44003a3c:	6b01001f 	cmp	w0, w1
    44003a40:	1a819000 	csel	w0, w0, w1, ls  // ls = plast
    44003a44:	52800143 	mov	w3, #0xa                   	// #10
    44003a48:	6b03001f 	cmp	w0, w3
    44003a4c:	529999a2 	mov	w2, #0xcccd                	// #52429
    44003a50:	1a832000 	csel	w0, w0, w3, cs  // cs = hs, nlast
    44003a54:	72b99982 	movk	w2, #0xcccc, lsl #16
    44003a58:	d0000001 	adrp	x1, 44005000 <init_cpu_data_ptr+0xc>
    44003a5c:	9121a021 	add	x1, x1, #0x868
    44003a60:	9ba27c00 	umull	x0, w0, w2
    44003a64:	d363fc00 	lsr	x0, x0, #35
    44003a68:	51000400 	sub	w0, w0, #0x1
    44003a6c:	f8607820 	ldr	x0, [x1, x0, lsl #3]
    44003a70:	d65f03c0 	ret
    44003a74:	00000000 	.inst	0x00000000 ; undefined

0000000044003a78 <bl31_plat_runtime_setup>:
    44003a78:	52800040 	mov	w0, #0x2                   	// #2
    44003a7c:	17ffff91 	b	440038c0 <console_switch_state>

0000000044003a80 <plat_default_ea_handler>:
    44003a80:	a9bd7bfd 	stp	x29, x30, [sp, #-48]!
    44003a84:	910003fd 	mov	x29, sp
    44003a88:	a90153f3 	stp	x19, x20, [sp, #16]
    44003a8c:	2a0003f4 	mov	w20, w0
    44003a90:	f90013f5 	str	x21, [sp, #32]
    44003a94:	aa0103f5 	mov	x21, x1
    44003a98:	d53e4013 	mrs	x19, spsr_el3
    44003a9c:	d0000000 	adrp	x0, 44005000 <init_cpu_data_ptr+0xc>
    44003aa0:	53020e73 	ubfx	w19, w19, #2, #2
    44003aa4:	91174000 	add	x0, x0, #0x5d0
    44003aa8:	97ffff6e 	bl	44003860 <tf_log_newline>
    44003aac:	d53800a1 	mrs	x1, mpidr_el1
    44003ab0:	71000e7f 	cmp	w19, #0x3
    44003ab4:	54000220 	b.eq	44003af8 <plat_default_ea_handler+0x78>  // b.none
    44003ab8:	71000a7f 	cmp	w19, #0x2
    44003abc:	d0000000 	adrp	x0, 44005000 <init_cpu_data_ptr+0xc>
    44003ac0:	d0000002 	adrp	x2, 44005000 <init_cpu_data_ptr+0xc>
    44003ac4:	9123c000 	add	x0, x0, #0x8f0
    44003ac8:	9123a042 	add	x2, x2, #0x8e8
    44003acc:	9a801042 	csel	x2, x2, x0, ne  // ne = any
    44003ad0:	d0000000 	adrp	x0, 44005000 <init_cpu_data_ptr+0xc>
    44003ad4:	9123e000 	add	x0, x0, #0x8f8
    44003ad8:	97ffff3a 	bl	440037c0 <tf_log>
    44003adc:	aa1503e2 	mov	x2, x21
    44003ae0:	2a1403e1 	mov	w1, w20
    44003ae4:	d0000000 	adrp	x0, 44005000 <init_cpu_data_ptr+0xc>
    44003ae8:	9124c000 	add	x0, x0, #0x930
    44003aec:	97ffff35 	bl	440037c0 <tf_log>
    44003af0:	97ffffac 	bl	440039a0 <console_flush>
    44003af4:	94000580 	bl	440050f4 <do_panic>
    44003af8:	d0000002 	adrp	x2, 44005000 <init_cpu_data_ptr+0xc>
    44003afc:	91238042 	add	x2, x2, #0x8e0
    44003b00:	17fffff4 	b	44003ad0 <plat_default_ea_handler+0x50>
    44003b04:	00000000 	.inst	0x00000000 ; undefined

0000000044003b08 <xlat_arch_get_pas>:
    44003b08:	121c0400 	and	w0, w0, #0x30
    44003b0c:	7100401f 	cmp	w0, #0x10
    44003b10:	1a9f17e0 	cset	w0, eq  // eq = none
    44003b14:	531b6800 	lsl	w0, w0, #5
    44003b18:	d65f03c0 	ret
    44003b1c:	00000000 	.inst	0x00000000 ; undefined

0000000044003b20 <tcr_physical_addr_size_bits>:
    44003b20:	d28000a1 	mov	x1, #0x5                   	// #5
    44003b24:	f2540c1f 	tst	x0, #0xf00000000000
    44003b28:	54000181 	b.ne	44003b58 <tcr_physical_addr_size_bits+0x38>  // b.any
    44003b2c:	f256041f 	tst	x0, #0xc0000000000
    44003b30:	d2800081 	mov	x1, #0x4                   	// #4
    44003b34:	54000121 	b.ne	44003b58 <tcr_physical_addr_size_bits+0x38>  // b.any
    44003b38:	f258041f 	tst	x0, #0x30000000000
    44003b3c:	d2800061 	mov	x1, #0x3                   	// #3
    44003b40:	540000c1 	b.ne	44003b58 <tcr_physical_addr_size_bits+0x38>  // b.any
    44003b44:	f25c0c1f 	tst	x0, #0xf000000000
    44003b48:	d2800041 	mov	x1, #0x2                   	// #2
    44003b4c:	54000061 	b.ne	44003b58 <tcr_physical_addr_size_bits+0x38>  // b.any
    44003b50:	f2600c1f 	tst	x0, #0xf00000000
    44003b54:	9a9f07e1 	cset	x1, ne  // ne = any
    44003b58:	aa0103e0 	mov	x0, x1
    44003b5c:	d65f03c0 	ret

0000000044003b60 <xlat_arch_regime_get_xn_desc>:
    44003b60:	7100041f 	cmp	w0, #0x1
    44003b64:	d2e00c01 	mov	x1, #0x60000000000000      	// #27021597764222976
    44003b68:	d2e00800 	mov	x0, #0x40000000000000      	// #18014398509481984
    44003b6c:	9a800020 	csel	x0, x1, x0, eq  // eq = none
    44003b70:	d65f03c0 	ret
    44003b74:	00000000 	.inst	0x00000000 ; undefined

0000000044003b78 <xlat_arch_current_el>:
    44003b78:	d5384240 	mrs	x0, currentel
    44003b7c:	53020c00 	ubfx	w0, w0, #2, #2
    44003b80:	d65f03c0 	ret
    44003b84:	00000000 	.inst	0x00000000 ; undefined

0000000044003b88 <setup_mmu_cfg>:
    44003b88:	91000484 	add	x4, x4, #0x1
    44003b8c:	52800806 	mov	w6, #0x40                  	// #64
    44003b90:	dac00084 	rbit	x4, x4
    44003b94:	721f003f 	tst	w1, #0x2
    44003b98:	dac01084 	clz	x4, x4
    44003b9c:	5286a001 	mov	w1, #0x3500                	// #13568
    44003ba0:	4b0400c4 	sub	w4, w6, w4
    44003ba4:	aa0003e6 	mov	x6, x0
    44003ba8:	2a010081 	orr	w1, w4, w1
    44003bac:	a9bf7bfd 	stp	x29, x30, [sp, #-16]!
    44003bb0:	1a840024 	csel	w4, w1, w4, eq  // eq = none
    44003bb4:	910003fd 	mov	x29, sp
    44003bb8:	aa0303e0 	mov	x0, x3
    44003bbc:	93407c84 	sxtw	x4, w4
    44003bc0:	97ffffd8 	bl	44003b20 <tcr_physical_addr_size_bits>
    44003bc4:	aa008081 	orr	x1, x4, x0, lsl #32
    44003bc8:	aa004084 	orr	x4, x4, x0, lsl #16
    44003bcc:	710004bf 	cmp	w5, #0x1
    44003bd0:	d2b01003 	mov	x3, #0x80800000            	// #2155872256
    44003bd4:	b2690021 	orr	x1, x1, #0x800000
    44003bd8:	aa030084 	orr	x4, x4, x3
    44003bdc:	9a811084 	csel	x4, x4, x1, ne  // ne = any
    44003be0:	d5380740 	mrs	x0, id_aa64mmfr2_el1
    44003be4:	d2809fe1 	mov	x1, #0x4ff                 	// #1279
    44003be8:	f2400c1f 	tst	x0, #0xf
    44003bec:	b2400040 	orr	x0, x2, #0x1
    44003bf0:	f2a00881 	movk	x1, #0x44, lsl #16
    44003bf4:	9a821000 	csel	x0, x0, x2, ne  // ne = any
    44003bf8:	a90010c1 	stp	x1, x4, [x6]
    44003bfc:	f90008c0 	str	x0, [x6, #16]
    44003c00:	a8c17bfd 	ldp	x29, x30, [sp], #16
    44003c04:	d65f03c0 	ret

0000000044003c08 <mmap_add>:
    44003c08:	aa0003e1 	mov	x1, x0
    44003c0c:	90000020 	adrp	x0, 44007000 <__RO_END__>
    44003c10:	91000000 	add	x0, x0, #0x0
    44003c14:	1400019b 	b	44004280 <mmap_add_ctx>

0000000044003c18 <init_xlat_tables>:
    44003c18:	a9bf7bfd 	stp	x29, x30, [sp, #-16]!
    44003c1c:	910003fd 	mov	x29, sp
    44003c20:	97ffffd6 	bl	44003b78 <xlat_arch_current_el>
    44003c24:	2a0003e2 	mov	w2, w0
    44003c28:	90000021 	adrp	x1, 44007000 <__RO_END__>
    44003c2c:	7100041f 	cmp	w0, #0x1
    44003c30:	91000020 	add	x0, x1, #0x0
    44003c34:	540000e0 	b.eq	44003c50 <init_xlat_tables+0x38>  // b.none
    44003c38:	7100085f 	cmp	w2, #0x2
    44003c3c:	540000a0 	b.eq	44003c50 <init_xlat_tables+0x38>  // b.none
    44003c40:	52800061 	mov	w1, #0x3                   	// #3
    44003c44:	b9005801 	str	w1, [x0, #88]
    44003c48:	a8c17bfd 	ldp	x29, x30, [sp], #16
    44003c4c:	1400019f 	b	440042c8 <init_xlat_tables_ctx>
    44003c50:	b9005802 	str	w2, [x0, #88]
    44003c54:	a8c17bfd 	ldp	x29, x30, [sp], #16
    44003c58:	1400019c 	b	440042c8 <init_xlat_tables_ctx>
    44003c5c:	00000000 	.inst	0x00000000 ; undefined

0000000044003c60 <enable_mmu_el3>:
    44003c60:	90000023 	adrp	x3, 44007000 <__RO_END__>
    44003c64:	91000063 	add	x3, x3, #0x0
    44003c68:	a9be7bfd 	stp	x29, x30, [sp, #-32]!
    44003c6c:	52800065 	mov	w5, #0x3                   	// #3
    44003c70:	910003fd 	mov	x29, sp
    44003c74:	f9400464 	ldr	x4, [x3, #8]
    44003c78:	f9401862 	ldr	x2, [x3, #48]
    44003c7c:	f9402063 	ldr	x3, [x3, #64]
    44003c80:	f9000bf3 	str	x19, [sp, #16]
    44003c84:	2a0003f3 	mov	w19, w0
    44003c88:	d0000020 	adrp	x0, 44009000 <__STACKS_START__+0x1f80>
    44003c8c:	2a1303e1 	mov	w1, w19
    44003c90:	911f8000 	add	x0, x0, #0x7e0
    44003c94:	97ffffbd 	bl	44003b88 <setup_mmu_cfg>
    44003c98:	2a1303e0 	mov	w0, w19
    44003c9c:	f9400bf3 	ldr	x19, [sp, #16]
    44003ca0:	a8c27bfd 	ldp	x29, x30, [sp], #32
    44003ca4:	1400058c 	b	440052d4 <enable_mmu_direct_el3>

0000000044003ca8 <xlat_desc>:
    44003ca8:	a9bd7bfd 	stp	x29, x30, [sp, #-48]!
    44003cac:	71000c7f 	cmp	w3, #0x3
    44003cb0:	910003fd 	mov	x29, sp
    44003cb4:	a90153f3 	stp	x19, x20, [sp, #16]
    44003cb8:	aa0003f3 	mov	x19, x0
    44003cbc:	2a0103f4 	mov	w20, w1
    44003cc0:	f90013f5 	str	x21, [sp, #32]
    44003cc4:	d2800075 	mov	x21, #0x3                   	// #3
    44003cc8:	9a9f06b5 	csinc	x21, x21, xzr, eq  // eq = none
    44003ccc:	2a0103e0 	mov	w0, w1
    44003cd0:	aa0202b5 	orr	x21, x21, x2
    44003cd4:	97ffff8d 	bl	44003b08 <xlat_arch_get_pas>
    44003cd8:	f27d029f 	tst	x20, #0x8
    44003cdc:	32190003 	orr	w3, w0, #0x80
    44003ce0:	1a800063 	csel	w3, w3, w0, eq  // eq = none
    44003ce4:	b9405a61 	ldr	w1, [x19, #88]
    44003ce8:	aa150062 	orr	x2, x3, x21
    44003cec:	d2808813 	mov	x19, #0x440                 	// #1088
    44003cf0:	7100043f 	cmp	w1, #0x1
    44003cf4:	aa130053 	orr	x19, x2, x19
    44003cf8:	54000081 	b.ne	44003d08 <xlat_desc+0x60>  // b.any
    44003cfc:	b2760042 	orr	x2, x2, #0x400
    44003d00:	f279029f 	tst	x20, #0x80
    44003d04:	9a821273 	csel	x19, x19, x2, ne  // ne = any
    44003d08:	72000a95 	ands	w21, w20, #0x7
    44003d0c:	540003e0 	b.eq	44003d88 <xlat_desc+0xe0>  // b.none
    44003d10:	52800900 	mov	w0, #0x48                  	// #72
    44003d14:	6a00029f 	tst	w20, w0
    44003d18:	540002c1 	b.ne	44003d70 <xlat_desc+0xc8>  // b.any
    44003d1c:	71000abf 	cmp	w21, #0x2
    44003d20:	54000100 	b.eq	44003d40 <xlat_desc+0x98>  // b.none
    44003d24:	d2804100 	mov	x0, #0x208                 	// #520
    44003d28:	aa000273 	orr	x19, x19, x0
    44003d2c:	aa1303e0 	mov	x0, x19
    44003d30:	a94153f3 	ldp	x19, x20, [sp, #16]
    44003d34:	f94013f5 	ldr	x21, [sp, #32]
    44003d38:	a8c37bfd 	ldp	x29, x30, [sp], #48
    44003d3c:	d65f03c0 	ret
    44003d40:	12180694 	and	w20, w20, #0x300
    44003d44:	710c029f 	cmp	w20, #0x300
    44003d48:	54ffff20 	b.eq	44003d2c <xlat_desc+0x84>  // b.none
    44003d4c:	7108029f 	cmp	w20, #0x200
    44003d50:	b2770260 	orr	x0, x19, #0x200
    44003d54:	b2780673 	orr	x19, x19, #0x300
    44003d58:	9a801273 	csel	x19, x19, x0, ne  // ne = any
    44003d5c:	aa1303e0 	mov	x0, x19
    44003d60:	a94153f3 	ldp	x19, x20, [sp, #16]
    44003d64:	f94013f5 	ldr	x21, [sp, #32]
    44003d68:	a8c37bfd 	ldp	x29, x30, [sp], #48
    44003d6c:	d65f03c0 	ret
    44003d70:	2a0103e0 	mov	w0, w1
    44003d74:	97ffff7b 	bl	44003b60 <xlat_arch_regime_get_xn_desc>
    44003d78:	71000abf 	cmp	w21, #0x2
    44003d7c:	aa000273 	orr	x19, x19, x0
    44003d80:	54fffd21 	b.ne	44003d24 <xlat_desc+0x7c>  // b.any
    44003d84:	17ffffef 	b	44003d40 <xlat_desc+0x98>
    44003d88:	2a0103e0 	mov	w0, w1
    44003d8c:	97ffff75 	bl	44003b60 <xlat_arch_regime_get_xn_desc>
    44003d90:	aa000273 	orr	x19, x19, x0
    44003d94:	d2804080 	mov	x0, #0x204                 	// #516
    44003d98:	aa000273 	orr	x19, x19, x0
    44003d9c:	aa1303e0 	mov	x0, x19
    44003da0:	a94153f3 	ldp	x19, x20, [sp, #16]
    44003da4:	f94013f5 	ldr	x21, [sp, #32]
    44003da8:	a8c37bfd 	ldp	x29, x30, [sp], #48
    44003dac:	d65f03c0 	ret

0000000044003db0 <xlat_tables_map_region>:
    44003db0:	a9b97bfd 	stp	x29, x30, [sp, #-112]!
    44003db4:	910003fd 	mov	x29, sp
    44003db8:	a90363f7 	stp	x23, x24, [sp, #48]
    44003dbc:	aa0103f8 	mov	x24, x1
    44003dc0:	0b050cb7 	add	w23, w5, w5, lsl #3
    44003dc4:	a9025bf5 	stp	x21, x22, [sp, #32]
    44003dc8:	2a0503f6 	mov	w22, w5
    44003dcc:	4b1703f7 	neg	w23, w23
    44003dd0:	f9400421 	ldr	x1, [x1, #8]
    44003dd4:	a9046bf9 	stp	x25, x26, [sp, #64]
    44003dd8:	11009ef7 	add	w23, w23, #0x27
    44003ddc:	f9400b05 	ldr	x5, [x24, #16]
    44003de0:	a90573fb 	stp	x27, x28, [sp, #80]
    44003de4:	aa0003f9 	mov	x25, x0
    44003de8:	8b050035 	add	x21, x1, x5
    44003dec:	52800000 	mov	w0, #0x0                   	// #0
    44003df0:	eb02003f 	cmp	x1, x2
    44003df4:	d10006b5 	sub	x21, x21, #0x1
    44003df8:	540000e9 	b.ls	44003e14 <xlat_tables_map_region+0x64>  // b.plast
    44003dfc:	92800008 	mov	x8, #0xffffffffffffffff    	// #-1
    44003e00:	9ad72108 	lsl	x8, x8, x23
    44003e04:	8a010108 	and	x8, x8, x1
    44003e08:	cb020100 	sub	x0, x8, x2
    44003e0c:	aa0803e2 	mov	x2, x8
    44003e10:	9ad72400 	lsr	x0, x0, x23
    44003e14:	6b00009f 	cmp	w4, w0
    44003e18:	54000f09 	b.ls	44003ff8 <xlat_tables_map_region+0x248>  // b.plast
    44003e1c:	a90153f3 	stp	x19, x20, [sp, #16]
    44003e20:	51000493 	sub	w19, w4, #0x1
    44003e24:	2a0003fa 	mov	w26, w0
    44003e28:	4b000273 	sub	w19, w19, w0
    44003e2c:	92800000 	mov	x0, #0xffffffffffffffff    	// #-1
    44003e30:	8b1a0273 	add	x19, x19, x26
    44003e34:	9ad72000 	lsl	x0, x0, x23
    44003e38:	d2800034 	mov	x20, #0x1                   	// #1
    44003e3c:	aa2003e0 	mvn	x0, x0
    44003e40:	8b1a0c7a 	add	x26, x3, x26, lsl #3
    44003e44:	8b130c73 	add	x19, x3, x19, lsl #3
    44003e48:	9ad72294 	lsl	x20, x20, x23
    44003e4c:	f90037e0 	str	x0, [sp, #104]
    44003e50:	110006c0 	add	w0, w22, #0x1
    44003e54:	b90067e0 	str	w0, [sp, #100]
    44003e58:	f9400343 	ldr	x3, [x26]
    44003e5c:	d1000420 	sub	x0, x1, #0x1
    44003e60:	8b02029b 	add	x27, x20, x2
    44003e64:	eb02003f 	cmp	x1, x2
    44003e68:	8b050000 	add	x0, x0, x5
    44003e6c:	d100077c 	sub	x28, x27, #0x1
    44003e70:	fa5c9000 	ccmp	x0, x28, #0x0, ls  // ls = plast
    44003e74:	12000464 	and	w4, w3, #0x3
    44003e78:	540005e2 	b.cs	44003f34 <xlat_tables_map_region+0x184>  // b.hs, b.nlast
    44003e7c:	eb1c003f 	cmp	x1, x28
    44003e80:	54000069 	b.ls	44003e8c <xlat_tables_map_region+0xdc>  // b.plast
    44003e84:	eb02001f 	cmp	x0, x2
    44003e88:	54000243 	b.cc	44003ed0 <xlat_tables_map_region+0x120>  // b.lo, b.ul, b.last
    44003e8c:	35000324 	cbnz	w4, 44003ef0 <xlat_tables_map_region+0x140>
    44003e90:	b9402f23 	ldr	w3, [x25, #44]
    44003e94:	f9401320 	ldr	x0, [x25, #32]
    44003e98:	11000461 	add	w1, w3, #0x1
    44003e9c:	b9002f21 	str	w1, [x25, #44]
    44003ea0:	93747c63 	sbfiz	x3, x3, #12, #32
    44003ea4:	ab030003 	adds	x3, x0, x3
    44003ea8:	54000960 	b.eq	44003fd4 <xlat_tables_map_region+0x224>  // b.none
    44003eac:	b94067e5 	ldr	w5, [sp, #100]
    44003eb0:	b2400460 	orr	x0, x3, #0x3
    44003eb4:	f9000340 	str	x0, [x26]
    44003eb8:	52804004 	mov	w4, #0x200                 	// #512
    44003ebc:	aa1803e1 	mov	x1, x24
    44003ec0:	aa1903e0 	mov	x0, x25
    44003ec4:	97ffffbb 	bl	44003db0 <xlat_tables_map_region>
    44003ec8:	eb1c001f 	cmp	x0, x28
    44003ecc:	54000221 	b.ne	44003f10 <xlat_tables_map_region+0x160>  // b.any
    44003ed0:	eb1b02bf 	cmp	x21, x27
    44003ed4:	540005e9 	b.ls	44003f90 <xlat_tables_map_region+0x1e0>  // b.plast
    44003ed8:	eb13035f 	cmp	x26, x19
    44003edc:	540005a0 	b.eq	44003f90 <xlat_tables_map_region+0x1e0>  // b.none
    44003ee0:	9100235a 	add	x26, x26, #0x8
    44003ee4:	aa1b03e2 	mov	x2, x27
    44003ee8:	a9409701 	ldp	x1, x5, [x24, #8]
    44003eec:	17ffffdb 	b	44003e58 <xlat_tables_map_region+0xa8>
    44003ef0:	b94067e5 	ldr	w5, [sp, #100]
    44003ef4:	92748c63 	and	x3, x3, #0xfffffffff000
    44003ef8:	52804004 	mov	w4, #0x200                 	// #512
    44003efc:	aa1803e1 	mov	x1, x24
    44003f00:	aa1903e0 	mov	x0, x25
    44003f04:	97ffffab 	bl	44003db0 <xlat_tables_map_region>
    44003f08:	eb1c001f 	cmp	x0, x28
    44003f0c:	54fffe20 	b.eq	44003ed0 <xlat_tables_map_region+0x120>  // b.none
    44003f10:	aa0003fc 	mov	x28, x0
    44003f14:	aa1c03e0 	mov	x0, x28
    44003f18:	a94153f3 	ldp	x19, x20, [sp, #16]
    44003f1c:	a9425bf5 	ldp	x21, x22, [sp, #32]
    44003f20:	a94363f7 	ldp	x23, x24, [sp, #48]
    44003f24:	a9446bf9 	ldp	x25, x26, [sp, #64]
    44003f28:	a94573fb 	ldp	x27, x28, [sp, #80]
    44003f2c:	a8c77bfd 	ldp	x29, x30, [sp], #112
    44003f30:	d65f03c0 	ret
    44003f34:	f9400300 	ldr	x0, [x24]
    44003f38:	71000edf 	cmp	w22, #0x3
    44003f3c:	8b000040 	add	x0, x2, x0
    44003f40:	cb010000 	sub	x0, x0, x1
    44003f44:	54000360 	b.eq	44003fb0 <xlat_tables_map_region+0x200>  // b.none
    44003f48:	71000c9f 	cmp	w4, #0x3
    44003f4c:	54fffd20 	b.eq	44003ef0 <xlat_tables_map_region+0x140>  // b.none
    44003f50:	35fffc04 	cbnz	w4, 44003ed0 <xlat_tables_map_region+0x120>
    44003f54:	f94037e1 	ldr	x1, [sp, #104]
    44003f58:	ea01001f 	tst	x0, x1
    44003f5c:	7a400ac4 	ccmp	w22, #0x0, #0x4, eq  // eq = none
    44003f60:	54fff980 	b.eq	44003e90 <xlat_tables_map_region+0xe0>  // b.none
    44003f64:	f9401301 	ldr	x1, [x24, #32]
    44003f68:	9ad72421 	lsr	x1, x1, x23
    44003f6c:	b4fff921 	cbz	x1, 44003e90 <xlat_tables_map_region+0xe0>
    44003f70:	b9401b01 	ldr	w1, [x24, #24]
    44003f74:	aa0003e2 	mov	x2, x0
    44003f78:	2a1603e3 	mov	w3, w22
    44003f7c:	aa1903e0 	mov	x0, x25
    44003f80:	97ffff4a 	bl	44003ca8 <xlat_desc>
    44003f84:	f9000340 	str	x0, [x26]
    44003f88:	eb1b02bf 	cmp	x21, x27
    44003f8c:	54fffa68 	b.hi	44003ed8 <xlat_tables_map_region+0x128>  // b.pmore
    44003f90:	a94153f3 	ldp	x19, x20, [sp, #16]
    44003f94:	aa1c03e0 	mov	x0, x28
    44003f98:	a9425bf5 	ldp	x21, x22, [sp, #32]
    44003f9c:	a94363f7 	ldp	x23, x24, [sp, #48]
    44003fa0:	a9446bf9 	ldp	x25, x26, [sp, #64]
    44003fa4:	a94573fb 	ldp	x27, x28, [sp, #80]
    44003fa8:	a8c77bfd 	ldp	x29, x30, [sp], #112
    44003fac:	d65f03c0 	ret
    44003fb0:	71000c9f 	cmp	w4, #0x3
    44003fb4:	54fff8e0 	b.eq	44003ed0 <xlat_tables_map_region+0x120>  // b.none
    44003fb8:	b9401b01 	ldr	w1, [x24, #24]
    44003fbc:	aa0003e2 	mov	x2, x0
    44003fc0:	2a1603e3 	mov	w3, w22
    44003fc4:	aa1903e0 	mov	x0, x25
    44003fc8:	97ffff38 	bl	44003ca8 <xlat_desc>
    44003fcc:	f9000340 	str	x0, [x26]
    44003fd0:	17ffffee 	b	44003f88 <xlat_tables_map_region+0x1d8>
    44003fd4:	aa0203fc 	mov	x28, x2
    44003fd8:	aa1c03e0 	mov	x0, x28
    44003fdc:	a94153f3 	ldp	x19, x20, [sp, #16]
    44003fe0:	a9425bf5 	ldp	x21, x22, [sp, #32]
    44003fe4:	a94363f7 	ldp	x23, x24, [sp, #48]
    44003fe8:	a9446bf9 	ldp	x25, x26, [sp, #64]
    44003fec:	a94573fb 	ldp	x27, x28, [sp, #80]
    44003ff0:	a8c77bfd 	ldp	x29, x30, [sp], #112
    44003ff4:	d65f03c0 	ret
    44003ff8:	d100045c 	sub	x28, x2, #0x1
    44003ffc:	17ffffe6 	b	44003f94 <xlat_tables_map_region+0x1e4>

0000000044004000 <mmap_add_region_ctx>:
    44004000:	f940082c 	ldr	x12, [x1, #16]
    44004004:	b500004c 	cbnz	x12, 4400400c <mmap_add_region_ctx+0xc>
    44004008:	d65f03c0 	ret
    4400400c:	a9401c2f 	ldp	x15, x7, [x1]
    44004010:	f9401023 	ldr	x3, [x1, #32]
    44004014:	aa0c01e2 	orr	x2, x15, x12
    44004018:	aa070042 	orr	x2, x2, x7
    4400401c:	f2402c5f 	tst	x2, #0xfff
    44004020:	54001141 	b.ne	44004248 <mmap_add_region_ctx+0x248>  // b.any
    44004024:	f148007f 	cmp	x3, #0x200, lsl #12
    44004028:	d2a80002 	mov	x2, #0x40000000            	// #1073741824
    4400402c:	fa421064 	ccmp	x3, x2, #0x4, ne  // ne = any
    44004030:	d2820002 	mov	x2, #0x1000                	// #4096
    44004034:	fa421064 	ccmp	x3, x2, #0x4, ne  // ne = any
    44004038:	54001081 	b.ne	44004248 <mmap_add_region_ctx+0x248>  // b.any
    4400403c:	a9bc7bfd 	stp	x29, x30, [sp, #-64]!
    44004040:	8b07018e 	add	x14, x12, x7
    44004044:	910003fd 	mov	x29, sp
    44004048:	a9025bf5 	stp	x21, x22, [sp, #32]
    4400404c:	8b0c01f5 	add	x21, x15, x12
    44004050:	d10006b5 	sub	x21, x21, #0x1
    44004054:	a90153f3 	stp	x19, x20, [sp, #16]
    44004058:	eb1501ff 	cmp	x15, x21
    4400405c:	d10005d4 	sub	x20, x14, #0x1
    44004060:	fa5490e2 	ccmp	x7, x20, #0x2, ls  // ls = plast
    44004064:	54000fa8 	b.hi	44004258 <mmap_add_region_ctx+0x258>  // b.pmore
    44004068:	f9400402 	ldr	x2, [x0, #8]
    4400406c:	eb02029f 	cmp	x20, x2
    44004070:	54000f48 	b.hi	44004258 <mmap_add_region_ctx+0x258>  // b.pmore
    44004074:	f9400002 	ldr	x2, [x0]
    44004078:	eb0202bf 	cmp	x21, x2
    4400407c:	54000ee8 	b.hi	44004258 <mmap_add_region_ctx+0x258>  // b.pmore
    44004080:	b940180d 	ldr	w13, [x0, #24]
    44004084:	52800503 	mov	w3, #0x28                  	// #40
    44004088:	f9400802 	ldr	x2, [x0, #16]
    4400408c:	9b2309ad 	smaddl	x13, w13, w3, x2
    44004090:	f85e81a3 	ldur	x3, [x13, #-24]
    44004094:	b5000f03 	cbnz	x3, 44004274 <mmap_add_region_ctx+0x274>
    44004098:	a940ac48 	ldp	x8, x11, [x2, #8]
    4400409c:	b4000e2b 	cbz	x11, 44004260 <mmap_add_region_ctx+0x260>
    440040a0:	aa0803e3 	mov	x3, x8
    440040a4:	aa0b03e9 	mov	x9, x11
    440040a8:	aa0203e5 	mov	x5, x2
    440040ac:	cb0f00f0 	sub	x16, x7, x15
    440040b0:	14000012 	b	440040f8 <mmap_add_region_ctx+0xf8>
    440040b4:	eb0300ff 	cmp	x7, x3
    440040b8:	8b0400c6 	add	x6, x6, x4
    440040bc:	fa4a9280 	ccmp	x20, x10, #0x0, ls  // ls = plast
    440040c0:	54000282 	b.cs	44004110 <mmap_add_region_ctx+0x110>  // b.hs, b.nlast
    440040c4:	eb0601ff 	cmp	x15, x6
    440040c8:	1a9f97e6 	cset	w6, hi  // hi = pmore
    440040cc:	eb0402bf 	cmp	x21, x4
    440040d0:	1a9f27e4 	cset	w4, cc  // cc = lo, ul, last
    440040d4:	eb03029f 	cmp	x20, x3
    440040d8:	2a0400c6 	orr	w6, w6, w4
    440040dc:	fa4a20e2 	ccmp	x7, x10, #0x2, cs  // cs = hs, nlast
    440040e0:	54000249 	b.ls	44004128 <mmap_add_region_ctx+0x128>  // b.plast
    440040e4:	34000226 	cbz	w6, 44004128 <mmap_add_region_ctx+0x128>
    440040e8:	9100a0a5 	add	x5, x5, #0x28
    440040ec:	f94008a9 	ldr	x9, [x5, #16]
    440040f0:	b40002a9 	cbz	x9, 44004144 <mmap_add_region_ctx+0x144>
    440040f4:	f94004a3 	ldr	x3, [x5, #8]
    440040f8:	d1000526 	sub	x6, x9, #0x1
    440040fc:	8b0300ca 	add	x10, x6, x3
    44004100:	eb0a029f 	cmp	x20, x10
    44004104:	fa4390e0 	ccmp	x7, x3, #0x0, ls  // ls = plast
    44004108:	f94000a4 	ldr	x4, [x5]
    4400410c:	54fffd43 	b.cc	440040b4 <mmap_add_region_ctx+0xb4>  // b.lo, b.ul, b.last
    44004110:	cb040064 	sub	x4, x3, x4
    44004114:	eb10009f 	cmp	x4, x16
    44004118:	54000081 	b.ne	44004128 <mmap_add_region_ctx+0x128>  // b.any
    4400411c:	eb0300ff 	cmp	x7, x3
    44004120:	fa490180 	ccmp	x12, x9, #0x0, eq  // eq = none
    44004124:	54fffe21 	b.ne	440040e8 <mmap_add_region_ctx+0xe8>  // b.any
    44004128:	12800001 	mov	w1, #0xffffffff            	// #-1
    4400412c:	a94153f3 	ldp	x19, x20, [sp, #16]
    44004130:	b0000000 	adrp	x0, 44005000 <init_cpu_data_ptr+0xc>
    44004134:	a9425bf5 	ldp	x21, x22, [sp, #32]
    44004138:	9126a000 	add	x0, x0, #0x9a8
    4400413c:	a8c47bfd 	ldp	x29, x30, [sp], #64
    44004140:	17fffda0 	b	440037c0 <tf_log>
    44004144:	8b080163 	add	x3, x11, x8
    44004148:	f9001bf7 	str	x23, [sp, #48]
    4400414c:	d1000464 	sub	x4, x3, #0x1
    44004150:	aa0203f3 	mov	x19, x2
    44004154:	eb04029f 	cmp	x20, x4
    44004158:	540008a9 	b.ls	4400426c <mmap_add_region_ctx+0x26c>  // b.plast
    4400415c:	d503201f 	nop
    44004160:	9100a273 	add	x19, x19, #0x28
    44004164:	a940ae63 	ldp	x3, x11, [x19, #8]
    44004168:	f100017f 	cmp	x11, #0x0
    4400416c:	8b030163 	add	x3, x11, x3
    44004170:	1a9f07e4 	cset	w4, ne  // ne = any
    44004174:	d1000465 	sub	x5, x3, #0x1
    44004178:	7100009f 	cmp	w4, #0x0
    4400417c:	fa5410a2 	ccmp	x5, x20, #0x2, ne  // ne = any
    44004180:	54ffff03 	b.cc	44004160 <mmap_add_region_ctx+0x160>  // b.lo, b.ul, b.last
    44004184:	eb0b019f 	cmp	x12, x11
    44004188:	fa4381c0 	ccmp	x14, x3, #0x0, hi  // hi = pmore
    4400418c:	7a400884 	ccmp	w4, #0x0, #0x4, eq  // eq = none
    44004190:	54000120 	b.eq	440041b4 <mmap_add_region_ctx+0x1b4>  // b.none
    44004194:	d503201f 	nop
    44004198:	9100a273 	add	x19, x19, #0x28
    4400419c:	a9408e64 	ldp	x4, x3, [x19, #8]
    440041a0:	f100007f 	cmp	x3, #0x0
    440041a4:	fa431180 	ccmp	x12, x3, #0x0, ne  // ne = any
    440041a8:	8b040063 	add	x3, x3, x4
    440041ac:	fa4e8060 	ccmp	x3, x14, #0x0, hi  // hi = pmore
    440041b0:	54ffff40 	b.eq	44004198 <mmap_add_region_ctx+0x198>  // b.none
    440041b4:	eb0d005f 	cmp	x2, x13
    440041b8:	540000e2 	b.cs	440041d4 <mmap_add_region_ctx+0x1d4>  // b.hs, b.nlast
    440041bc:	d503201f 	nop
    440041c0:	9100a042 	add	x2, x2, #0x28
    440041c4:	f9400843 	ldr	x3, [x2, #16]
    440041c8:	f100007f 	cmp	x3, #0x0
    440041cc:	fa4211a0 	ccmp	x13, x2, #0x0, ne  // ne = any
    440041d0:	54ffff88 	b.hi	440041c0 <mmap_add_region_ctx+0x1c0>  // b.pmore
    440041d4:	aa0103f6 	mov	x22, x1
    440041d8:	aa0003f7 	mov	x23, x0
    440041dc:	aa1303e1 	mov	x1, x19
    440041e0:	cb130042 	sub	x2, x2, x19
    440041e4:	9100a260 	add	x0, x19, #0x28
    440041e8:	94000086 	bl	44004400 <memmove>
    440041ec:	f94002c0 	ldr	x0, [x22]
    440041f0:	f9000260 	str	x0, [x19]
    440041f4:	f94022e0 	ldr	x0, [x23, #64]
    440041f8:	f94006c1 	ldr	x1, [x22, #8]
    440041fc:	f9000661 	str	x1, [x19, #8]
    44004200:	eb15001f 	cmp	x0, x21
    44004204:	f9400ac0 	ldr	x0, [x22, #16]
    44004208:	f9000a60 	str	x0, [x19, #16]
    4400420c:	f9400ec0 	ldr	x0, [x22, #24]
    44004210:	f9000e60 	str	x0, [x19, #24]
    44004214:	f94012c0 	ldr	x0, [x22, #32]
    44004218:	f9001260 	str	x0, [x19, #32]
    4400421c:	54000042 	b.cs	44004224 <mmap_add_region_ctx+0x224>  // b.hs, b.nlast
    44004220:	f90022f5 	str	x21, [x23, #64]
    44004224:	f94026e0 	ldr	x0, [x23, #72]
    44004228:	eb14001f 	cmp	x0, x20
    4400422c:	54000042 	b.cs	44004234 <mmap_add_region_ctx+0x234>  // b.hs, b.nlast
    44004230:	f90026f4 	str	x20, [x23, #72]
    44004234:	a94153f3 	ldp	x19, x20, [sp, #16]
    44004238:	a9425bf5 	ldp	x21, x22, [sp, #32]
    4400423c:	f9401bf7 	ldr	x23, [sp, #48]
    44004240:	a8c47bfd 	ldp	x29, x30, [sp], #64
    44004244:	d65f03c0 	ret
    44004248:	b0000000 	adrp	x0, 44005000 <init_cpu_data_ptr+0xc>
    4400424c:	128002a1 	mov	w1, #0xffffffea            	// #-22
    44004250:	9126a000 	add	x0, x0, #0x9a8
    44004254:	17fffd5b 	b	440037c0 <tf_log>
    44004258:	12800421 	mov	w1, #0xffffffde            	// #-34
    4400425c:	17ffffb4 	b	4400412c <mmap_add_region_ctx+0x12c>
    44004260:	aa0203f3 	mov	x19, x2
    44004264:	f9001bf7 	str	x23, [sp, #48]
    44004268:	17ffffdb 	b	440041d4 <mmap_add_region_ctx+0x1d4>
    4400426c:	52800024 	mov	w4, #0x1                   	// #1
    44004270:	17ffffc5 	b	44004184 <mmap_add_region_ctx+0x184>
    44004274:	12800161 	mov	w1, #0xfffffff4            	// #-12
    44004278:	17ffffad 	b	4400412c <mmap_add_region_ctx+0x12c>
    4400427c:	00000000 	.inst	0x00000000 ; undefined

0000000044004280 <mmap_add_ctx>:
    44004280:	a9be7bfd 	stp	x29, x30, [sp, #-32]!
    44004284:	910003fd 	mov	x29, sp
    44004288:	a90153f3 	stp	x19, x20, [sp, #16]
    4400428c:	aa0003f4 	mov	x20, x0
    44004290:	f9401020 	ldr	x0, [x1, #32]
    44004294:	b4000120 	cbz	x0, 440042b8 <mmap_add_ctx+0x38>
    44004298:	aa0103f3 	mov	x19, x1
    4400429c:	d503201f 	nop
    440042a0:	aa1303e1 	mov	x1, x19
    440042a4:	9100a273 	add	x19, x19, #0x28
    440042a8:	aa1403e0 	mov	x0, x20
    440042ac:	97ffff55 	bl	44004000 <mmap_add_region_ctx>
    440042b0:	f9401260 	ldr	x0, [x19, #32]
    440042b4:	b5ffff60 	cbnz	x0, 440042a0 <mmap_add_ctx+0x20>
    440042b8:	a94153f3 	ldp	x19, x20, [sp, #16]
    440042bc:	a8c27bfd 	ldp	x29, x30, [sp], #32
    440042c0:	d65f03c0 	ret
    440042c4:	00000000 	.inst	0x00000000 ; undefined
