
/home/calixto/anzal/rz_atf/rzg_trusted-firmware-a/build/g2l/release/bl2/bl2.elf:     file format elf64-littleaarch64
/home/calixto/anzal/rz_atf/rzg_trusted-firmware-a/build/g2l/release/bl2/bl2.elf
architecture: aarch64, flags 0x00000112:
EXEC_P, HAS_SYMS, D_PAGED
start address 0x0000000000012000

Program Header:
    LOAD off    0x0000000000000000 vaddr 0x0000000000010000 paddr 0x0000000000010000 align 2**16
         filesz 0x000000000000f8c9 memsz 0x0000000000018000 flags rwx
   STACK off    0x0000000000000000 vaddr 0x0000000000000000 paddr 0x0000000000000000 align 2**4
         filesz 0x0000000000000000 memsz 0x0000000000000000 flags rw-
private flags = 0:

Sections:
Idx Name          Size      VMA               LMA               File off  Algn
  0 ro            0000d000  0000000000012000  0000000000012000  00002000  2**11
                  CONTENTS, ALLOC, LOAD, READONLY, CODE
  1 .data         000008c9  000000000001f000  000000000001f000  0000f000  2**3
                  CONTENTS, ALLOC, LOAD, DATA
  2 stacks        00001000  000000000001f900  000000000001f900  0000f8c9  2**6
                  ALLOC
  3 .bss          00000ba0  0000000000020900  0000000000020900  0000f8c9  2**5
                  ALLOC
  4 xlat_table    00006000  0000000000022000  0000000000022000  0000f8c9  2**12
                  ALLOC
  5 .debug_info   0002715a  0000000000000000  0000000000000000  0000f8c9  2**0
                  CONTENTS, READONLY, DEBUGGING
  6 .debug_abbrev 00007041  0000000000000000  0000000000000000  00036a23  2**0
                  CONTENTS, READONLY, DEBUGGING
  7 .debug_aranges 00001710  0000000000000000  0000000000000000  0003da64  2**0
                  CONTENTS, READONLY, DEBUGGING
  8 .debug_line   00010cfc  0000000000000000  0000000000000000  0003f174  2**0
                  CONTENTS, READONLY, DEBUGGING
  9 .debug_str    000054db  0000000000000000  0000000000000000  0004fe70  2**0
                  CONTENTS, READONLY, DEBUGGING
 10 .comment      00000011  0000000000000000  0000000000000000  0005534b  2**0
                  CONTENTS, READONLY
 11 .debug_loc    00024e8d  0000000000000000  0000000000000000  0005535c  2**0
                  CONTENTS, READONLY, DEBUGGING
 12 .debug_ranges 0000f6f0  0000000000000000  0000000000000000  0007a1e9  2**0
                  CONTENTS, READONLY, DEBUGGING
 13 .debug_frame  00000958  0000000000000000  0000000000000000  000898e0  2**3
                  CONTENTS, READONLY, DEBUGGING
SYMBOL TABLE:
0000000000012000 l    d  ro	0000000000000000 ro
000000000001f000 l    d  .data	0000000000000000 .data
000000000001f900 l    d  stacks	0000000000000000 stacks
0000000000020900 l    d  .bss	0000000000000000 .bss
0000000000022000 l    d  xlat_table	0000000000000000 xlat_table
0000000000000000 l    d  .debug_info	0000000000000000 .debug_info
0000000000000000 l    d  .debug_abbrev	0000000000000000 .debug_abbrev
0000000000000000 l    d  .debug_aranges	0000000000000000 .debug_aranges
0000000000000000 l    d  .debug_line	0000000000000000 .debug_line
0000000000000000 l    d  .debug_str	0000000000000000 .debug_str
0000000000000000 l    d  .comment	0000000000000000 .comment
0000000000000000 l    d  .debug_loc	0000000000000000 .debug_loc
0000000000000000 l    d  .debug_ranges	0000000000000000 .debug_ranges
0000000000000000 l    d  .debug_frame	0000000000000000 .debug_frame
0000000000000000 l    df *ABS*	0000000000000000 /home/calixto/anzal/rz_atf/rzg_trusted-firmware-a/build/g2l/release/bl2/bl2_el3_entrypoint.o
0000000000000000 l    df *ABS*	0000000000000000 /home/calixto/anzal/rz_atf/rzg_trusted-firmware-a/build/g2l/release/bl2/bl2_run_next_image.o
0000000000000000 l    df *ABS*	0000000000000000 /home/calixto/anzal/rz_atf/rzg_trusted-firmware-a/build/g2l/release/bl2/cortex_a55.o
0000000000000008 l       *ABS*	0000000000000000 CPU_MIDR_SIZE
0000000000000008 l       *ABS*	0000000000000000 CPU_EXTRA1_FUNC_SIZE
0000000000000008 l       *ABS*	0000000000000000 CPU_EXTRA2_FUNC_SIZE
0000000000000008 l       *ABS*	0000000000000000 CPU_EXTRA3_FUNC_SIZE
0000000000000008 l       *ABS*	0000000000000000 CPU_E_HANDLER_FUNC_SIZE
0000000000000008 l       *ABS*	0000000000000000 CPU_RESET_FUNC_SIZE
0000000000000000 l       *ABS*	0000000000000000 CPU_PWR_DWN_OPS_SIZE
0000000000000000 l       *ABS*	0000000000000000 CPU_ERRATA_FUNC_SIZE
0000000000000000 l       *ABS*	0000000000000000 CPU_ERRATA_LOCK_SIZE
0000000000000000 l       *ABS*	0000000000000000 CPU_ERRATA_PRINTED_SIZE
0000000000000000 l       *ABS*	0000000000000000 CPU_REG_DUMP_SIZE
0000000000000000 l       *ABS*	0000000000000000 CPU_MIDR
0000000000000008 l       *ABS*	0000000000000000 CPU_RESET_FUNC
0000000000000010 l       *ABS*	0000000000000000 CPU_EXTRA1_FUNC
0000000000000018 l       *ABS*	0000000000000000 CPU_EXTRA2_FUNC
0000000000000020 l       *ABS*	0000000000000000 CPU_EXTRA3_FUNC
0000000000000028 l       *ABS*	0000000000000000 CPU_E_HANDLER_FUNC
0000000000000030 l       *ABS*	0000000000000000 CPU_PWR_DWN_OPS
0000000000000030 l       *ABS*	0000000000000000 CPU_ERRATA_FUNC
0000000000000030 l       *ABS*	0000000000000000 CPU_ERRATA_LOCK
0000000000000030 l       *ABS*	0000000000000000 CPU_ERRATA_PRINTED
0000000000000030 l       *ABS*	0000000000000000 CPU_REG_DUMP
0000000000000030 l       *ABS*	0000000000000000 CPU_OPS_SIZE
0000000000012120 l     F ro	0000000000000010 cortex_a55_reset_func
0000000000000000 l    df *ABS*	0000000000000000 /home/calixto/anzal/rz_atf/rzg_trusted-firmware-a/build/g2l/release/bl2/cpu_helpers.o
0000000000000008 l       *ABS*	0000000000000000 CPU_MIDR_SIZE
0000000000000008 l       *ABS*	0000000000000000 CPU_EXTRA1_FUNC_SIZE
0000000000000008 l       *ABS*	0000000000000000 CPU_EXTRA2_FUNC_SIZE
0000000000000008 l       *ABS*	0000000000000000 CPU_EXTRA3_FUNC_SIZE
0000000000000008 l       *ABS*	0000000000000000 CPU_E_HANDLER_FUNC_SIZE
0000000000000008 l       *ABS*	0000000000000000 CPU_RESET_FUNC_SIZE
0000000000000000 l       *ABS*	0000000000000000 CPU_PWR_DWN_OPS_SIZE
0000000000000000 l       *ABS*	0000000000000000 CPU_ERRATA_FUNC_SIZE
0000000000000000 l       *ABS*	0000000000000000 CPU_ERRATA_LOCK_SIZE
0000000000000000 l       *ABS*	0000000000000000 CPU_ERRATA_PRINTED_SIZE
0000000000000000 l       *ABS*	0000000000000000 CPU_REG_DUMP_SIZE
0000000000000000 l       *ABS*	0000000000000000 CPU_MIDR
0000000000000008 l       *ABS*	0000000000000000 CPU_RESET_FUNC
0000000000000010 l       *ABS*	0000000000000000 CPU_EXTRA1_FUNC
0000000000000018 l       *ABS*	0000000000000000 CPU_EXTRA2_FUNC
0000000000000020 l       *ABS*	0000000000000000 CPU_EXTRA3_FUNC
0000000000000028 l       *ABS*	0000000000000000 CPU_E_HANDLER_FUNC
0000000000000030 l       *ABS*	0000000000000000 CPU_PWR_DWN_OPS
0000000000000030 l       *ABS*	0000000000000000 CPU_ERRATA_FUNC
0000000000000030 l       *ABS*	0000000000000000 CPU_ERRATA_LOCK
0000000000000030 l       *ABS*	0000000000000000 CPU_ERRATA_PRINTED
0000000000000030 l       *ABS*	0000000000000000 CPU_REG_DUMP
0000000000000030 l       *ABS*	0000000000000000 CPU_OPS_SIZE
000000000001218c l       ro	0000000000000000 search_def_ptr
0000000000000000 l    df *ABS*	0000000000000000 /home/calixto/anzal/rz_atf/rzg_trusted-firmware-a/build/g2l/release/bl2/platform_up_stack.o
000000000001f900 l       stacks	0000000000000000 platform_normal_stacks
0000000000000006 l       *ABS*	0000000000000000 TZ_COUNT
0000000000000000 l    df *ABS*	0000000000000000 /home/calixto/anzal/rz_atf/rzg_trusted-firmware-a/build/g2l/release/bl2/plat_helpers.o
0000000000000000 l    df *ABS*	0000000000000000 /home/calixto/anzal/rz_atf/rzg_trusted-firmware-a/build/g2l/release/bl2/debug.o
000000000001dfb8 l       ro	0000000000000000 panic_msg
0000000000012218 l       ro	0000000000000000 panic_common
0000000000012240 l       ro	0000000000000000 _panic_handler
0000000000000000 l    df *ABS*	0000000000000000 /home/calixto/anzal/rz_atf/rzg_trusted-firmware-a/build/g2l/release/bl2/cache_helpers.o
000000000001227c l       ro	0000000000000000 exit_loop_civac
0000000000012268 l       ro	0000000000000000 loop_civac
00000000000122b4 l       ro	0000000000000000 exit_loop_ivac
00000000000122a0 l       ro	0000000000000000 loop_ivac
0000000000000000 l    df *ABS*	0000000000000000 /home/calixto/anzal/rz_atf/rzg_trusted-firmware-a/build/g2l/release/bl2/misc_helpers.o
00000000000122c0 l     F ro	00000000000000e8 zeromem_dczva
00000000000123ac l       ro	0000000000000000 do_disable_mmu_el3
0000000000000000 l    df *ABS*	0000000000000000 /home/calixto/anzal/rz_atf/rzg_trusted-firmware-a/build/g2l/release/bl2/platform_helpers.o
0000000000000000 l    df *ABS*	0000000000000000 /home/calixto/anzal/rz_atf/rzg_trusted-firmware-a/build/g2l/release/bl2/enable_mmu.o
0000000000000000 l    df *ABS*	0000000000000000 /home/calixto/anzal/rz_atf/rzg_trusted-firmware-a/build/g2l/release/bl2/scifa.o
000000000001247c l       ro	0000000000000000 register_fail
0000000000012480 l       ro	0000000000000000 l_ret
0000000000000000 l    df *ABS*	0000000000000000 bl2_arch_setup.c
0000000000000000 l    df *ABS*	0000000000000000 bl2_image_load_v2.c
0000000000000000 l    df *ABS*	0000000000000000 bl2_main.c
0000000000000000 l    df *ABS*	0000000000000000 desc_image_load.c
0000000000020900 l     O .bss	0000000000000010 bl_load_info
0000000000020910 l     O .bss	0000000000000010 next_bl_params
0000000000000000 l    df *ABS*	0000000000000000 tzc400.c
0000000000020920 l     O .bss	0000000000000010 tzc400
0000000000000000 l    df *ABS*	0000000000000000 delay_timer.c
0000000000020930 l     O .bss	0000000000000008 timer_ops
0000000000000000 l    df *ABS*	0000000000000000 generic_delay_timer.c
0000000000012b98 l     F ro	000000000000000c get_timer_value
0000000000020938 l     O .bss	0000000000000010 ops
0000000000000000 l    df *ABS*	0000000000000000 io_fip.c
0000000000012c38 l     F ro	0000000000000008 device_type_fip
0000000000012c40 l     F ro	000000000000007c fip_dev_open
0000000000012cc0 l     F ro	0000000000000014 fip_file_len
0000000000012cd8 l     F ro	000000000000005c fip_dev_close
0000000000012d38 l     F ro	0000000000000054 fip_file_close
0000000000012d90 l     F ro	00000000000000b4 fip_dev_init
0000000000012e48 l     F ro	00000000000000b8 fip_file_read
0000000000012f00 l     F ro	0000000000000114 fip_file_open
0000000000020948 l     O .bss	0000000000000008 backend_dev_handle
0000000000020950 l     O .bss	0000000000000008 backend_image_spec
0000000000020958 l     O .bss	0000000000000030 current_fip_file
0000000000020988 l     O .bss	0000000000000010 dev_info_pool
0000000000021440 l     O .bss	0000000000000004 fip_dev_count
0000000000020998 l     O .bss	0000000000000010 state_pool
000000000001c270 l     O ro	0000000000000008 fip_dev_connector
000000000001c278 l     O ro	0000000000000048 fip_dev_funcs
000000000001c2c0 l     O ro	0000000000000010 uuid_null.2068
0000000000000000 l    df *ABS*	0000000000000000 io_memmap.c
0000000000013050 l     F ro	0000000000000008 device_type_memmap
0000000000013058 l     F ro	0000000000000014 memmap_dev_open
0000000000013070 l     F ro	0000000000000008 memmap_dev_close
0000000000013078 l     F ro	0000000000000034 memmap_block_open
00000000000130b0 l     F ro	0000000000000020 memmap_block_seek
00000000000130d0 l     F ro	0000000000000014 memmap_block_len
00000000000130e8 l     F ro	0000000000000028 memmap_block_close
0000000000013110 l     F ro	0000000000000048 memmap_block_write
0000000000013158 l     F ro	000000000000004c memmap_block_read
00000000000209a8 l     O .bss	0000000000000020 current_memmap_file
000000000001f000 l     O .data	0000000000000010 memmap_dev_info
000000000001c2d8 l     O ro	0000000000000048 memmap_dev_funcs
000000000001c2d0 l     O ro	0000000000000008 memmap_dev_connector
0000000000000000 l    df *ABS*	0000000000000000 io_storage.c
00000000000131e0 l     F ro	0000000000000058 free_entity
0000000000021444 l     O .bss	0000000000000004 dev_count
0000000000021448 l     O .bss	0000000000000004 entity_count
00000000000209c8 l     O .bss	0000000000000010 entity_map
00000000000209d8 l     O .bss	0000000000000020 entity_pool
0000000000000000 l    df *ABS*	0000000000000000 bl2_plat_setup.c
00000000000209f8 l     O .bss	0000000000000008 params.2708
0000000000020a00 l     O .bss	0000000000000030 rzg2l_bl31_console
000000000001c320 l     O ro	00000000000000f0 rzg2l_mmap
0000000000000000 l    df *ABS*	0000000000000000 cpg.c
00000000000136f8 l     F ro	0000000000000050 cpg_ctrl_clkrst
000000000001f188 l     O .data	00000000000002e8 cpg_clk_on_tbl
000000000001f470 l     O .data	0000000000000020 cpg_dynamic_select_tbl
000000000001f490 l     O .data	00000000000002e8 cpg_reset_tbl
000000000001f778 l     O .data	0000000000000020 cpg_sel_pll3_3_on_off
000000000001f798 l     O .data	0000000000000020 cpg_static_select_tbl
000000000001c410 l     O ro	0000000000000030 early_setup_tbl
0000000000000000 l    df *ABS*	0000000000000000 ddr.c
0000000000013b00 l     F ro	0000000000000024 disable_phy_clk
0000000000013b28 l     F ro	00000000000001f8 program_mc1
0000000000013d20 l     F ro	00000000000000e4 setup_vref_training_registers
0000000000013e08 l     F ro	000000000000062c exec_trainingVREF
000000000001c440 l     O ro	000000000000000c CSWTCH.42
000000000001c450 l     O ro	000000000000000c CSWTCH.43
000000000001c460 l     O ro	000000000000000c CSWTCH.44
0000000000000000 l    df *ABS*	0000000000000000 emmc_cmd.c
0000000000015278 l     F ro	0000000000000090 emmc_WaitCmd2Cmd_8Cycle
0000000000015308 l     F ro	00000000000000e0 emmc_softreset
0000000000000000 l    df *ABS*	0000000000000000 emmc_init.c
0000000000000000 l    df *ABS*	0000000000000000 emmc_interrupt.c
0000000000000000 l    df *ABS*	0000000000000000 emmc_mount.c
0000000000016480 l     F ro	0000000000000088 emmc_set_timeout_register_value
0000000000016508 l     F ro	0000000000000020 emmc_clock_ctrl.part.0
0000000000000000 l    df *ABS*	0000000000000000 emmc_read.c
0000000000000000 l    df *ABS*	0000000000000000 emmc_utility.c
000000000001c658 l     O ro	00000000000000f4 cmd_reg_hw
0000000000000000 l    df *ABS*	0000000000000000 io_emmcdrv.c
00000000000173f0 l     F ro	0000000000000008 device_type_emmcdrv
00000000000173f8 l     F ro	0000000000000020 emmcdrv_block_seek
0000000000017418 l     F ro	0000000000000014 emmcdrv_dev_open
0000000000017430 l     F ro	0000000000000008 emmcdrv_dev_close
0000000000017438 l     F ro	0000000000000038 emmcdrv_block_close
0000000000017470 l     F ro	00000000000001b0 emmcdrv_block_read
0000000000017620 l     F ro	0000000000000080 emmcdrv_block_open
0000000000020d60 l     O .bss	0000000000000020 current_file
000000000001c800 l     O ro	0000000000000008 emmcdrv_dev_connector
000000000001c808 l     O ro	0000000000000048 emmcdrv_dev_funcs
000000000001c850 l     O ro	0000000000000010 emmcdrv_dev_info
0000000000000000 l    df *ABS*	0000000000000000 io_sddrv.c
00000000000176d8 l     F ro	0000000000000008 device_type_sddrv
00000000000176e0 l     F ro	0000000000000020 sddrv_block_seek
0000000000017700 l     F ro	0000000000000014 sddrv_dev_open
0000000000017718 l     F ro	0000000000000008 sddrv_dev_close
0000000000017720 l     F ro	0000000000000038 sddrv_block_close
0000000000017758 l     F ro	0000000000000068 sddrv_block_open
00000000000177c0 l     F ro	0000000000000198 sddrv_block_read
0000000000020d80 l     O .bss	0000000000000020 current_file
000000000001c888 l     O ro	0000000000000008 sddrv_dev_connector
000000000001c890 l     O ro	0000000000000048 sddrv_dev_funcs
000000000001c8d8 l     O ro	0000000000000010 sddrv_dev_info
0000000000000000 l    df *ABS*	0000000000000000 pfc.c
000000000001c8e8 l     O ro	0000000000000240 pfc_mux_reg_tbl
000000000001cb28 l     O ro	0000000000000240 pfc_sd_reg_tbl
0000000000000000 l    df *ABS*	0000000000000000 boot_esddev.c
000000000001cd68 l     O ro	000000000000001c CSWTCH.6
0000000000000000 l    df *ABS*	0000000000000000 sd_cd.c
0000000000000000 l    df *ABS*	0000000000000000 sd_cmd.c
000000000001cd88 l     O ro	0000000000000040 IOErrTbl
000000000001cdc8 l     O ro	000000000000001c Info2ErrTbl
000000000001cde8 l     O ro	0000000000000040 RespErrTbl
000000000001ce28 l     O ro	0000000000000010 TimeValue
000000000001ce38 l     O ro	0000000000000010 TranSpeed
0000000000000000 l    df *ABS*	0000000000000000 sd_init.c
0000000000000000 l    df *ABS*	0000000000000000 sd_int.c
0000000000000000 l    df *ABS*	0000000000000000 sd_main.c
0000000000020da8 l     O .bss	0000000000000200 sd_drv_rw_buffer
0000000000020fa8 l     O .bss	0000000000000280 sd_drv_work_area
0000000000000000 l    df *ABS*	0000000000000000 sd_mount.c
0000000000018e28 l     F ro	0000000000000044 _sd_calc_erase_sector.part.2
0000000000019518 l     F ro	0000000000000080 _sd_card_query_partitions.constprop.3
0000000000021228 l     O .bss	0000000000000040 stat_buff
0000000000000000 l    df *ABS*	0000000000000000 sd_read.c
0000000000000000 l    df *ABS*	0000000000000000 sd_trns.c
0000000000000000 l    df *ABS*	0000000000000000 sd_util.c
0000000000000000 l    df *ABS*	0000000000000000 spi_multi_device.c
0000000000000000 l    df *ABS*	0000000000000000 spi_multi.c
0000000000000000 l    df *ABS*	0000000000000000 syc.c
0000000000000000 l    df *ABS*	0000000000000000 plat_image_load.c
0000000000000000 l    df *ABS*	0000000000000000 plat_security.c
000000000001cf20 l     O ro	0000000000000108 sys_acctl
0000000000000000 l    df *ABS*	0000000000000000 plat_storage.c
000000000001aa38 l     F ro	0000000000000010 open_emmcdrv
000000000001aa48 l     F ro	0000000000000014 open_fipdrv
000000000001aa60 l     F ro	0000000000000010 open_sddrv
000000000001aa70 l     F ro	0000000000000074 open_memmap
0000000000021268 l     O .bss	0000000000000008 boot_io_drv_id
0000000000021270 l     O .bss	0000000000000008 emmcdrv_dev_handle
0000000000021278 l     O .bss	0000000000000008 fip_dev_handle
0000000000021280 l     O .bss	0000000000000008 memdrv_dev_handle
0000000000021288 l     O .bss	0000000000000008 sddrv_dev_handle
000000000001f7b8 l     O .data	00000000000000a8 policies
000000000001d028 l     O ro	0000000000000010 bl31_file_spec
000000000001d038 l     O ro	0000000000000010 bl32_file_spec
000000000001d048 l     O ro	0000000000000010 bl33_file_spec
000000000001d058 l     O ro	0000000000000018 emmc_block_spec
000000000001d0f0 l     O ro	0000000000000018 sd_block_spec
000000000001d108 l     O ro	0000000000000010 spirom_block_spec
0000000000000000 l    df *ABS*	0000000000000000 ddr_g2l.c
0000000000000000 l    df *ABS*	0000000000000000 bl_common.c
0000000000000000 l    df *ABS*	0000000000000000 tf_log.c
000000000001f8c4 l     O .data	0000000000000004 max_log_level
0000000000000000 l    df *ABS*	0000000000000000 multi_console.c
0000000000000000 l    df *ABS*	0000000000000000 plat_bl_common.c
0000000000000000 l    df *ABS*	0000000000000000 plat_log_common.c
000000000001deb8 l     O ro	0000000000000028 plat_prefix_str
0000000000000000 l    df *ABS*	0000000000000000 xlat_tables_arch.c
0000000000000000 l    df *ABS*	0000000000000000 xlat_tables_context.c
00000000000212b0 l     O .bss	0000000000000190 tf_mmap
000000000001f860 l     O .data	0000000000000060 tf_xlat_ctx
0000000000022000 l     O xlat_table	0000000000006000 tf_xlat_tables
0000000000021480 l     O .bss	0000000000000020 tf_base_xlat_table
0000000000000000 l    df *ABS*	0000000000000000 xlat_tables_core.c
000000000001b398 l     F ro	0000000000000250 xlat_tables_map_region
0000000000000000 l    df *ABS*	0000000000000000 xlat_tables_utils.c
0000000000000000 l    df *ABS*	0000000000000000 plat_rz_common.c
0000000000000000 l    df *ABS*	0000000000000000 memcmp.c
0000000000000000 l    df *ABS*	0000000000000000 memcpy.c
0000000000000000 l    df *ABS*	0000000000000000 memmove.c
0000000000000000 l    df *ABS*	0000000000000000 memset.c
0000000000000000 l    df *ABS*	0000000000000000 printf.c
000000000001bb08 l     F ro	00000000000000dc unsigned_num_print
0000000000000000 l    df *ABS*	0000000000000000 putchar.c
0000000000000000 l    df *ABS*	0000000000000000 
0000000000000000 l    df *ABS*	0000000000000000 param_swizzle_T1bc.c
0000000000000000 l    df *ABS*	0000000000000000 param_mc_C-011_D4-01-1.c
0000000000000000 l    df *ABS*	0000000000000000 /home/calixto/anzal/rz_atf/rzg_trusted-firmware-a/build/g2l/release/bl2/bl2_el3_exceptions.o
000000000001e000 l     F ro	0000000000000000 SynchronousExceptionSP0
000000000001e080 l     F ro	0000000000000000 IrqSP0
000000000001e100 l     F ro	0000000000000000 FiqSP0
000000000001e180 l     F ro	0000000000000000 SErrorSP0
000000000001e200 l     F ro	0000000000000000 SynchronousExceptionSPx
000000000001e280 l     F ro	0000000000000000 IrqSPx
000000000001e300 l     F ro	0000000000000000 FiqSPx
000000000001e380 l     F ro	0000000000000000 SErrorSPx
000000000001e400 l     F ro	0000000000000000 SynchronousExceptionA64
000000000001e480 l     F ro	0000000000000000 IrqA64
000000000001e500 l     F ro	0000000000000000 FiqA64
000000000001e580 l     F ro	0000000000000000 SErrorA64
000000000001e600 l     F ro	0000000000000000 SynchronousExceptionA32
000000000001e680 l     F ro	0000000000000000 IrqA32
000000000001e700 l     F ro	0000000000000000 FiqA32
000000000001e780 l     F ro	0000000000000000 SErrorA32
0000000000000000 l    df *ABS*	0000000000000000 bl2_plat_mem_params_desc.c
000000000001f010 l     O .data	0000000000000170 bl2_mem_params_descs
00000000000192a0 g     F ro	000000000000009c _sd_card_switch_func
000000000001c100 g     F ro	000000000000002c putchar
0000000000013938 g     F ro	00000000000001c4 cpg_setup
000000000001af40 g     F ro	0000000000000018 console_set_scope
0000000000018cd0 g     F ro	000000000000004c esd_check_int
0000000000016528 g     F ro	00000000000000a0 emmc_set_ext_csd
0000000000021480 g       .bss	0000000000000000 __PMF_TIMESTAMP_START__
0000000000017c58 g     F ro	0000000000000008 esddev_init_dma
000000000001af00 g     F ro	000000000000003c console_register
0000000000017958 g     F ro	0000000000000038 register_io_dev_sddrv
0000000000012130 g     F ro	0000000000000020 reset_handler
00000000000122b8 g     F ro	0000000000000008 zeromem
000000000001c150 g     O ro	0000000000000034 version_string
0000000000012210 g     F ro	0000000000000008 asm_print_newline
00000000000138f8 g     F ro	0000000000000040 cpg_early_setup
000000000001b868 g     F ro	0000000000000044 mmap_add_ctx
000000000001ae58 g     F ro	0000000000000004 print_entry_point_info
000000000001a788 g     F ro	0000000000000130 spi_multi_setup
0000000000021298 g     O .bss	0000000000000018 mmu_cfg_params
000000000001b9b8 g     F ro	0000000000000004 xlat_tables_print
000000000001aae8 g     F ro	00000000000001ac rz_io_setup
000000000001f000 g       ro	0000000000000000 __RW_START__
0000000000022000 g       xlat_table	0000000000000000 __XLAT_TABLE_START__
00000000000134f0 g     F ro	0000000000000154 bl2_el3_early_platform_setup
0000000000012218 g     F ro	0000000000000030 do_panic
0000000000013748 g     F ro	0000000000000104 cpg_active_ddr
000000000001c4a0 g     O ro	0000000000000020 mc_phy_settings_tbl
000000000001ba20 g     F ro	0000000000000050 memmove
000000000001b170 g     F ro	0000000000000080 setup_mmu_cfg
0000000000012ab8 g     F ro	0000000000000060 tzc400_disable_filters
0000000000018898 g     F ro	0000000000000148 esd_init
00000000000193d0 g     F ro	00000000000000b4 _sd_card_get_status
000000000001c478 g     O ro	0000000000000008 mc_mr2_tbl
000000000001b0b0  w    F ro	000000000000003c plat_log_get_prefix
00000000000123cc  w    F ro	0000000000000004 plat_report_exception
0000000000018b48 g     F ro	0000000000000080 _sd_clear_int_mask
000000000001c130 g     O ro	000000000000001e build_message
000000000001a8d8 g     F ro	0000000000000010 syc_get_freq
000000000001c470 g     O ro	0000000000000008 mc_mr1_tbl
000000000001b200 g     F ro	0000000000000044 init_xlat_tables
000000000001b088 g     F ro	0000000000000028 setup_page_tables
000000000001f000 g       .data	0000000000000000 __DATA_START__
0000000000012730 g     F ro	0000000000000064 get_bl_mem_params_node
00000000000153e8 g     F ro	0000000000000ca0 emmc_exec_cmd
000000000001b148 g     F ro	0000000000000014 xlat_arch_regime_get_xn_desc
0000000000019618 g     F ro	0000000000000124 _sd_mem_mount
00000000000136e0 g     F ro	0000000000000018 bl2_platform_setup
0000000000018540 g     F ro	000000000000005c _sd_card_send_cmd_arg
000000000001258c g       ro	0000000000000000 __TEXT_RESIDENT_END__
000000000001ba00 g     F ro	0000000000000020 memcpy
000000000001a780 g     F ro	0000000000000004 spi_multi_setup_device
0000000000013850 g     F ro	00000000000000a4 cpg_reset_ddr_mc
0000000000019340 g     F ro	000000000000008c _sd_set_mem_speed
0000000000014438 g     F ro	0000000000000e40 ddr_setup
00000000000122c0 g     F ro	00000000000000e8 zero_normalmem
0000000000017138 g     F ro	00000000000000a4 emmc_bit_field
00000000000121b0 g     F ro	0000000000000004 platform_mem_init
000000000001a618 g     F ro	0000000000000060 esd_get_type
0000000000017c48 g     F ro	0000000000000008 esddev_loc_cpu
00000000000176a0 g     F ro	0000000000000038 register_io_dev_emmcdrv
000000000001b1f0 g     F ro	0000000000000010 mmap_add
000000000001b9c0 g     F ro	0000000000000004 plat_get_syscnt_freq2
000000000001a678 g     F ro	00000000000000c4 _sd_get_size
00000000000123d4  w    F ro	0000000000000008 plat_panic_handler
000000000001a8f8 g     F ro	0000000000000004 plat_flush_next_bl_params
000000000001dfd0 g       ro	0000000000000000 __RT_SVC_DESCS_START__
0000000000020900 g       stacks	0000000000000000 __STACKS_END__
00000000000187b0 g     F ro	00000000000000e8 _sd_send_mcmd
0000000000021480 g       .bss	0000000000000000 __PERCPU_BAKERY_LOCK_END__
000000000001f180 g     O .data	0000000000000008 bl_mem_params_desc_ptr
00000000000133b8 g     F ro	000000000000001c io_size
000000000001a600 g     F ro	0000000000000014 _sd_set_err
000000000001a4e8 g     F ro	00000000000000b8 _sd_set_port
00000000000171e0 g     F ro	000000000000002c emmc_write_error_info
0000000000013260 g     F ro	0000000000000010 io_dev_open
0000000000017ba0 g     F ro	0000000000000008 esddev_power_on
00000000000121a0  w    F ro	0000000000000010 plat_set_my_stack
000000000001dfd0 g       ro	0000000000000000 __RT_SVC_DESCS_END__
0000000000020da0 g     O .bss	0000000000000008 SDHandle
00000000000121e0 g     F ro	0000000000000030 asm_print_hex
0000000000000ba0 g       *ABS*	0000000000000000 __BSS_SIZE__
00000000000121c8 g     F ro	0000000000000018 asm_print_str
0000000000012570 g     F ro	000000000000001c console_rzg2l_flush
00000000000123a8 g     F ro	000000000000001c disable_mmu_el3
00000000000121c0 g     F ro	0000000000000008 plat_crash_console_flush
000000000001b070  w    F ro	0000000000000008 plat_error_handler
0000000000019910 g     F ro	0000000000000038 esd_get_partition_id
0000000000017ba8 g     F ro	0000000000000008 esddev_write_data
0000000000017b98 g     F ro	0000000000000008 esddev_init
0000000000016800 g     F ro	000000000000074c emmc_mount
000000000001c488 g     O ro	0000000000000008 mc_mr6_tbl
0000000000013448 g     F ro	00000000000000a4 bl2_plat_handle_post_image_load
000000000001e800 g       ro	0000000000000000 __RO_END_UNALIGNED__
000000000001af58 g     F ro	00000000000000b8 console_putc
0000000000017d10 g     F ro	0000000000000008 _sd_check_media
00000000000121b4 g     F ro	0000000000000008 plat_crash_console_init
0000000000012248 g     F ro	0000000000000038 flush_dcache_range
0000000000012b88 g     F ro	000000000000000c timer_init
0000000000012830 g     F ro	0000000000000144 get_next_bl_params_from_mem_params_desc
000000000001dfd0 g       ro	0000000000000000 __PMF_SVC_DESCS_END__
000000000001f8d0 g       .data	0000000000000000 __RELA_END__
000000000001f8d0 g       .data	0000000000000000 __RELA_START__
0000000000018ad0 g     F ro	0000000000000078 _sd_set_int_mask
0000000000019948 g     F ro	0000000000000988 esd_read_sect
0000000000017c60 g     F ro	0000000000000008 esddev_wait_dma_end
000000000001c4c0 g     O ro	0000000000000048 swizzle_mc_tbl
000000000001a3e8 g     F ro	0000000000000070 _sd_dma_trans
000000000001bbe8 g     F ro	0000000000000514 vprintf
0000000000012528 g     F ro	0000000000000048 console_rzg2l_putc
00000000000182e0 g     F ro	0000000000000088 _sd_check_info2_err
00000000000123d0  w    F ro	0000000000000004 plat_reset_handler
00000000000123dc g     F ro	0000000000000058 enable_mmu_direct_el3
0000000000017ec8 g     F ro	00000000000002a4 _sd_get_resp
0000000000017cf0 g     F ro	0000000000000020 esd_check_media
0000000000012150 g     F ro	0000000000000040 get_cpu_ops_ptr
000000000001a8e8 g     F ro	0000000000000004 plat_get_bl_image_load_info
000000000001ad48 g     F ro	000000000000010c load_auth_image
00000000000165c8 g     F ro	0000000000000088 emmc_select_partition
0000000000016138 g     F ro	0000000000000344 emmc_interrupt
0000000000028000 g       xlat_table	0000000000000000 __BL2_END__
000000000001b160 g     F ro	000000000000000c xlat_arch_current_el
0000000000017bd8 g     F ro	0000000000000070 esddev_int_wait
0000000000000000 g       *ABS*	0000000000000000 __PERCPU_BAKERY_LOCK_SIZE__
0000000000018d20 g     F ro	0000000000000108 esd_main
000000000001b0f0 g     F ro	0000000000000014 xlat_arch_get_pas
00000000000184a0 g     F ro	00000000000000a0 _sd_send_acmd
000000000001f8c9 g       .data	0000000000000000 __DATA_RAM_END__
0000000000019598 g     F ro	000000000000007c _sd_card_select_partition
000000000001ad00 g     F ro	0000000000000048 ddr_ctrl_reten_en_n
0000000000021480 g       .bss	0000000000000000 __PMF_PERCPU_TIMESTAMP_END__
00000000000126c0 g     F ro	000000000000006c bl2_main
000000000001f8c9 g       .data	0000000000000000 __DATA_END__
0000000000017c70 g     F ro	000000000000007c esddev_read_data
0000000000017330 g     F ro	000000000000003c emmc_make_trans_cmd
00000000000121e4 g       ro	0000000000000000 asm_print_hex_bits
0000000000021480 g       .bss	0000000000000000 __BASE_XLAT_TABLE_START__
000000000001dfd0 g       ro	0000000000000000 __CPU_OPS_START__
0000000000012b18 g     F ro	000000000000006c udelay
000000000001b108 g     F ro	0000000000000040 tcr_physical_addr_size_bits
0000000000012280 g     F ro	0000000000000038 inv_dcache_range
000000000001f8c8 g     O .data	0000000000000001 console_state
0000000000012000 g     F ro	00000000000000e8 bl2_entrypoint
0000000000017bb0 g     F ro	0000000000000020 esddev_get_clockdiv
00000000000189e0 g     F ro	00000000000000f0 _sd_init_hndl
0000000000012ba8 g     F ro	0000000000000090 generic_delay_timer_init
000000000001b068  w    F ro	0000000000000004 bl2_el3_plat_prepare_exit
0000000000019488 g     F ro	0000000000000090 _sd_card_get_scr
000000000001c480 g     O ro	0000000000000008 mc_mr5_tbl
0000000000021480 g       .bss	0000000000000000 __BAKERY_LOCK_END__
000000000001b9c8 g     F ro	0000000000000038 memcmp
0000000000012190 g     F ro	0000000000000010 cpu_get_rev_var
000000000001b290 g     F ro	0000000000000108 xlat_desc
0000000000017c50 g     F ro	0000000000000008 esddev_unl_cpu
00000000000214a0 g       .bss	0000000000000000 __BSS_END__
000000000001e000 g       ro	0000000000000000 __CPU_OPS_END__
0000000000012a30 g     F ro	0000000000000088 tzc400_enable_filters
0000000000013398 g     F ro	000000000000001c io_seek
00000000000133f8 g     F ro	0000000000000044 io_close
0000000000018e70 g     F ro	0000000000000270 _sd_card_init
00000000000129d8 g     F ro	0000000000000054 tzc400_configure_region
00000000000185a0 g     F ro	000000000000020c _sd_card_send_ocr
000000000001e000 g       ro	0000000000000000 __GOT_END__
000000000001ba70 g     F ro	0000000000000094 memset
000000000001dfd0 g       ro	0000000000000000 __PARSER_LIB_DESCS_END__
0000000000021480 g       .bss	0000000000000000 __BAKERY_LOCK_START__
0000000000017df0 g     F ro	0000000000000024 _sd_set_arg
0000000000013648 g     F ro	0000000000000094 bl2_el3_plat_arch_setup
0000000000017990 g     F ro	0000000000000208 pfc_setup
00000000000120e8 g     F ro	0000000000000038 bl2_run_next_image
00000000000123c4 g     F ro	0000000000000008 disable_mmu_icache_el3
000000000001f8c0 g     O .data	0000000000000004 bl_mem_params_desc_num
000000000001b078  w    F ro	0000000000000004 bl2_plat_preload_setup
0000000000017370 g     F ro	0000000000000080 emmc_send_idle_cmd
000000000001d118 g     O ro	0000000000000da0 mc_init_tbl
000000000001a5e0 g     F ro	0000000000000020 _sd_bit_search
00000000000125a0 g     F ro	0000000000000108 bl2_load_images
000000000001e000 g       ro	0000000000000000 bl2_el3_exceptions
0000000000020a30 g     O .bss	0000000000000330 mmc_drv_obj
0000000000012590 g     F ro	000000000000000c bl2_arch_setup
000000000001e000 g       ro	0000000000000000 __GOT_START__
0000000000012434 g     F ro	0000000000000050 console_rzg2l_register
0000000000012484 g     F ro	00000000000000a4 console_rzg2l_init
0000000000019740 g     F ro	00000000000001cc esd_mount
000000000002144c g     O .bss	0000000000000004 SDSelectPort
0000000000000000 g       *ABS*	0000000000000000 __PERCPU_TIMESTAMP_SIZE__
0000000000012978 g     F ro	0000000000000010 tzc400_set_action
000000000001dfd0 g       ro	0000000000000000 __FCONF_POPULATOR_END__
0000000000018368 g     F ro	0000000000000134 _sd_send_cmd
000000000001a2d0 g     F ro	0000000000000114 _sd_software_trans
00000000000160c0 g     F ro	0000000000000078 emmc_init
000000000001a740 g     F ro	000000000000003c esd_set_buffer
0000000000017210 g     F ro	000000000000001c emmc_write_error_info_func_no
00000000000214a0 g       .bss	0000000000000000 __BASE_XLAT_TABLE_END__
000000000001a8b8 g     F ro	000000000000001c syc_init
000000000001b010 g     F ro	0000000000000054 console_flush
000000000001f000 g       ro	0000000000000000 __RO_END__
0000000000013270 g     F ro	0000000000000018 io_dev_init
00000000000133d8 g     F ro	000000000000001c io_read
0000000000016650 g     F ro	00000000000001b0 emmc_set_request_mmc_clock
000000000001a9b0 g     F ro	0000000000000084 plat_security_setup
0000000000020900 g       .bss	0000000000000000 __BSS_START__
0000000000018bc8 g     F ro	0000000000000050 _sd_clear_info
000000000001f000 g       .data	0000000000000000 __DATA_RAM_START__
0000000000012000 g       ro	0000000000000000 __RO_START__
0000000000017bd0 g     F ro	0000000000000008 esddev_set_port
000000000001b5e8 g     F ro	000000000000027c mmap_add_region_ctx
000000000001b080  w    F ro	0000000000000008 plat_try_next_boot_source
0000000000018170 g     F ro	0000000000000170 _sd_check_csd
000000000001dfd0 g       ro	0000000000000000 __PMF_SVC_DESCS_START__
00000000000121bc g     F ro	0000000000000004 plat_crash_console_putc
00000000000132a0 g     F ro	00000000000000f8 io_open
00000000000126a8 g     F ro	0000000000000014 bl2_el3_setup
000000000001ac98 g     F ro	0000000000000068 plat_get_image_source
0000000000012988 g     F ro	0000000000000038 tzc400_init
000000000001ae60 g     F ro	00000000000000a0 tf_log
0000000000013238 g     F ro	0000000000000028 io_register_device
000000000001dfd0 g       ro	0000000000000000 __FCONF_POPULATOR_START__
0000000000016f50 g     F ro	00000000000001e4 emmc_read_sector
000000000001a458 g     F ro	0000000000000090 _sd_set_clock
0000000000028000 g       xlat_table	0000000000000000 __RW_END__
0000000000012798 g     F ro	0000000000000098 get_bl_load_info_from_mem_params_desc
000000000001f900 g       stacks	0000000000000000 __STACKS_START__
00000000000190e0 g     F ro	00000000000001bc _sd_read_byte
000000000001b248 g     F ro	0000000000000048 enable_mmu_el3
0000000000021480 g       .bss	0000000000000000 __PMF_TIMESTAMP_END__
0000000000012000 g       ro	0000000000000000 __TEXT_RESIDENT_START__
000000000001c490 g     O ro	0000000000000010 mc_odt_pins_tbl
000000000001b8b0 g     F ro	00000000000000fc init_xlat_tables_ctx
0000000000018c18 g     F ro	00000000000000b8 _sd_get_int
0000000000028000 g       xlat_table	0000000000000000 __XLAT_TABLE_END__
0000000000017e18 g     F ro	00000000000000b0 _sd_check_resp_error
0000000000013440 g     F ro	0000000000000008 bl2_plat_handle_pre_image_load
000000000001a5a0 g     F ro	0000000000000040 _sd_iswp
0000000000016088 g     F ro	0000000000000034 emmc_memcard_power
0000000000017c68 g     F ro	0000000000000008 esddev_disable_dma
00000000000131a8 g     F ro	0000000000000038 register_io_dev_memmap
000000000001a900 g     F ro	00000000000000b0 plat_tzc400_setup
000000000001c508 g     O ro	0000000000000080 swizzle_phy_tbl
0000000000013288 g     F ro	0000000000000018 io_dev_close
0000000000012218  w      ro	0000000000000000 el3_panic
000000000001b9b0 g     F ro	0000000000000004 xlat_mmap_print
0000000000013018 g     F ro	0000000000000038 register_io_dev_fip
00000000000129c0 g     F ro	0000000000000018 tzc400_configure_region0
0000000000017230 g     F ro	0000000000000100 emmc_make_nontrans_cmd
0000000000021290 g     O .bss	0000000000000008 console_list
0000000000017d18 g     F ro	00000000000000d8 _sd_get_ext_cd_int
000000000001a8f0 g     F ro	0000000000000004 plat_get_next_bl_params
0000000000021480 g       .bss	0000000000000000 __PERCPU_BAKERY_LOCK_START__
000000000001dfd0 g       ro	0000000000000000 __PARSER_LIB_DESCS_START__



Disassembly of section ro:

0000000000012000 <bl2_entrypoint>:
   12000:	aa0003f4 	mov	x20, x0
   12004:	aa0103f5 	mov	x21, x1
   12008:	aa0203f6 	mov	x22, x2
   1200c:	aa0303f7 	mov	x23, x3
   12010:	d2810600 	mov	x0, #0x830                 	// #2096
   12014:	f2a618a0 	movk	x0, #0x30c5, lsl #16
   12018:	d51e1000 	msr	sctlr_el3, x0
   1201c:	d5033fdf 	isb
   12020:	1005ff00 	adr	x0, 1e000 <SynchronousExceptionSP0>
   12024:	d51ec000 	msr	vbar_el3, x0
   12028:	d5033fdf 	isb
   1202c:	94000041 	bl	12130 <reset_handler>
   12030:	d2820141 	mov	x1, #0x100a                	// #4106
   12034:	d53e1000 	mrs	x0, sctlr_el3
   12038:	aa010000 	orr	x0, x0, x1
   1203c:	d51e1000 	msr	sctlr_el3, x0
   12040:	d5033fdf 	isb
   12044:	d2804700 	mov	x0, #0x238                 	// #568
   12048:	d51e1100 	msr	scr_el3, x0
   1204c:	d2900000 	mov	x0, #0x8000                	// #32768
   12050:	f2a01020 	movk	x0, #0x81, lsl #16
   12054:	f2c00080 	movk	x0, #0x4, lsl #32
   12058:	d5380501 	mrs	x1, id_aa64dfr0_el1
   1205c:	d368ac21 	ubfx	x1, x1, #40, #4
   12060:	b4000041 	cbz	x1, 12068 <bl2_entrypoint+0x68>
   12064:	b26d0000 	orr	x0, x0, #0x80000
   12068:	d51e1320 	msr	mdcr_el3, x0
   1206c:	d2801c00 	mov	x0, #0xe0                  	// #224
   12070:	d51b9c00 	msr	pmcr_el0, x0
   12074:	d50344ff 	msr	daifclr, #0x4
   12078:	d2a80000 	mov	x0, #0x40000000            	// #1073741824
   1207c:	d5380501 	mrs	x1, id_aa64dfr0_el1
   12080:	d3441c21 	ubfx	x1, x1, #4, #4
   12084:	b4000041 	cbz	x1, 1208c <bl2_entrypoint+0x8c>
   12088:	b26c0000 	orr	x0, x0, #0x100000
   1208c:	d51e1140 	msr	cptr_el3, x0
   12090:	94000048 	bl	121b0 <platform_mem_init>
   12094:	b0000060 	adrp	x0, 1f000 <__RO_END__>
   12098:	91000000 	add	x0, x0, #0x0
   1209c:	d00000a1 	adrp	x1, 28000 <__BL2_END__>
   120a0:	91000021 	add	x1, x1, #0x0
   120a4:	cb000021 	sub	x1, x1, x0
   120a8:	94000076 	bl	12280 <inv_dcache_range>
   120ac:	d0000060 	adrp	x0, 20000 <__STACKS_START__+0x700>
   120b0:	91240000 	add	x0, x0, #0x900
   120b4:	f0000061 	adrp	x1, 21000 <sd_drv_work_area+0x58>
   120b8:	91128021 	add	x1, x1, #0x4a0
   120bc:	cb000021 	sub	x1, x1, x0
   120c0:	9400007e 	bl	122b8 <zeromem>
   120c4:	d50040bf 	msr	spsel, #0x0
   120c8:	94000036 	bl	121a0 <plat_set_my_stack>
   120cc:	aa1403e0 	mov	x0, x20
   120d0:	aa1503e1 	mov	x1, x21
   120d4:	aa1603e2 	mov	x2, x22
   120d8:	aa1703e3 	mov	x3, x23
   120dc:	94000173 	bl	126a8 <bl2_el3_setup>
   120e0:	94000178 	bl	126c0 <bl2_main>
   120e4:	940000bc 	bl	123d4 <plat_panic_handler>

00000000000120e8 <bl2_run_next_image>:
   120e8:	aa0003f4 	mov	x20, x0
   120ec:	940000b6 	bl	123c4 <disable_mmu_icache_el3>
   120f0:	d50e871f 	tlbi	alle3
   120f4:	940023dd 	bl	1b068 <bl2_el3_plat_prepare_exit>
   120f8:	a9408680 	ldp	x0, x1, [x20, #8]
   120fc:	d51e4020 	msr	elr_el3, x0
   12100:	d51e4001 	msr	spsr_el3, x1
   12104:	a9449e86 	ldp	x6, x7, [x20, #72]
   12108:	a9439684 	ldp	x4, x5, [x20, #56]
   1210c:	a9428e82 	ldp	x2, x3, [x20, #40]
   12110:	a9418680 	ldp	x0, x1, [x20, #24]
   12114:	d69f03e0 	eret
   12118:	d503379f 	dsb	nsh
   1211c:	d5033fdf 	isb

0000000000012120 <cortex_a55_reset_func>:
   12120:	aa1e03f3 	mov	x19, x30
   12124:	9400001b 	bl	12190 <cpu_get_rev_var>
   12128:	aa0003f2 	mov	x18, x0
   1212c:	d65f0260 	ret	x19

0000000000012130 <reset_handler>:
   12130:	aa1e03f3 	mov	x19, x30
   12134:	940000a7 	bl	123d0 <plat_reset_handler>
   12138:	94000006 	bl	12150 <get_cpu_ops_ptr>
   1213c:	f9400402 	ldr	x2, [x0, #8]
   12140:	aa1303fe 	mov	x30, x19
   12144:	b4000042 	cbz	x2, 1214c <reset_handler+0x1c>
   12148:	d61f0040 	br	x2
   1214c:	d65f03c0 	ret

0000000000012150 <get_cpu_ops_ptr>:
   12150:	d5380002 	mrs	x2, midr_el1
   12154:	d29ffe03 	mov	x3, #0xfff0                	// #65520
   12158:	f2bfe003 	movk	x3, #0xff00, lsl #16
   1215c:	0a030042 	and	w2, w2, w3
   12160:	1005f505 	adr	x5, 1e000 <SynchronousExceptionSP0>
   12164:	d2800000 	mov	x0, #0x0                   	// #0
   12168:	1005f344 	adr	x4, 1dfd0 <__CPU_OPS_START__>
   1216c:	eb05009f 	cmp	x4, x5
   12170:	540000e0 	b.eq	1218c <search_def_ptr>  // b.none
   12174:	f8430481 	ldr	x1, [x4], #48
   12178:	0a030021 	and	w1, w1, w3
   1217c:	6b02003f 	cmp	w1, w2
   12180:	54ffff61 	b.ne	1216c <get_cpu_ops_ptr+0x1c>  // b.any
   12184:	d100c080 	sub	x0, x4, #0x30
   12188:	d65f03c0 	ret

000000000001218c <search_def_ptr>:
   1218c:	d65f03c0 	ret

0000000000012190 <cpu_get_rev_var>:
   12190:	d5380001 	mrs	x1, midr_el1
   12194:	d3505c20 	ubfx	x0, x1, #16, #8
   12198:	b3400c20 	bfxil	x0, x1, #0, #4
   1219c:	d65f03c0 	ret

00000000000121a0 <plat_set_my_stack>:
   121a0:	d0000060 	adrp	x0, 20000 <__STACKS_START__+0x700>
   121a4:	91240000 	add	x0, x0, #0x900
   121a8:	9100001f 	mov	sp, x0
   121ac:	d65f03c0 	ret

00000000000121b0 <platform_mem_init>:
   121b0:	d65f03c0 	ret

00000000000121b4 <plat_crash_console_init>:
   121b4:	d2800020 	mov	x0, #0x1                   	// #1
   121b8:	d65f03c0 	ret

00000000000121bc <plat_crash_console_putc>:
   121bc:	d65f03c0 	ret

00000000000121c0 <plat_crash_console_flush>:
   121c0:	d2800000 	mov	x0, #0x0                   	// #0
   121c4:	d65f03c0 	ret

00000000000121c8 <asm_print_str>:
   121c8:	aa1e03e3 	mov	x3, x30
   121cc:	38401480 	ldrb	w0, [x4], #1
   121d0:	b4000060 	cbz	x0, 121dc <asm_print_str+0x14>
   121d4:	97fffffa 	bl	121bc <plat_crash_console_putc>
   121d8:	17fffffd 	b	121cc <asm_print_str+0x4>
   121dc:	d65f0060 	ret	x3

00000000000121e0 <asm_print_hex>:
   121e0:	d2800805 	mov	x5, #0x40                  	// #64

00000000000121e4 <asm_print_hex_bits>:
   121e4:	aa1e03e3 	mov	x3, x30
   121e8:	d10010a5 	sub	x5, x5, #0x4
   121ec:	9ac52480 	lsr	x0, x4, x5
   121f0:	92400c00 	and	x0, x0, #0xf
   121f4:	f100281f 	cmp	x0, #0xa
   121f8:	54000043 	b.cc	12200 <asm_print_hex_bits+0x1c>  // b.lo, b.ul, b.last
   121fc:	91009c00 	add	x0, x0, #0x27
   12200:	9100c000 	add	x0, x0, #0x30
   12204:	97ffffee 	bl	121bc <plat_crash_console_putc>
   12208:	b5ffff05 	cbnz	x5, 121e8 <asm_print_hex_bits+0x4>
   1220c:	d65f0060 	ret	x3

0000000000012210 <asm_print_newline>:
   12210:	d2800140 	mov	x0, #0xa                   	// #10
   12214:	17ffffea 	b	121bc <plat_crash_console_putc>

0000000000012218 <do_panic>:
   12218:	aa1e03e6 	mov	x6, x30
   1221c:	97ffffe6 	bl	121b4 <plat_crash_console_init>
   12220:	b4000100 	cbz	x0, 12240 <_panic_handler>
   12224:	1005eca4 	adr	x4, 1dfb8 <panic_msg>
   12228:	97ffffe8 	bl	121c8 <asm_print_str>
   1222c:	aa0603e4 	mov	x4, x6
   12230:	d1001084 	sub	x4, x4, #0x4
   12234:	97ffffeb 	bl	121e0 <asm_print_hex>
   12238:	97fffff6 	bl	12210 <asm_print_newline>
   1223c:	97ffffe1 	bl	121c0 <plat_crash_console_flush>

0000000000012240 <_panic_handler>:
   12240:	aa0603fe 	mov	x30, x6
   12244:	14000064 	b	123d4 <plat_panic_handler>

0000000000012248 <flush_dcache_range>:
   12248:	b40001a1 	cbz	x1, 1227c <exit_loop_civac>
   1224c:	d53b0023 	mrs	x3, ctr_el0
   12250:	d3504c63 	ubfx	x3, x3, #16, #4
   12254:	d2800082 	mov	x2, #0x4                   	// #4
   12258:	9ac32042 	lsl	x2, x2, x3
   1225c:	8b010001 	add	x1, x0, x1
   12260:	d1000443 	sub	x3, x2, #0x1
   12264:	8a230000 	bic	x0, x0, x3

0000000000012268 <loop_civac>:
   12268:	d50b7e20 	dc	civac, x0
   1226c:	8b020000 	add	x0, x0, x2
   12270:	eb01001f 	cmp	x0, x1
   12274:	54ffffa3 	b.cc	12268 <loop_civac>  // b.lo, b.ul, b.last
   12278:	d5033f9f 	dsb	sy

000000000001227c <exit_loop_civac>:
   1227c:	d65f03c0 	ret

0000000000012280 <inv_dcache_range>:
   12280:	b40001a1 	cbz	x1, 122b4 <exit_loop_ivac>
   12284:	d53b0023 	mrs	x3, ctr_el0
   12288:	d3504c63 	ubfx	x3, x3, #16, #4
   1228c:	d2800082 	mov	x2, #0x4                   	// #4
   12290:	9ac32042 	lsl	x2, x2, x3
   12294:	8b010001 	add	x1, x0, x1
   12298:	d1000443 	sub	x3, x2, #0x1
   1229c:	8a230000 	bic	x0, x0, x3

00000000000122a0 <loop_ivac>:
   122a0:	d5087620 	dc	ivac, x0
   122a4:	8b020000 	add	x0, x0, x2
   122a8:	eb01001f 	cmp	x0, x1
   122ac:	54ffffa3 	b.cc	122a0 <loop_ivac>  // b.lo, b.ul, b.last
   122b0:	d5033f9f 	dsb	sy

00000000000122b4 <exit_loop_ivac>:
   122b4:	d65f03c0 	ret

00000000000122b8 <zeromem>:
   122b8:	8b010002 	add	x2, x0, x1
   122bc:	14000030 	b	1237c <zero_normalmem+0xbc>

00000000000122c0 <zero_normalmem>:
   122c0:	8b010002 	add	x2, x0, x1
   122c4:	d53b00e3 	mrs	x3, dczid_el0
   122c8:	d3400c63 	ubfx	x3, x3, #0, #4
   122cc:	d2800085 	mov	x5, #0x4                   	// #4
   122d0:	9ac320a3 	lsl	x3, x5, x3
   122d4:	eb03003f 	cmp	x1, x3
   122d8:	54000523 	b.cc	1237c <zero_normalmem+0xbc>  // b.lo, b.ul, b.last
   122dc:	d1000461 	sub	x1, x3, #0x1
   122e0:	ea01001f 	tst	x0, x1
   122e4:	54000260 	b.eq	12330 <zero_normalmem+0x70>  // b.none
   122e8:	aa010004 	orr	x4, x0, x1
   122ec:	91000484 	add	x4, x4, #0x1
   122f0:	b4000464 	cbz	x4, 1237c <zero_normalmem+0xbc>
   122f4:	eb02009f 	cmp	x4, x2
   122f8:	54000428 	b.hi	1237c <zero_normalmem+0xbc>  // b.pmore
   122fc:	f2400c1f 	tst	x0, #0xf
   12300:	540000e0 	b.eq	1231c <zero_normalmem+0x5c>  // b.none
   12304:	b2400c05 	orr	x5, x0, #0xf
   12308:	910004a5 	add	x5, x5, #0x1
   1230c:	b4000385 	cbz	x5, 1237c <zero_normalmem+0xbc>
   12310:	3800141f 	strb	wzr, [x0], #1
   12314:	eb05001f 	cmp	x0, x5
   12318:	54ffffc1 	b.ne	12310 <zero_normalmem+0x50>  // b.any
   1231c:	eb04001f 	cmp	x0, x4
   12320:	54000082 	b.cs	12330 <zero_normalmem+0x70>  // b.hs, b.nlast
   12324:	a8817c1f 	stp	xzr, xzr, [x0], #16
   12328:	eb04001f 	cmp	x0, x4
   1232c:	54ffffc3 	b.cc	12324 <zero_normalmem+0x64>  // b.lo, b.ul, b.last
   12330:	8a210044 	bic	x4, x2, x1
   12334:	eb04001f 	cmp	x0, x4
   12338:	540000a2 	b.cs	1234c <zero_normalmem+0x8c>  // b.hs, b.nlast
   1233c:	d50b7420 	dc	zva, x0
   12340:	8b030000 	add	x0, x0, x3
   12344:	eb04001f 	cmp	x0, x4
   12348:	54ffffa3 	b.cc	1233c <zero_normalmem+0x7c>  // b.lo, b.ul, b.last
   1234c:	927cec44 	and	x4, x2, #0xfffffffffffffff0
   12350:	eb04001f 	cmp	x0, x4
   12354:	54000082 	b.cs	12364 <zero_normalmem+0xa4>  // b.hs, b.nlast
   12358:	a8817c1f 	stp	xzr, xzr, [x0], #16
   1235c:	eb04001f 	cmp	x0, x4
   12360:	54ffffc3 	b.cc	12358 <zero_normalmem+0x98>  // b.lo, b.ul, b.last
   12364:	eb02001f 	cmp	x0, x2
   12368:	54000080 	b.eq	12378 <zero_normalmem+0xb8>  // b.none
   1236c:	3800141f 	strb	wzr, [x0], #1
   12370:	eb02001f 	cmp	x0, x2
   12374:	54ffffc1 	b.ne	1236c <zero_normalmem+0xac>  // b.any
   12378:	d65f03c0 	ret
   1237c:	f2400c1f 	tst	x0, #0xf
   12380:	54fffe60 	b.eq	1234c <zero_normalmem+0x8c>  // b.none
   12384:	b2400c04 	orr	x4, x0, #0xf
   12388:	91000484 	add	x4, x4, #0x1
   1238c:	b4fffec4 	cbz	x4, 12364 <zero_normalmem+0xa4>
   12390:	eb02009f 	cmp	x4, x2
   12394:	54fffe82 	b.cs	12364 <zero_normalmem+0xa4>  // b.hs, b.nlast
   12398:	3800141f 	strb	wzr, [x0], #1
   1239c:	eb04001f 	cmp	x0, x4
   123a0:	54ffffc1 	b.ne	12398 <zero_normalmem+0xd8>  // b.any
   123a4:	17ffffea 	b	1234c <zero_normalmem+0x8c>

00000000000123a8 <disable_mmu_el3>:
   123a8:	d28000a1 	mov	x1, #0x5                   	// #5

00000000000123ac <do_disable_mmu_el3>:
   123ac:	d53e1000 	mrs	x0, sctlr_el3
   123b0:	8a210000 	bic	x0, x0, x1
   123b4:	d51e1000 	msr	sctlr_el3, x0
   123b8:	d5033fdf 	isb
   123bc:	d5033f9f 	dsb	sy
   123c0:	d65f03c0 	ret

00000000000123c4 <disable_mmu_icache_el3>:
   123c4:	d28200a1 	mov	x1, #0x1005                	// #4101
   123c8:	17fffff9 	b	123ac <do_disable_mmu_el3>

00000000000123cc <plat_report_exception>:
   123cc:	d65f03c0 	ret

00000000000123d0 <plat_reset_handler>:
   123d0:	d65f03c0 	ret

00000000000123d4 <plat_panic_handler>:
   123d4:	d503207f 	wfi
   123d8:	17ffffff 	b	123d4 <plat_panic_handler>

00000000000123dc <enable_mmu_direct_el3>:
   123dc:	d50e871f 	tlbi	alle3
   123e0:	aa0003e7 	mov	x7, x0
   123e4:	f0000060 	adrp	x0, 21000 <sd_drv_work_area+0x58>
   123e8:	910a6000 	add	x0, x0, #0x298
   123ec:	f9400001 	ldr	x1, [x0]
   123f0:	d51ea201 	msr	mair_el3, x1
   123f4:	f9400402 	ldr	x2, [x0, #8]
   123f8:	d51e2042 	msr	tcr_el3, x2
   123fc:	f9400803 	ldr	x3, [x0, #16]
   12400:	d51e2003 	msr	ttbr0_el3, x3
   12404:	d5033b9f 	dsb	ish
   12408:	d5033fdf 	isb
   1240c:	d53e1004 	mrs	x4, sctlr_el3
   12410:	d28000a5 	mov	x5, #0x5                   	// #5
   12414:	f2a00105 	movk	x5, #0x8, lsl #16
   12418:	aa050084 	orr	x4, x4, x5
   1241c:	927df885 	and	x5, x4, #0xfffffffffffffffb
   12420:	f24000ff 	tst	x7, #0x1
   12424:	9a8410a4 	csel	x4, x5, x4, ne  // ne = any
   12428:	d51e1004 	msr	sctlr_el3, x4
   1242c:	d5033fdf 	isb
   12430:	d65f03c0 	ret

0000000000012434 <console_rzg2l_register>:
   12434:	aa1e03e7 	mov	x7, x30
   12438:	aa0303e6 	mov	x6, x3
   1243c:	b4000206 	cbz	x6, 1247c <register_fail>
   12440:	f90014c0 	str	x0, [x6, #40]
   12444:	94000010 	bl	12484 <console_rzg2l_init>
   12448:	aa0603e0 	mov	x0, x6
   1244c:	aa0703fe 	mov	x30, x7
   12450:	90000001 	adrp	x1, 12000 <bl2_entrypoint>
   12454:	9114a021 	add	x1, x1, #0x528
   12458:	f9000801 	str	x1, [x0, #16]
   1245c:	f9000c1f 	str	xzr, [x0, #24]
   12460:	90000001 	adrp	x1, 12000 <bl2_entrypoint>
   12464:	9115c021 	add	x1, x1, #0x570
   12468:	f9001001 	str	x1, [x0, #32]
   1246c:	d28000a1 	mov	x1, #0x5                   	// #5
   12470:	f9000401 	str	x1, [x0, #8]
   12474:	140022a3 	b	1af00 <console_register>
   12478:	14000002 	b	12480 <l_ret>

000000000001247c <register_fail>:
   1247c:	d2800000 	mov	x0, #0x0                   	// #0

0000000000012480 <l_ret>:
   12480:	d65f00e0 	ret	x7

0000000000012484 <console_rzg2l_init>:
   12484:	52800003 	mov	w3, #0x0                   	// #0
   12488:	79000803 	strh	w3, [x0, #4]
   1248c:	528000c3 	mov	w3, #0x6                   	// #6
   12490:	79001803 	strh	w3, [x0, #12]
   12494:	79401003 	ldrh	w3, [x0, #8]
   12498:	79402403 	ldrh	w3, [x0, #18]
   1249c:	52800003 	mov	w3, #0x0                   	// #0
   124a0:	79001003 	strh	w3, [x0, #8]
   124a4:	79002403 	strh	w3, [x0, #18]
   124a8:	79400803 	ldrh	w3, [x0, #4]
   124ac:	121e7463 	and	w3, w3, #0xfffffffc
   124b0:	79000803 	strh	w3, [x0, #4]
   124b4:	52800003 	mov	w3, #0x0                   	// #0
   124b8:	79000003 	strh	w3, [x0]
   124bc:	52800003 	mov	w3, #0x0                   	// #0
   124c0:	39005003 	strb	w3, [x0, #20]
   124c4:	1ac20823 	udiv	w3, w1, w2
   124c8:	53057c63 	lsr	w3, w3, #5
   124cc:	51000463 	sub	w3, w3, #0x1
   124d0:	39000803 	strb	w3, [x0, #2]
   124d4:	91000463 	add	x3, x3, #0x1
   124d8:	d373c863 	lsl	x3, x3, #13
   124dc:	9b027c63 	mul	x3, x3, x2
   124e0:	9ac10863 	udiv	x3, x3, x1
   124e4:	52800601 	mov	w1, #0x30                  	// #48
   124e8:	39005001 	strb	w1, [x0, #20]
   124ec:	39000803 	strb	w3, [x0, #2]
   124f0:	52800003 	mov	w3, #0x0                   	// #0
   124f4:	11000463 	add	w3, w3, #0x1
   124f8:	7104007f 	cmp	w3, #0x100
   124fc:	54ffffc1 	b.ne	124f4 <console_rzg2l_init+0x70>  // b.any
   12500:	79402c03 	ldrh	w3, [x0, #22]
   12504:	12187863 	and	w3, w3, #0xffffff7f
   12508:	12107863 	and	w3, w3, #0xffff7fff
   1250c:	79002c03 	strh	w3, [x0, #22]
   12510:	52800003 	mov	w3, #0x0                   	// #0
   12514:	79001803 	strh	w3, [x0, #12]
   12518:	52800603 	mov	w3, #0x30                  	// #48
   1251c:	79000803 	strh	w3, [x0, #4]
   12520:	d2800020 	mov	x0, #0x1                   	// #1
   12524:	d65f03c0 	ret

0000000000012528 <console_rzg2l_putc>:
   12528:	f9401421 	ldr	x1, [x1, #40]
   1252c:	7100281f 	cmp	w0, #0xa
   12530:	540000e1 	b.ne	1254c <console_rzg2l_putc+0x24>  // b.any
   12534:	79401c22 	ldrh	w2, [x1, #14]
   12538:	53083042 	ubfx	w2, w2, #8, #5
   1253c:	7100405f 	cmp	w2, #0x10
   12540:	54ffffaa 	b.ge	12534 <console_rzg2l_putc+0xc>  // b.tcont
   12544:	528001a2 	mov	w2, #0xd                   	// #13
   12548:	39001822 	strb	w2, [x1, #6]
   1254c:	79401c22 	ldrh	w2, [x1, #14]
   12550:	53083042 	ubfx	w2, w2, #8, #5
   12554:	7100405f 	cmp	w2, #0x10
   12558:	54ffffaa 	b.ge	1254c <console_rzg2l_putc+0x24>  // b.tcont
   1255c:	39001820 	strb	w0, [x1, #6]
   12560:	79401022 	ldrh	w2, [x1, #8]
   12564:	12197842 	and	w2, w2, #0xffffffbf
   12568:	79001022 	strh	w2, [x1, #8]
   1256c:	d65f03c0 	ret

0000000000012570 <console_rzg2l_flush>:
   12570:	f9401400 	ldr	x0, [x0, #40]
   12574:	79401001 	ldrh	w1, [x0, #8]
   12578:	121a0021 	and	w1, w1, #0x40
   1257c:	7101003f 	cmp	w1, #0x40
   12580:	54ffffa1 	b.ne	12574 <console_rzg2l_flush+0x4>  // b.any
   12584:	52800000 	mov	w0, #0x0                   	// #0
   12588:	d65f03c0 	ret

000000000001258c <__TEXT_RESIDENT_END__>:
   1258c:	00000000 	.inst	0x00000000 ; undefined

0000000000012590 <bl2_arch_setup>:
   12590:	d2a00600 	mov	x0, #0x300000              	// #3145728
   12594:	d5181040 	msr	cpacr_el1, x0
   12598:	d65f03c0 	ret
   1259c:	00000000 	.inst	0x00000000 ; undefined

00000000000125a0 <bl2_load_images>:
   125a0:	a9bd7bfd 	stp	x29, x30, [sp, #-48]!
   125a4:	910003fd 	mov	x29, sp
   125a8:	a90153f3 	stp	x19, x20, [sp, #16]
   125ac:	940020cf 	bl	1a8e8 <plat_get_bl_image_load_info>
   125b0:	f9400413 	ldr	x19, [x0, #8]
   125b4:	b40003b3 	cbz	x19, 12628 <bl2_load_images+0x88>
   125b8:	f90013f5 	str	x21, [sp, #32]
   125bc:	52800015 	mov	w21, #0x0                   	// #0
   125c0:	14000012 	b	12608 <bl2_load_images+0x68>
   125c4:	b9400260 	ldr	w0, [x19]
   125c8:	9400039e 	bl	13440 <bl2_plat_handle_pre_image_load>
   125cc:	2a0003f4 	mov	w20, w0
   125d0:	35000520 	cbnz	w0, 12674 <bl2_load_images+0xd4>
   125d4:	f9400661 	ldr	x1, [x19, #8]
   125d8:	b9400260 	ldr	w0, [x19]
   125dc:	b9400422 	ldr	w2, [x1, #4]
   125e0:	370800a2 	tbnz	w2, #1, 125f4 <bl2_load_images+0x54>
   125e4:	940021d9 	bl	1ad48 <load_auth_image>
   125e8:	2a0003f4 	mov	w20, w0
   125ec:	35000500 	cbnz	w0, 1268c <bl2_load_images+0xec>
   125f0:	b9400260 	ldr	w0, [x19]
   125f4:	94000395 	bl	13448 <bl2_plat_handle_post_image_load>
   125f8:	2a0003f4 	mov	w20, w0
   125fc:	35000300 	cbnz	w0, 1265c <bl2_load_images+0xbc>
   12600:	f9400a73 	ldr	x19, [x19, #16]
   12604:	b4000113 	cbz	x19, 12624 <bl2_load_images+0x84>
   12608:	f9400660 	ldr	x0, [x19, #8]
   1260c:	b9400400 	ldr	w0, [x0, #4]
   12610:	3617fda0 	tbz	w0, #2, 125c4 <bl2_load_images+0x24>
   12614:	35fffd95 	cbnz	w21, 125c4 <bl2_load_images+0x24>
   12618:	52800035 	mov	w21, #0x1                   	// #1
   1261c:	94000431 	bl	136e0 <bl2_platform_setup>
   12620:	17ffffe9 	b	125c4 <bl2_load_images+0x24>
   12624:	f94013f5 	ldr	x21, [sp, #32]
   12628:	940020b2 	bl	1a8f0 <plat_get_next_bl_params>
   1262c:	aa0003f3 	mov	x19, x0
   12630:	f9400400 	ldr	x0, [x0, #8]
   12634:	f9400800 	ldr	x0, [x0, #16]
   12638:	f9400c01 	ldr	x1, [x0, #24]
   1263c:	b5000041 	cbnz	x1, 12644 <bl2_load_images+0xa4>
   12640:	f9000c13 	str	x19, [x0, #24]
   12644:	940020ad 	bl	1a8f8 <plat_flush_next_bl_params>
   12648:	f9400660 	ldr	x0, [x19, #8]
   1264c:	a94153f3 	ldp	x19, x20, [sp, #16]
   12650:	a8c37bfd 	ldp	x29, x30, [sp], #48
   12654:	f9400800 	ldr	x0, [x0, #16]
   12658:	d65f03c0 	ret
   1265c:	2a0003e1 	mov	w1, w0
   12660:	d0000040 	adrp	x0, 1c000 <vprintf+0x418>
   12664:	91078000 	add	x0, x0, #0x1e0
   12668:	940021fe 	bl	1ae60 <tf_log>
   1266c:	2a1403e0 	mov	w0, w20
   12670:	94002280 	bl	1b070 <plat_error_handler>
   12674:	2a0003e1 	mov	w1, w0
   12678:	d0000040 	adrp	x0, 1c000 <vprintf+0x418>
   1267c:	91062000 	add	x0, x0, #0x188
   12680:	940021f8 	bl	1ae60 <tf_log>
   12684:	2a1403e0 	mov	w0, w20
   12688:	9400227a 	bl	1b070 <plat_error_handler>
   1268c:	b9400261 	ldr	w1, [x19]
   12690:	2a0003e2 	mov	w2, w0
   12694:	d0000040 	adrp	x0, 1c000 <vprintf+0x418>
   12698:	9106e000 	add	x0, x0, #0x1b8
   1269c:	940021f1 	bl	1ae60 <tf_log>
   126a0:	2a1403e0 	mov	w0, w20
   126a4:	94002273 	bl	1b070 <plat_error_handler>

00000000000126a8 <bl2_el3_setup>:
   126a8:	a9bf7bfd 	stp	x29, x30, [sp, #-16]!
   126ac:	910003fd 	mov	x29, sp
   126b0:	94000390 	bl	134f0 <bl2_el3_early_platform_setup>
   126b4:	a8c17bfd 	ldp	x29, x30, [sp], #16
   126b8:	140003e4 	b	13648 <bl2_el3_plat_arch_setup>
   126bc:	00000000 	.inst	0x00000000 ; undefined

00000000000126c0 <bl2_main>:
   126c0:	a9be7bfd 	stp	x29, x30, [sp, #-32]!
   126c4:	d0000041 	adrp	x1, 1c000 <vprintf+0x418>
   126c8:	91054021 	add	x1, x1, #0x150
   126cc:	910003fd 	mov	x29, sp
   126d0:	f9000bf3 	str	x19, [sp, #16]
   126d4:	d0000053 	adrp	x19, 1c000 <vprintf+0x418>
   126d8:	91084273 	add	x19, x19, #0x210
   126dc:	aa1303e0 	mov	x0, x19
   126e0:	940021e0 	bl	1ae60 <tf_log>
   126e4:	aa1303e0 	mov	x0, x19
   126e8:	d0000041 	adrp	x1, 1c000 <vprintf+0x418>
   126ec:	9104c021 	add	x1, x1, #0x130
   126f0:	940021dc 	bl	1ae60 <tf_log>
   126f4:	97ffffa7 	bl	12590 <bl2_arch_setup>
   126f8:	94002260 	bl	1b078 <bl2_plat_preload_setup>
   126fc:	97ffffa9 	bl	125a0 <bl2_load_images>
   12700:	aa0003f3 	mov	x19, x0
   12704:	d0000040 	adrp	x0, 1c000 <vprintf+0x418>
   12708:	91088000 	add	x0, x0, #0x220
   1270c:	940021d5 	bl	1ae60 <tf_log>
   12710:	aa1303e0 	mov	x0, x19
   12714:	940021d1 	bl	1ae58 <print_entry_point_info>
   12718:	9400223e 	bl	1b010 <console_flush>
   1271c:	aa1303e0 	mov	x0, x19
   12720:	f9400bf3 	ldr	x19, [sp, #16]
   12724:	a8c27bfd 	ldp	x29, x30, [sp], #32
   12728:	17fffe70 	b	120e8 <bl2_run_next_image>
   1272c:	00000000 	.inst	0x00000000 ; undefined

0000000000012730 <get_bl_mem_params_node>:
   12730:	b0000061 	adrp	x1, 1f000 <__RO_END__>
   12734:	b948c024 	ldr	w4, [x1, #2240]
   12738:	340001e4 	cbz	w4, 12774 <get_bl_mem_params_node+0x44>
   1273c:	b0000061 	adrp	x1, 1f000 <__RO_END__>
   12740:	f940c025 	ldr	x5, [x1, #384]
   12744:	b94000a1 	ldr	w1, [x5]
   12748:	6b01001f 	cmp	w0, w1
   1274c:	54000160 	b.eq	12778 <get_bl_mem_params_node+0x48>  // b.none
   12750:	9102e0a2 	add	x2, x5, #0xb8
   12754:	52800001 	mov	w1, #0x0                   	// #0
   12758:	14000004 	b	12768 <get_bl_mem_params_node+0x38>
   1275c:	b84b8443 	ldr	w3, [x2], #184
   12760:	6b03001f 	cmp	w0, w3
   12764:	540000e0 	b.eq	12780 <get_bl_mem_params_node+0x50>  // b.none
   12768:	11000421 	add	w1, w1, #0x1
   1276c:	6b04003f 	cmp	w1, w4
   12770:	54ffff61 	b.ne	1275c <get_bl_mem_params_node+0x2c>  // b.any
   12774:	d2800005 	mov	x5, #0x0                   	// #0
   12778:	aa0503e0 	mov	x0, x5
   1277c:	d65f03c0 	ret
   12780:	37ffffa1 	tbnz	w1, #31, 12774 <get_bl_mem_params_node+0x44>
   12784:	52801700 	mov	w0, #0xb8                  	// #184
   12788:	9b201425 	smaddl	x5, w1, w0, x5
   1278c:	aa0503e0 	mov	x0, x5
   12790:	d65f03c0 	ret
   12794:	00000000 	.inst	0x00000000 ; undefined

0000000000012798 <get_bl_load_info_from_mem_params_desc>:
   12798:	b0000060 	adrp	x0, 1f000 <__RO_END__>
   1279c:	b948c004 	ldr	w4, [x0, #2240]
   127a0:	34000444 	cbz	w4, 12828 <get_bl_load_info_from_mem_params_desc+0x90>
   127a4:	b0000060 	adrp	x0, 1f000 <__RO_END__>
   127a8:	d0000061 	adrp	x1, 20000 <__STACKS_START__+0x700>
   127ac:	d2804083 	mov	x3, #0x204                 	// #516
   127b0:	51000484 	sub	w4, w4, #0x1
   127b4:	f940c002 	ldr	x2, [x0, #384]
   127b8:	f2a00203 	movk	x3, #0x10, lsl #16
   127bc:	91240020 	add	x0, x1, #0x900
   127c0:	f9048023 	str	x3, [x1, #2304]
   127c4:	91002041 	add	x1, x2, #0x8
   127c8:	91030043 	add	x3, x2, #0xc0
   127cc:	52801705 	mov	w5, #0xb8                  	// #184
   127d0:	91020042 	add	x2, x2, #0x80
   127d4:	f9000402 	str	x2, [x0, #8]
   127d8:	9102e022 	add	x2, x1, #0xb8
   127dc:	9ba50c84 	umaddl	x4, w4, w5, x3
   127e0:	b85f8023 	ldur	w3, [x1, #-8]
   127e4:	b9007823 	str	w3, [x1, #120]
   127e8:	9104c023 	add	x3, x1, #0x130
   127ec:	f9004021 	str	x1, [x1, #128]
   127f0:	eb04005f 	cmp	x2, x4
   127f4:	aa0203e1 	mov	x1, x2
   127f8:	54000160 	b.eq	12824 <get_bl_load_info_from_mem_params_desc+0x8c>  // b.none
   127fc:	d503201f 	nop
   12800:	f81d0043 	stur	x3, [x2, #-48]
   12804:	9102e022 	add	x2, x1, #0xb8
   12808:	b85f8023 	ldur	w3, [x1, #-8]
   1280c:	eb04005f 	cmp	x2, x4
   12810:	b9007823 	str	w3, [x1, #120]
   12814:	9104c023 	add	x3, x1, #0x130
   12818:	f9004021 	str	x1, [x1, #128]
   1281c:	aa0203e1 	mov	x1, x2
   12820:	54ffff01 	b.ne	12800 <get_bl_load_info_from_mem_params_desc+0x68>  // b.any
   12824:	d65f03c0 	ret
   12828:	d2800000 	mov	x0, #0x0                   	// #0
   1282c:	d65f03c0 	ret

0000000000012830 <get_next_bl_params_from_mem_params_desc>:
   12830:	b0000060 	adrp	x0, 1f000 <__RO_END__>
   12834:	b948c005 	ldr	w5, [x0, #2240]
   12838:	340009a5 	cbz	w5, 1296c <get_next_bl_params_from_mem_params_desc+0x13c>
   1283c:	b0000060 	adrp	x0, 1f000 <__RO_END__>
   12840:	f940c006 	ldr	x6, [x0, #384]
   12844:	b94024c0 	ldr	w0, [x6, #36]
   12848:	121d0400 	and	w0, w0, #0x18
   1284c:	7100601f 	cmp	w0, #0x18
   12850:	540007e0 	b.eq	1294c <get_next_bl_params_from_mem_params_desc+0x11c>  // b.none
   12854:	9102e0c0 	add	x0, x6, #0xb8
   12858:	510004a3 	sub	w3, w5, #0x1
   1285c:	52801701 	mov	w1, #0xb8                  	// #184
   12860:	9ba10063 	umaddl	x3, w3, w1, x0
   12864:	14000006 	b	1287c <get_next_bl_params_from_mem_params_desc+0x4c>
   12868:	b9402441 	ldr	w1, [x2, #36]
   1286c:	9102e000 	add	x0, x0, #0xb8
   12870:	121d0421 	and	w1, w1, #0x18
   12874:	7100603f 	cmp	w1, #0x18
   12878:	540006c0 	b.eq	12950 <get_next_bl_params_from_mem_params_desc+0x120>  // b.none
   1287c:	aa0003e2 	mov	x2, x0
   12880:	eb03001f 	cmp	x0, x3
   12884:	54ffff21 	b.ne	12868 <get_next_bl_params_from_mem_params_desc+0x38>  // b.any
   12888:	d0000061 	adrp	x1, 20000 <__STACKS_START__+0x700>
   1288c:	aa0603e2 	mov	x2, x6
   12890:	91244020 	add	x0, x1, #0x910
   12894:	910260c7 	add	x7, x6, #0x98
   12898:	d28040a3 	mov	x3, #0x205                 	// #517
   1289c:	52800008 	mov	w8, #0x0                   	// #0
   128a0:	f2a00203 	movk	x3, #0x10, lsl #16
   128a4:	f9048823 	str	x3, [x1, #2320]
   128a8:	91002043 	add	x3, x2, #0x8
   128ac:	91008041 	add	x1, x2, #0x20
   128b0:	b9400044 	ldr	w4, [x2]
   128b4:	5280170a 	mov	w10, #0xb8                  	// #184
   128b8:	b9009844 	str	w4, [x2, #152]
   128bc:	b9407844 	ldr	w4, [x2, #120]
   128c0:	a90084e3 	stp	x3, x1, [x7, #8]
   128c4:	3100049f 	cmn	w4, #0x1
   128c8:	54000400 	b.eq	12948 <get_next_bl_params_from_mem_params_desc+0x118>  // b.none
   128cc:	d503201f 	nop
   128d0:	b94000c1 	ldr	w1, [x6]
   128d4:	6b01009f 	cmp	w4, w1
   128d8:	54000460 	b.eq	12964 <get_next_bl_params_from_mem_params_desc+0x134>  // b.none
   128dc:	9102e0c2 	add	x2, x6, #0xb8
   128e0:	52800001 	mov	w1, #0x0                   	// #0
   128e4:	14000004 	b	128f4 <get_next_bl_params_from_mem_params_desc+0xc4>
   128e8:	b84b8443 	ldr	w3, [x2], #184
   128ec:	6b03009f 	cmp	w4, w3
   128f0:	540000a0 	b.eq	12904 <get_next_bl_params_from_mem_params_desc+0xd4>  // b.none
   128f4:	11000421 	add	w1, w1, #0x1
   128f8:	6b0100bf 	cmp	w5, w1
   128fc:	54ffff61 	b.ne	128e8 <get_next_bl_params_from_mem_params_desc+0xb8>  // b.any
   12900:	12800001 	mov	w1, #0xffffffff            	// #-1
   12904:	11000508 	add	w8, w8, #0x1
   12908:	6b0800bf 	cmp	w5, w8
   1290c:	540001e0 	b.eq	12948 <get_next_bl_params_from_mem_params_desc+0x118>  // b.none
   12910:	9baa7c21 	umull	x1, w1, w10
   12914:	8b0100c2 	add	x2, x6, x1
   12918:	91026043 	add	x3, x2, #0x98
   1291c:	91002044 	add	x4, x2, #0x8
   12920:	b86168c9 	ldr	w9, [x6, x1]
   12924:	91008041 	add	x1, x2, #0x20
   12928:	b9009849 	str	w9, [x2, #152]
   1292c:	a9008464 	stp	x4, x1, [x3, #8]
   12930:	b4000047 	cbz	x7, 12938 <get_next_bl_params_from_mem_params_desc+0x108>
   12934:	f9000ce3 	str	x3, [x7, #24]
   12938:	b9407844 	ldr	w4, [x2, #120]
   1293c:	aa0303e7 	mov	x7, x3
   12940:	3100049f 	cmn	w4, #0x1
   12944:	54fffc61 	b.ne	128d0 <get_next_bl_params_from_mem_params_desc+0xa0>  // b.any
   12948:	d65f03c0 	ret
   1294c:	aa0603e2 	mov	x2, x6
   12950:	d0000061 	adrp	x1, 20000 <__STACKS_START__+0x700>
   12954:	91244020 	add	x0, x1, #0x910
   12958:	91026047 	add	x7, x2, #0x98
   1295c:	f9000407 	str	x7, [x0, #8]
   12960:	17ffffce 	b	12898 <get_next_bl_params_from_mem_params_desc+0x68>
   12964:	52800001 	mov	w1, #0x0                   	// #0
   12968:	17ffffe7 	b	12904 <get_next_bl_params_from_mem_params_desc+0xd4>
   1296c:	d2800000 	mov	x0, #0x0                   	// #0
   12970:	d65f03c0 	ret
   12974:	00000000 	.inst	0x00000000 ; undefined

0000000000012978 <tzc400_set_action>:
   12978:	d0000061 	adrp	x1, 20000 <__STACKS_START__+0x700>
   1297c:	f9449021 	ldr	x1, [x1, #2336]
   12980:	b9000420 	str	w0, [x1, #4]
   12984:	d65f03c0 	ret

0000000000012988 <tzc400_init>:
   12988:	d0000062 	adrp	x2, 20000 <__STACKS_START__+0x700>
   1298c:	91248041 	add	x1, x2, #0x920
   12990:	f9049040 	str	x0, [x2, #2336]
   12994:	b9400000 	ldr	w0, [x0]
   12998:	12001002 	and	w2, w0, #0x1f
   1299c:	d3586403 	ubfx	x3, x0, #24, #2
   129a0:	d3483400 	ubfx	x0, x0, #8, #6
   129a4:	11000463 	add	w3, w3, #0x1
   129a8:	11000400 	add	w0, w0, #0x1
   129ac:	11000442 	add	w2, w2, #0x1
   129b0:	39002020 	strb	w0, [x1, #8]
   129b4:	39002423 	strb	w3, [x1, #9]
   129b8:	39002822 	strb	w2, [x1, #10]
   129bc:	d65f03c0 	ret

00000000000129c0 <tzc400_configure_region0>:
   129c0:	d0000062 	adrp	x2, 20000 <__STACKS_START__+0x700>
   129c4:	53020400 	lsl	w0, w0, #30
   129c8:	f9449042 	ldr	x2, [x2, #2336]
   129cc:	b9011040 	str	w0, [x2, #272]
   129d0:	b9011441 	str	w1, [x2, #276]
   129d4:	d65f03c0 	ret

00000000000129d8 <tzc400_configure_region>:
   129d8:	71003c1f 	cmp	w0, #0xf
   129dc:	d0000066 	adrp	x6, 20000 <__STACKS_START__+0x700>
   129e0:	540000c1 	b.ne	129f8 <tzc400_configure_region+0x20>  // b.any
   129e4:	912480c7 	add	x7, x6, #0x920
   129e8:	52800020 	mov	w0, #0x1                   	// #1
   129ec:	394024e7 	ldrb	w7, [x7, #9]
   129f0:	1ac72000 	lsl	w0, w0, w7
   129f4:	51000400 	sub	w0, w0, #0x1
   129f8:	f94490c8 	ldr	x8, [x6, #2336]
   129fc:	52800409 	mov	w9, #0x20                  	// #32
   12a00:	d360fc47 	lsr	x7, x2, #32
   12a04:	d360fc66 	lsr	x6, x3, #32
   12a08:	2a047800 	orr	w0, w0, w4, lsl #30
   12a0c:	9ba92021 	umaddl	x1, w1, w9, x8
   12a10:	b9010022 	str	w2, [x1, #256]
   12a14:	b9010427 	str	w7, [x1, #260]
   12a18:	b9010823 	str	w3, [x1, #264]
   12a1c:	b9010c26 	str	w6, [x1, #268]
   12a20:	b9011020 	str	w0, [x1, #272]
   12a24:	b9011425 	str	w5, [x1, #276]
   12a28:	d65f03c0 	ret
   12a2c:	00000000 	.inst	0x00000000 ; undefined

0000000000012a30 <tzc400_enable_filters>:
   12a30:	d0000060 	adrp	x0, 20000 <__STACKS_START__+0x700>
   12a34:	91248001 	add	x1, x0, #0x920
   12a38:	39402424 	ldrb	w4, [x1, #9]
   12a3c:	340003c4 	cbz	w4, 12ab4 <tzc400_enable_filters+0x84>
   12a40:	f9449002 	ldr	x2, [x0, #2336]
   12a44:	52800001 	mov	w1, #0x0                   	// #0
   12a48:	d2800025 	mov	x5, #0x1                   	// #1
   12a4c:	91002042 	add	x2, x2, #0x8
   12a50:	b9400040 	ldr	w0, [x2]
   12a54:	d3504c00 	ubfx	x0, x0, #16, #4
   12a58:	1ac12400 	lsr	w0, w0, w1
   12a5c:	36000120 	tbz	w0, #0, 12a80 <tzc400_enable_filters+0x50>
   12a60:	34000241 	cbz	w1, 12aa8 <tzc400_enable_filters+0x78>
   12a64:	d0000040 	adrp	x0, 1c000 <vprintf+0x418>
   12a68:	9108e000 	add	x0, x0, #0x238
   12a6c:	a9bf7bfd 	stp	x29, x30, [sp, #-16]!
   12a70:	910003fd 	mov	x29, sp
   12a74:	940020fb 	bl	1ae60 <tf_log>
   12a78:	94002166 	bl	1b010 <console_flush>
   12a7c:	97fffde7 	bl	12218 <do_panic>
   12a80:	b9400040 	ldr	w0, [x2]
   12a84:	9ac120a3 	lsl	x3, x5, x1
   12a88:	d3504c00 	ubfx	x0, x0, #16, #4
   12a8c:	2a030003 	orr	w3, w0, w3
   12a90:	12000c60 	and	w0, w3, #0xf
   12a94:	b9000040 	str	w0, [x2]
   12a98:	b9400040 	ldr	w0, [x2]
   12a9c:	d3504c00 	ubfx	x0, x0, #16, #4
   12aa0:	6b00007f 	cmp	w3, w0
   12aa4:	54ffffa1 	b.ne	12a98 <tzc400_enable_filters+0x68>  // b.any
   12aa8:	11000421 	add	w1, w1, #0x1
   12aac:	6b04003f 	cmp	w1, w4
   12ab0:	54fffd01 	b.ne	12a50 <tzc400_enable_filters+0x20>  // b.any
   12ab4:	d65f03c0 	ret

0000000000012ab8 <tzc400_disable_filters>:
   12ab8:	d0000060 	adrp	x0, 20000 <__STACKS_START__+0x700>
   12abc:	91248001 	add	x1, x0, #0x920
   12ac0:	f9449000 	ldr	x0, [x0, #2336]
   12ac4:	39402424 	ldrb	w4, [x1, #9]
   12ac8:	91002002 	add	x2, x0, #0x8
   12acc:	b9400803 	ldr	w3, [x0, #8]
   12ad0:	d3504063 	ubfx	x3, x3, #16, #1
   12ad4:	6b04007f 	cmp	w3, w4
   12ad8:	540001e2 	b.cs	12b14 <tzc400_disable_filters+0x5c>  // b.hs, b.nlast
   12adc:	d2800025 	mov	x5, #0x1                   	// #1
   12ae0:	b9400040 	ldr	w0, [x2]
   12ae4:	9ac320a1 	lsl	x1, x5, x3
   12ae8:	53107c00 	lsr	w0, w0, #16
   12aec:	0a210001 	bic	w1, w0, w1
   12af0:	12000c21 	and	w1, w1, #0xf
   12af4:	b9000041 	str	w1, [x2]
   12af8:	b9400040 	ldr	w0, [x2]
   12afc:	d3504c00 	ubfx	x0, x0, #16, #4
   12b00:	6b00003f 	cmp	w1, w0
   12b04:	54ffffa1 	b.ne	12af8 <tzc400_disable_filters+0x40>  // b.any
   12b08:	11000463 	add	w3, w3, #0x1
   12b0c:	6b04007f 	cmp	w3, w4
   12b10:	54fffe81 	b.ne	12ae0 <tzc400_disable_filters+0x28>  // b.any
   12b14:	d65f03c0 	ret

0000000000012b18 <udelay>:
   12b18:	a9bd7bfd 	stp	x29, x30, [sp, #-48]!
   12b1c:	910003fd 	mov	x29, sp
   12b20:	a90153f3 	stp	x19, x20, [sp, #16]
   12b24:	d0000074 	adrp	x20, 20000 <__STACKS_START__+0x700>
   12b28:	2a0003f3 	mov	w19, w0
   12b2c:	f9449a80 	ldr	x0, [x20, #2352]
   12b30:	f9400000 	ldr	x0, [x0]
   12b34:	f90013f5 	str	x21, [sp, #32]
   12b38:	d63f0000 	blr	x0
   12b3c:	2a0003f5 	mov	w21, w0
   12b40:	f9449a81 	ldr	x1, [x20, #2352]
   12b44:	29410c20 	ldp	w0, w3, [x1, #8]
   12b48:	d1000402 	sub	x2, x0, #0x1
   12b4c:	9ba30a73 	umaddl	x19, w19, w3, x2
   12b50:	9ac00a73 	udiv	x19, x19, x0
   12b54:	91000673 	add	x19, x19, #0x1
   12b58:	14000002 	b	12b60 <udelay+0x48>
   12b5c:	f9449a81 	ldr	x1, [x20, #2352]
   12b60:	f9400020 	ldr	x0, [x1]
   12b64:	d63f0000 	blr	x0
   12b68:	4b0002a0 	sub	w0, w21, w0
   12b6c:	eb13001f 	cmp	x0, x19
   12b70:	54ffff63 	b.cc	12b5c <udelay+0x44>  // b.lo, b.ul, b.last
   12b74:	a94153f3 	ldp	x19, x20, [sp, #16]
   12b78:	f94013f5 	ldr	x21, [sp, #32]
   12b7c:	a8c37bfd 	ldp	x29, x30, [sp], #48
   12b80:	d65f03c0 	ret
   12b84:	00000000 	.inst	0x00000000 ; undefined

0000000000012b88 <timer_init>:
   12b88:	d0000061 	adrp	x1, 20000 <__STACKS_START__+0x700>
   12b8c:	f9049820 	str	x0, [x1, #2352]
   12b90:	d65f03c0 	ret
   12b94:	00000000 	.inst	0x00000000 ; undefined

0000000000012b98 <get_timer_value>:
   12b98:	d53be020 	mrs	x0, cntpct_el0
   12b9c:	2a2003e0 	mvn	w0, w0
   12ba0:	d65f03c0 	ret
   12ba4:	00000000 	.inst	0x00000000 ; undefined

0000000000012ba8 <generic_delay_timer_init>:
   12ba8:	a9bf7bfd 	stp	x29, x30, [sp, #-16]!
   12bac:	910003fd 	mov	x29, sp
   12bb0:	94002384 	bl	1b9c0 <plat_get_syscnt_freq2>
   12bb4:	2a0003e1 	mov	w1, w0
   12bb8:	529999a3 	mov	w3, #0xcccd                	// #52429
   12bbc:	52884804 	mov	w4, #0x4240                	// #16960
   12bc0:	72b99983 	movk	w3, #0xcccc, lsl #16
   12bc4:	72a001e4 	movk	w4, #0xf, lsl #16
   12bc8:	9ba37c00 	umull	x0, w0, w3
   12bcc:	d363fc00 	lsr	x0, x0, #35
   12bd0:	0b000802 	add	w2, w0, w0, lsl #2
   12bd4:	6b02043f 	cmp	w1, w2, lsl #1
   12bd8:	540001e1 	b.ne	12c14 <generic_delay_timer_init+0x6c>  // b.any
   12bdc:	5290d404 	mov	w4, #0x86a0                	// #34464
   12be0:	2a0003e1 	mov	w1, w0
   12be4:	528000a2 	mov	w2, #0x5                   	// #5
   12be8:	72a00024 	movk	w4, #0x1, lsl #16
   12bec:	9ba37c20 	umull	x0, w1, w3
   12bf0:	9ba37c86 	umull	x6, w4, w3
   12bf4:	d363fc00 	lsr	x0, x0, #35
   12bf8:	0b000805 	add	w5, w0, w0, lsl #2
   12bfc:	6b05043f 	cmp	w1, w5, lsl #1
   12c00:	540000a1 	b.ne	12c14 <generic_delay_timer_init+0x6c>  // b.any
   12c04:	d363fcc4 	lsr	x4, x6, #35
   12c08:	2a0003e1 	mov	w1, w0
   12c0c:	71000442 	subs	w2, w2, #0x1
   12c10:	54fffee1 	b.ne	12bec <generic_delay_timer_init+0x44>  // b.any
   12c14:	d0000065 	adrp	x5, 20000 <__STACKS_START__+0x700>
   12c18:	9124e0a2 	add	x2, x5, #0x938
   12c1c:	90000003 	adrp	x3, 12000 <bl2_entrypoint>
   12c20:	aa0203e0 	mov	x0, x2
   12c24:	912e6063 	add	x3, x3, #0xb98
   12c28:	f9049ca3 	str	x3, [x5, #2360]
   12c2c:	29010444 	stp	w4, w1, [x2, #8]
   12c30:	a8c17bfd 	ldp	x29, x30, [sp], #16
   12c34:	17ffffd5 	b	12b88 <timer_init>

0000000000012c38 <device_type_fip>:
   12c38:	52800080 	mov	w0, #0x4                   	// #4
   12c3c:	d65f03c0 	ret

0000000000012c40 <fip_dev_open>:
   12c40:	f0000063 	adrp	x3, 21000 <sd_drv_work_area+0x58>
   12c44:	b9444062 	ldr	w2, [x3, #1088]
   12c48:	35000362 	cbnz	w2, 12cb4 <fip_dev_open+0x74>
   12c4c:	d0000062 	adrp	x2, 20000 <__STACKS_START__+0x700>
   12c50:	91266046 	add	x6, x2, #0x998
   12c54:	f944cc44 	ldr	x4, [x2, #2456]
   12c58:	b50001a4 	cbnz	x4, 12c8c <fip_dev_open+0x4c>
   12c5c:	d0000065 	adrp	x5, 20000 <__STACKS_START__+0x700>
   12c60:	912620a4 	add	x4, x5, #0x988
   12c64:	f904cc40 	str	x0, [x2, #2456]
   12c68:	d0000040 	adrp	x0, 1c000 <vprintf+0x418>
   12c6c:	9109e000 	add	x0, x0, #0x278
   12c70:	f904c4a0 	str	x0, [x5, #2440]
   12c74:	f9000486 	str	x6, [x4, #8]
   12c78:	52800022 	mov	w2, #0x1                   	// #1
   12c7c:	52800000 	mov	w0, #0x0                   	// #0
   12c80:	b9044062 	str	w2, [x3, #1088]
   12c84:	f9000024 	str	x4, [x1]
   12c88:	d65f03c0 	ret
   12c8c:	d0000061 	adrp	x1, 20000 <__STACKS_START__+0x700>
   12c90:	91262022 	add	x2, x1, #0x988
   12c94:	d0000040 	adrp	x0, 1c000 <vprintf+0x418>
   12c98:	9109e000 	add	x0, x0, #0x278
   12c9c:	52800024 	mov	w4, #0x1                   	// #1
   12ca0:	f904c420 	str	x0, [x1, #2440]
   12ca4:	b9044064 	str	w4, [x3, #1088]
   12ca8:	12800160 	mov	w0, #0xfffffff4            	// #-12
   12cac:	f9000446 	str	x6, [x2, #8]
   12cb0:	d65f03c0 	ret
   12cb4:	12800160 	mov	w0, #0xfffffff4            	// #-12
   12cb8:	d65f03c0 	ret
   12cbc:	00000000 	.inst	0x00000000 ; undefined

0000000000012cc0 <fip_file_len>:
   12cc0:	f9400402 	ldr	x2, [x0, #8]
   12cc4:	52800000 	mov	w0, #0x0                   	// #0
   12cc8:	f9401042 	ldr	x2, [x2, #32]
   12ccc:	f9000022 	str	x2, [x1]
   12cd0:	d65f03c0 	ret
   12cd4:	00000000 	.inst	0x00000000 ; undefined

0000000000012cd8 <fip_dev_close>:
   12cd8:	f9400400 	ldr	x0, [x0, #8]
   12cdc:	d0000062 	adrp	x2, 20000 <__STACKS_START__+0x700>
   12ce0:	d0000061 	adrp	x1, 20000 <__STACKS_START__+0x700>
   12ce4:	d0000063 	adrp	x3, 20000 <__STACKS_START__+0x700>
   12ce8:	f904a45f 	str	xzr, [x2, #2376]
   12cec:	f944cc21 	ldr	x1, [x1, #2456]
   12cf0:	f9400002 	ldr	x2, [x0]
   12cf4:	f904a87f 	str	xzr, [x3, #2384]
   12cf8:	eb01005f 	cmp	x2, x1
   12cfc:	54000181 	b.ne	12d2c <fip_dev_close+0x54>  // b.any
   12d00:	a9bf7bfd 	stp	x29, x30, [sp, #-16]!
   12d04:	d2800201 	mov	x1, #0x10                  	// #16
   12d08:	910003fd 	mov	x29, sp
   12d0c:	97fffd6b 	bl	122b8 <zeromem>
   12d10:	f0000062 	adrp	x2, 21000 <sd_drv_work_area+0x58>
   12d14:	52800000 	mov	w0, #0x0                   	// #0
   12d18:	a8c17bfd 	ldp	x29, x30, [sp], #16
   12d1c:	b9444041 	ldr	w1, [x2, #1088]
   12d20:	51000421 	sub	w1, w1, #0x1
   12d24:	b9044041 	str	w1, [x2, #1088]
   12d28:	d65f03c0 	ret
   12d2c:	12800020 	mov	w0, #0xfffffffe            	// #-2
   12d30:	d65f03c0 	ret
   12d34:	00000000 	.inst	0x00000000 ; undefined

0000000000012d38 <fip_file_close>:
   12d38:	a9be7bfd 	stp	x29, x30, [sp, #-32]!
   12d3c:	d0000061 	adrp	x1, 20000 <__STACKS_START__+0x700>
   12d40:	91256021 	add	x1, x1, #0x958
   12d44:	910003fd 	mov	x29, sp
   12d48:	f9000bf3 	str	x19, [sp, #16]
   12d4c:	aa0003f3 	mov	x19, x0
   12d50:	f9400c20 	ldr	x0, [x1, #24]
   12d54:	b50000c0 	cbnz	x0, 12d6c <fip_file_close+0x34>
   12d58:	f900067f 	str	xzr, [x19, #8]
   12d5c:	52800000 	mov	w0, #0x0                   	// #0
   12d60:	f9400bf3 	ldr	x19, [sp, #16]
   12d64:	a8c27bfd 	ldp	x29, x30, [sp], #32
   12d68:	d65f03c0 	ret
   12d6c:	aa0103e0 	mov	x0, x1
   12d70:	d2800601 	mov	x1, #0x30                  	// #48
   12d74:	97fffd51 	bl	122b8 <zeromem>
   12d78:	f900067f 	str	xzr, [x19, #8]
   12d7c:	52800000 	mov	w0, #0x0                   	// #0
   12d80:	f9400bf3 	ldr	x19, [sp, #16]
   12d84:	a8c27bfd 	ldp	x29, x30, [sp], #32
   12d88:	d65f03c0 	ret
   12d8c:	00000000 	.inst	0x00000000 ; undefined

0000000000012d90 <fip_dev_init>:
   12d90:	a9bb7bfd 	stp	x29, x30, [sp, #-80]!
   12d94:	aa0103e3 	mov	x3, x1
   12d98:	910003fd 	mov	x29, sp
   12d9c:	a90153f3 	stp	x19, x20, [sp, #16]
   12da0:	d0000074 	adrp	x20, 20000 <__STACKS_START__+0x700>
   12da4:	d0000073 	adrp	x19, 20000 <__STACKS_START__+0x700>
   12da8:	91254282 	add	x2, x20, #0x950
   12dac:	91252261 	add	x1, x19, #0x948
   12db0:	f90013f5 	str	x21, [sp, #32]
   12db4:	f9400415 	ldr	x21, [x0, #8]
   12db8:	2a0303e0 	mov	w0, w3
   12dbc:	94001fb7 	bl	1ac98 <plat_get_image_source>
   12dc0:	350003e0 	cbnz	w0, 12e3c <fip_dev_init+0xac>
   12dc4:	f944aa81 	ldr	x1, [x20, #2384]
   12dc8:	9100c3e2 	add	x2, sp, #0x30
   12dcc:	f944a660 	ldr	x0, [x19, #2376]
   12dd0:	94000134 	bl	132a0 <io_open>
   12dd4:	35000340 	cbnz	w0, 12e3c <fip_dev_init+0xac>
   12dd8:	f9401be0 	ldr	x0, [sp, #48]
   12ddc:	9100e3e3 	add	x3, sp, #0x38
   12de0:	d2800202 	mov	x2, #0x10                  	// #16
   12de4:	910103e1 	add	x1, sp, #0x40
   12de8:	9400017c 	bl	133d8 <io_read>
   12dec:	2a0003f3 	mov	w19, w0
   12df0:	35000140 	cbnz	w0, 12e18 <fip_dev_init+0x88>
   12df4:	b94043e1 	ldr	w1, [sp, #64]
   12df8:	52800020 	mov	w0, #0x1                   	// #1
   12dfc:	72b54c80 	movk	w0, #0xaa64, lsl #16
   12e00:	6b00003f 	cmp	w1, w0
   12e04:	54000181 	b.ne	12e34 <fip_dev_init+0xa4>  // b.any
   12e08:	b94047e0 	ldr	w0, [sp, #68]
   12e0c:	34000140 	cbz	w0, 12e34 <fip_dev_init+0xa4>
   12e10:	b9404fe0 	ldr	w0, [sp, #76]
   12e14:	790012a0 	strh	w0, [x21, #8]
   12e18:	f9401be0 	ldr	x0, [sp, #48]
   12e1c:	94000177 	bl	133f8 <io_close>
   12e20:	2a1303e0 	mov	w0, w19
   12e24:	a94153f3 	ldp	x19, x20, [sp, #16]
   12e28:	f94013f5 	ldr	x21, [sp, #32]
   12e2c:	a8c57bfd 	ldp	x29, x30, [sp], #80
   12e30:	d65f03c0 	ret
   12e34:	12800033 	mov	w19, #0xfffffffe            	// #-2
   12e38:	17fffff8 	b	12e18 <fip_dev_init+0x88>
   12e3c:	12800033 	mov	w19, #0xfffffffe            	// #-2
   12e40:	17fffff8 	b	12e20 <fip_dev_init+0x90>
   12e44:	00000000 	.inst	0x00000000 ; undefined

0000000000012e48 <fip_file_read>:
   12e48:	a9bc7bfd 	stp	x29, x30, [sp, #-64]!
   12e4c:	d0000064 	adrp	x4, 20000 <__STACKS_START__+0x700>
   12e50:	d0000065 	adrp	x5, 20000 <__STACKS_START__+0x700>
   12e54:	910003fd 	mov	x29, sp
   12e58:	a90153f3 	stp	x19, x20, [sp, #16]
   12e5c:	aa0003f3 	mov	x19, x0
   12e60:	aa0103f4 	mov	x20, x1
   12e64:	f944a4a0 	ldr	x0, [x5, #2376]
   12e68:	a9025bf5 	stp	x21, x22, [sp, #32]
   12e6c:	aa0203f5 	mov	x21, x2
   12e70:	f944a881 	ldr	x1, [x4, #2384]
   12e74:	aa0303f6 	mov	x22, x3
   12e78:	9100e3e2 	add	x2, sp, #0x38
   12e7c:	94000109 	bl	132a0 <io_open>
   12e80:	350003c0 	cbnz	w0, 12ef8 <fip_file_read+0xb0>
   12e84:	f9400673 	ldr	x19, [x19, #8]
   12e88:	52800021 	mov	w1, #0x1                   	// #1
   12e8c:	f9401fe0 	ldr	x0, [sp, #56]
   12e90:	b9400263 	ldr	w3, [x19]
   12e94:	f9400e62 	ldr	x2, [x19, #24]
   12e98:	8b020062 	add	x2, x3, x2
   12e9c:	9400013f 	bl	13398 <io_seek>
   12ea0:	34000120 	cbz	w0, 12ec4 <fip_file_read+0x7c>
   12ea4:	12800034 	mov	w20, #0xfffffffe            	// #-2
   12ea8:	f9401fe0 	ldr	x0, [sp, #56]
   12eac:	94000153 	bl	133f8 <io_close>
   12eb0:	2a1403e0 	mov	w0, w20
   12eb4:	a94153f3 	ldp	x19, x20, [sp, #16]
   12eb8:	a9425bf5 	ldp	x21, x22, [sp, #32]
   12ebc:	a8c47bfd 	ldp	x29, x30, [sp], #64
   12ec0:	d65f03c0 	ret
   12ec4:	f9401fe0 	ldr	x0, [sp, #56]
   12ec8:	aa1403e1 	mov	x1, x20
   12ecc:	aa1503e2 	mov	x2, x21
   12ed0:	9100c3e3 	add	x3, sp, #0x30
   12ed4:	94000141 	bl	133d8 <io_read>
   12ed8:	2a0003f4 	mov	w20, w0
   12edc:	35fffe40 	cbnz	w0, 12ea4 <fip_file_read+0x5c>
   12ee0:	f9401be1 	ldr	x1, [sp, #48]
   12ee4:	b9400260 	ldr	w0, [x19]
   12ee8:	f90002c1 	str	x1, [x22]
   12eec:	0b010000 	add	w0, w0, w1
   12ef0:	b9000260 	str	w0, [x19]
   12ef4:	17ffffed 	b	12ea8 <fip_file_read+0x60>
   12ef8:	12800034 	mov	w20, #0xfffffffe            	// #-2
   12efc:	17ffffed 	b	12eb0 <fip_file_read+0x68>

0000000000012f00 <fip_file_open>:
   12f00:	a9ba7bfd 	stp	x29, x30, [sp, #-96]!
   12f04:	910003fd 	mov	x29, sp
   12f08:	a90363f7 	stp	x23, x24, [sp, #48]
   12f0c:	d0000078 	adrp	x24, 20000 <__STACKS_START__+0x700>
   12f10:	91256318 	add	x24, x24, #0x958
   12f14:	a90153f3 	stp	x19, x20, [sp, #16]
   12f18:	f9400f00 	ldr	x0, [x24, #24]
   12f1c:	b5000700 	cbnz	x0, 12ffc <fip_file_open+0xfc>
   12f20:	d0000060 	adrp	x0, 20000 <__STACKS_START__+0x700>
   12f24:	a9025bf5 	stp	x21, x22, [sp, #32]
   12f28:	aa0103f5 	mov	x21, x1
   12f2c:	d0000061 	adrp	x1, 20000 <__STACKS_START__+0x700>
   12f30:	f90023f9 	str	x25, [sp, #64]
   12f34:	f944a400 	ldr	x0, [x0, #2376]
   12f38:	aa0203f9 	mov	x25, x2
   12f3c:	f944a821 	ldr	x1, [x1, #2384]
   12f40:	910143e2 	add	x2, sp, #0x50
   12f44:	940000d7 	bl	132a0 <io_open>
   12f48:	350005e0 	cbnz	w0, 13004 <fip_file_open+0x104>
   12f4c:	f9402be0 	ldr	x0, [sp, #80]
   12f50:	d2800202 	mov	x2, #0x10                  	// #16
   12f54:	52800021 	mov	w1, #0x1                   	// #1
   12f58:	12800033 	mov	w19, #0xfffffffe            	// #-2
   12f5c:	9400010f 	bl	13398 <io_seek>
   12f60:	35000300 	cbnz	w0, 12fc0 <fip_file_open+0xc0>
   12f64:	91002314 	add	x20, x24, #0x8
   12f68:	d0000056 	adrp	x22, 1c000 <vprintf+0x418>
   12f6c:	aa1403f7 	mov	x23, x20
   12f70:	910b02d6 	add	x22, x22, #0x2c0
   12f74:	1400000c 	b	12fa4 <fip_file_open+0xa4>
   12f78:	d2800202 	mov	x2, #0x10                  	// #16
   12f7c:	aa1503e1 	mov	x1, x21
   12f80:	aa1703e0 	mov	x0, x23
   12f84:	94002291 	bl	1b9c8 <memcmp>
   12f88:	2a0003f3 	mov	w19, w0
   12f8c:	34000320 	cbz	w0, 12ff0 <fip_file_open+0xf0>
   12f90:	d2800202 	mov	x2, #0x10                  	// #16
   12f94:	aa1603e1 	mov	x1, x22
   12f98:	aa1403e0 	mov	x0, x20
   12f9c:	9400228b 	bl	1b9c8 <memcmp>
   12fa0:	34000220 	cbz	w0, 12fe4 <fip_file_open+0xe4>
   12fa4:	f9402be0 	ldr	x0, [sp, #80]
   12fa8:	910163e3 	add	x3, sp, #0x58
   12fac:	d2800502 	mov	x2, #0x28                  	// #40
   12fb0:	aa1403e1 	mov	x1, x20
   12fb4:	94000109 	bl	133d8 <io_read>
   12fb8:	2a0003f3 	mov	w19, w0
   12fbc:	34fffde0 	cbz	w0, 12f78 <fip_file_open+0x78>
   12fc0:	f9402be0 	ldr	x0, [sp, #80]
   12fc4:	9400010d 	bl	133f8 <io_close>
   12fc8:	a9425bf5 	ldp	x21, x22, [sp, #32]
   12fcc:	f94023f9 	ldr	x25, [sp, #64]
   12fd0:	2a1303e0 	mov	w0, w19
   12fd4:	a94153f3 	ldp	x19, x20, [sp, #16]
   12fd8:	a94363f7 	ldp	x23, x24, [sp, #48]
   12fdc:	a8c67bfd 	ldp	x29, x30, [sp], #96
   12fe0:	d65f03c0 	ret
   12fe4:	12800033 	mov	w19, #0xfffffffe            	// #-2
   12fe8:	f9000f1f 	str	xzr, [x24, #24]
   12fec:	17fffff5 	b	12fc0 <fip_file_open+0xc0>
   12ff0:	b900031f 	str	wzr, [x24]
   12ff4:	f9000738 	str	x24, [x25, #8]
   12ff8:	17fffff2 	b	12fc0 <fip_file_open+0xc0>
   12ffc:	128002d3 	mov	w19, #0xffffffe9            	// #-23
   13000:	17fffff4 	b	12fd0 <fip_file_open+0xd0>
   13004:	12800033 	mov	w19, #0xfffffffe            	// #-2
   13008:	a9425bf5 	ldp	x21, x22, [sp, #32]
   1300c:	f94023f9 	ldr	x25, [sp, #64]
   13010:	17fffff0 	b	12fd0 <fip_file_open+0xd0>
   13014:	00000000 	.inst	0x00000000 ; undefined

0000000000013018 <register_io_dev_fip>:
   13018:	a9be7bfd 	stp	x29, x30, [sp, #-32]!
   1301c:	910003fd 	mov	x29, sp
   13020:	f9000bf3 	str	x19, [sp, #16]
   13024:	aa0003f3 	mov	x19, x0
   13028:	b0000060 	adrp	x0, 20000 <__STACKS_START__+0x700>
   1302c:	91262000 	add	x0, x0, #0x988
   13030:	94000082 	bl	13238 <io_register_device>
   13034:	35000080 	cbnz	w0, 13044 <register_io_dev_fip+0x2c>
   13038:	b0000041 	adrp	x1, 1c000 <vprintf+0x418>
   1303c:	9109c021 	add	x1, x1, #0x270
   13040:	f9000261 	str	x1, [x19]
   13044:	f9400bf3 	ldr	x19, [sp, #16]
   13048:	a8c27bfd 	ldp	x29, x30, [sp], #32
   1304c:	d65f03c0 	ret

0000000000013050 <device_type_memmap>:
   13050:	52800040 	mov	w0, #0x2                   	// #2
   13054:	d65f03c0 	ret

0000000000013058 <memmap_dev_open>:
   13058:	90000062 	adrp	x2, 1f000 <__RO_END__>
   1305c:	52800000 	mov	w0, #0x0                   	// #0
   13060:	91000042 	add	x2, x2, #0x0
   13064:	f9000022 	str	x2, [x1]
   13068:	d65f03c0 	ret
   1306c:	00000000 	.inst	0x00000000 ; undefined

0000000000013070 <memmap_dev_close>:
   13070:	52800000 	mov	w0, #0x0                   	// #0
   13074:	d65f03c0 	ret

0000000000013078 <memmap_block_open>:
   13078:	b0000064 	adrp	x4, 20000 <__STACKS_START__+0x700>
   1307c:	9126a083 	add	x3, x4, #0x9a8
   13080:	b949a880 	ldr	w0, [x4, #2472]
   13084:	35000100 	cbnz	w0, 130a4 <memmap_block_open+0x2c>
   13088:	a9400425 	ldp	x5, x1, [x1]
   1308c:	a900fc65 	stp	x5, xzr, [x3, #8]
   13090:	f9000c61 	str	x1, [x3, #24]
   13094:	52800021 	mov	w1, #0x1                   	// #1
   13098:	b909a881 	str	w1, [x4, #2472]
   1309c:	f9000443 	str	x3, [x2, #8]
   130a0:	d65f03c0 	ret
   130a4:	12800160 	mov	w0, #0xfffffff4            	// #-12
   130a8:	d65f03c0 	ret
   130ac:	00000000 	.inst	0x00000000 ; undefined

00000000000130b0 <memmap_block_seek>:
   130b0:	7100043f 	cmp	w1, #0x1
   130b4:	540000a1 	b.ne	130c8 <memmap_block_seek+0x18>  // b.any
   130b8:	f9400401 	ldr	x1, [x0, #8]
   130bc:	52800000 	mov	w0, #0x0                   	// #0
   130c0:	f9000822 	str	x2, [x1, #16]
   130c4:	d65f03c0 	ret
   130c8:	12800020 	mov	w0, #0xfffffffe            	// #-2
   130cc:	d65f03c0 	ret

00000000000130d0 <memmap_block_len>:
   130d0:	f9400402 	ldr	x2, [x0, #8]
   130d4:	52800000 	mov	w0, #0x0                   	// #0
   130d8:	f9400c42 	ldr	x2, [x2, #24]
   130dc:	f9000022 	str	x2, [x1]
   130e0:	d65f03c0 	ret
   130e4:	00000000 	.inst	0x00000000 ; undefined

00000000000130e8 <memmap_block_close>:
   130e8:	a9bf7bfd 	stp	x29, x30, [sp, #-16]!
   130ec:	d2800401 	mov	x1, #0x20                  	// #32
   130f0:	910003fd 	mov	x29, sp
   130f4:	f900041f 	str	xzr, [x0, #8]
   130f8:	b0000060 	adrp	x0, 20000 <__STACKS_START__+0x700>
   130fc:	9126a000 	add	x0, x0, #0x9a8
   13100:	97fffc6e 	bl	122b8 <zeromem>
   13104:	52800000 	mov	w0, #0x0                   	// #0
   13108:	a8c17bfd 	ldp	x29, x30, [sp], #16
   1310c:	d65f03c0 	ret

0000000000013110 <memmap_block_write>:
   13110:	a9bd7bfd 	stp	x29, x30, [sp, #-48]!
   13114:	910003fd 	mov	x29, sp
   13118:	a90153f3 	stp	x19, x20, [sp, #16]
   1311c:	aa0203f4 	mov	x20, x2
   13120:	f9400413 	ldr	x19, [x0, #8]
   13124:	a9025bf5 	stp	x21, x22, [sp, #32]
   13128:	aa0303f6 	mov	x22, x3
   1312c:	a9408263 	ldp	x3, x0, [x19, #8]
   13130:	8b020015 	add	x21, x0, x2
   13134:	8b030000 	add	x0, x0, x3
   13138:	94002232 	bl	1ba00 <memcpy>
   1313c:	f90002d4 	str	x20, [x22]
   13140:	f9000a75 	str	x21, [x19, #16]
   13144:	52800000 	mov	w0, #0x0                   	// #0
   13148:	a94153f3 	ldp	x19, x20, [sp, #16]
   1314c:	a9425bf5 	ldp	x21, x22, [sp, #32]
   13150:	a8c37bfd 	ldp	x29, x30, [sp], #48
   13154:	d65f03c0 	ret

0000000000013158 <memmap_block_read>:
   13158:	a9bd7bfd 	stp	x29, x30, [sp, #-48]!
   1315c:	910003fd 	mov	x29, sp
   13160:	a90153f3 	stp	x19, x20, [sp, #16]
   13164:	aa0203f4 	mov	x20, x2
   13168:	f9400413 	ldr	x19, [x0, #8]
   1316c:	aa0103e0 	mov	x0, x1
   13170:	a9025bf5 	stp	x21, x22, [sp, #32]
   13174:	aa0303f6 	mov	x22, x3
   13178:	a9408663 	ldp	x3, x1, [x19, #8]
   1317c:	8b020035 	add	x21, x1, x2
   13180:	8b030021 	add	x1, x1, x3
   13184:	9400221f 	bl	1ba00 <memcpy>
   13188:	f90002d4 	str	x20, [x22]
   1318c:	f9000a75 	str	x21, [x19, #16]
   13190:	52800000 	mov	w0, #0x0                   	// #0
   13194:	a94153f3 	ldp	x19, x20, [sp, #16]
   13198:	a9425bf5 	ldp	x21, x22, [sp, #32]
   1319c:	a8c37bfd 	ldp	x29, x30, [sp], #48
   131a0:	d65f03c0 	ret
   131a4:	00000000 	.inst	0x00000000 ; undefined

00000000000131a8 <register_io_dev_memmap>:
   131a8:	a9be7bfd 	stp	x29, x30, [sp, #-32]!
   131ac:	910003fd 	mov	x29, sp
   131b0:	f9000bf3 	str	x19, [sp, #16]
   131b4:	aa0003f3 	mov	x19, x0
   131b8:	90000060 	adrp	x0, 1f000 <__RO_END__>
   131bc:	91000000 	add	x0, x0, #0x0
   131c0:	9400001e 	bl	13238 <io_register_device>
   131c4:	35000080 	cbnz	w0, 131d4 <register_io_dev_memmap+0x2c>
   131c8:	b0000041 	adrp	x1, 1c000 <vprintf+0x418>
   131cc:	910b4021 	add	x1, x1, #0x2d0
   131d0:	f9000261 	str	x1, [x19]
   131d4:	f9400bf3 	ldr	x19, [sp, #16]
   131d8:	a8c27bfd 	ldp	x29, x30, [sp], #32
   131dc:	d65f03c0 	ret

00000000000131e0 <free_entity>:
   131e0:	b0000061 	adrp	x1, 20000 <__STACKS_START__+0x700>
   131e4:	91272022 	add	x2, x1, #0x9c8
   131e8:	f944e421 	ldr	x1, [x1, #2504]
   131ec:	eb01001f 	cmp	x0, x1
   131f0:	540000e0 	b.eq	1320c <free_entity+0x2c>  // b.none
   131f4:	f9400443 	ldr	x3, [x2, #8]
   131f8:	12800021 	mov	w1, #0xfffffffe            	// #-2
   131fc:	eb03001f 	cmp	x0, x3
   13200:	54000180 	b.eq	13230 <free_entity+0x50>  // b.none
   13204:	2a0103e0 	mov	w0, w1
   13208:	d65f03c0 	ret
   1320c:	d2800003 	mov	x3, #0x0                   	// #0
   13210:	d0000064 	adrp	x4, 21000 <sd_drv_work_area+0x58>
   13214:	52800001 	mov	w1, #0x0                   	// #0
   13218:	f823785f 	str	xzr, [x2, x3, lsl #3]
   1321c:	b9444880 	ldr	w0, [x4, #1096]
   13220:	51000400 	sub	w0, w0, #0x1
   13224:	b9044880 	str	w0, [x4, #1096]
   13228:	2a0103e0 	mov	w0, w1
   1322c:	d65f03c0 	ret
   13230:	d2800023 	mov	x3, #0x1                   	// #1
   13234:	17fffff7 	b	13210 <free_entity+0x30>

0000000000013238 <io_register_device>:
   13238:	d0000062 	adrp	x2, 21000 <sd_drv_work_area+0x58>
   1323c:	b9444440 	ldr	w0, [x2, #1092]
   13240:	7100041f 	cmp	w0, #0x1
   13244:	540000a8 	b.hi	13258 <io_register_device+0x20>  // b.pmore
   13248:	11000401 	add	w1, w0, #0x1
   1324c:	52800000 	mov	w0, #0x0                   	// #0
   13250:	b9044441 	str	w1, [x2, #1092]
   13254:	d65f03c0 	ret
   13258:	12800160 	mov	w0, #0xfffffff4            	// #-12
   1325c:	d65f03c0 	ret

0000000000013260 <io_dev_open>:
   13260:	f9400003 	ldr	x3, [x0]
   13264:	aa0103e0 	mov	x0, x1
   13268:	aa0203e1 	mov	x1, x2
   1326c:	d61f0060 	br	x3

0000000000013270 <io_dev_init>:
   13270:	f9400002 	ldr	x2, [x0]
   13274:	f9401c42 	ldr	x2, [x2, #56]
   13278:	b4000042 	cbz	x2, 13280 <io_dev_init+0x10>
   1327c:	d61f0040 	br	x2
   13280:	52800000 	mov	w0, #0x0                   	// #0
   13284:	d65f03c0 	ret

0000000000013288 <io_dev_close>:
   13288:	f9400001 	ldr	x1, [x0]
   1328c:	f9402021 	ldr	x1, [x1, #64]
   13290:	b4000041 	cbz	x1, 13298 <io_dev_close+0x10>
   13294:	d61f0020 	br	x1
   13298:	52800000 	mov	w0, #0x0                   	// #0
   1329c:	d65f03c0 	ret

00000000000132a0 <io_open>:
   132a0:	d0000065 	adrp	x5, 21000 <sd_drv_work_area+0x58>
   132a4:	b94448a3 	ldr	w3, [x5, #1096]
   132a8:	7100047f 	cmp	w3, #0x1
   132ac:	54000248 	b.hi	132f4 <io_open+0x54>  // b.pmore
   132b0:	a9bd7bfd 	stp	x29, x30, [sp, #-48]!
   132b4:	b0000064 	adrp	x4, 20000 <__STACKS_START__+0x700>
   132b8:	11000463 	add	w3, w3, #0x1
   132bc:	910003fd 	mov	x29, sp
   132c0:	f944e487 	ldr	x7, [x4, #2504]
   132c4:	91272086 	add	x6, x4, #0x9c8
   132c8:	b4000587 	cbz	x7, 13378 <io_open+0xd8>
   132cc:	f94004c7 	ldr	x7, [x6, #8]
   132d0:	b4000187 	cbz	x7, 13300 <io_open+0x60>
   132d4:	b0000060 	adrp	x0, 20000 <__STACKS_START__+0x700>
   132d8:	91276000 	add	x0, x0, #0x9d8
   132dc:	b90448a3 	str	w3, [x5, #1096]
   132e0:	12800025 	mov	w5, #0xfffffffe            	// #-2
   132e4:	f904e480 	str	x0, [x4, #2504]
   132e8:	2a0503e0 	mov	w0, w5
   132ec:	a8c37bfd 	ldp	x29, x30, [sp], #48
   132f0:	d65f03c0 	ret
   132f4:	12800165 	mov	w5, #0xfffffff4            	// #-12
   132f8:	2a0503e0 	mov	w0, w5
   132fc:	d65f03c0 	ret
   13300:	b0000064 	adrp	x4, 20000 <__STACKS_START__+0x700>
   13304:	91276084 	add	x4, x4, #0x9d8
   13308:	91004084 	add	x4, x4, #0x10
   1330c:	a90153f3 	stp	x19, x20, [sp, #16]
   13310:	f90013f5 	str	x21, [sp, #32]
   13314:	aa0403f5 	mov	x21, x4
   13318:	b90448a3 	str	w3, [x5, #1096]
   1331c:	f90004c4 	str	x4, [x6, #8]
   13320:	f9400003 	ldr	x3, [x0]
   13324:	aa0203f4 	mov	x20, x2
   13328:	aa0003f3 	mov	x19, x0
   1332c:	aa1503e2 	mov	x2, x21
   13330:	f9400463 	ldr	x3, [x3, #8]
   13334:	d63f0060 	blr	x3
   13338:	2a0003e5 	mov	w5, w0
   1333c:	35000100 	cbnz	w0, 1335c <io_open+0xbc>
   13340:	f90002b3 	str	x19, [x21]
   13344:	2a0503e0 	mov	w0, w5
   13348:	f9000295 	str	x21, [x20]
   1334c:	a94153f3 	ldp	x19, x20, [sp, #16]
   13350:	f94013f5 	ldr	x21, [sp, #32]
   13354:	a8c37bfd 	ldp	x29, x30, [sp], #48
   13358:	d65f03c0 	ret
   1335c:	aa1503e0 	mov	x0, x21
   13360:	97ffffa0 	bl	131e0 <free_entity>
   13364:	2a0503e0 	mov	w0, w5
   13368:	a94153f3 	ldp	x19, x20, [sp, #16]
   1336c:	f94013f5 	ldr	x21, [sp, #32]
   13370:	a8c37bfd 	ldp	x29, x30, [sp], #48
   13374:	d65f03c0 	ret
   13378:	b0000066 	adrp	x6, 20000 <__STACKS_START__+0x700>
   1337c:	912760c6 	add	x6, x6, #0x9d8
   13380:	b90448a3 	str	w3, [x5, #1096]
   13384:	f904e486 	str	x6, [x4, #2504]
   13388:	a90153f3 	stp	x19, x20, [sp, #16]
   1338c:	f90013f5 	str	x21, [sp, #32]
   13390:	aa0603f5 	mov	x21, x6
   13394:	17ffffe3 	b	13320 <io_open+0x80>

0000000000013398 <io_seek>:
   13398:	f9400003 	ldr	x3, [x0]
   1339c:	f9400063 	ldr	x3, [x3]
   133a0:	f9400863 	ldr	x3, [x3, #16]
   133a4:	b4000043 	cbz	x3, 133ac <io_seek+0x14>
   133a8:	d61f0060 	br	x3
   133ac:	12800240 	mov	w0, #0xffffffed            	// #-19
   133b0:	d65f03c0 	ret
   133b4:	00000000 	.inst	0x00000000 ; undefined

00000000000133b8 <io_size>:
   133b8:	f9400002 	ldr	x2, [x0]
   133bc:	f9400042 	ldr	x2, [x2]
   133c0:	f9400c42 	ldr	x2, [x2, #24]
   133c4:	b4000042 	cbz	x2, 133cc <io_size+0x14>
   133c8:	d61f0040 	br	x2
   133cc:	12800240 	mov	w0, #0xffffffed            	// #-19
   133d0:	d65f03c0 	ret
   133d4:	00000000 	.inst	0x00000000 ; undefined

00000000000133d8 <io_read>:
   133d8:	f9400004 	ldr	x4, [x0]
   133dc:	f9400084 	ldr	x4, [x4]
   133e0:	f9401084 	ldr	x4, [x4, #32]
   133e4:	b4000044 	cbz	x4, 133ec <io_read+0x14>
   133e8:	d61f0080 	br	x4
   133ec:	12800240 	mov	w0, #0xffffffed            	// #-19
   133f0:	d65f03c0 	ret
   133f4:	00000000 	.inst	0x00000000 ; undefined

00000000000133f8 <io_close>:
   133f8:	a9be7bfd 	stp	x29, x30, [sp, #-32]!
   133fc:	52800005 	mov	w5, #0x0                   	// #0
   13400:	910003fd 	mov	x29, sp
   13404:	f9400001 	ldr	x1, [x0]
   13408:	f9400021 	ldr	x1, [x1]
   1340c:	f9401821 	ldr	x1, [x1, #48]
   13410:	f9000bf3 	str	x19, [sp, #16]
   13414:	aa0003f3 	mov	x19, x0
   13418:	b4000061 	cbz	x1, 13424 <io_close+0x2c>
   1341c:	d63f0020 	blr	x1
   13420:	2a0003e5 	mov	w5, w0
   13424:	aa1303e0 	mov	x0, x19
   13428:	97ffff6e 	bl	131e0 <free_entity>
   1342c:	2a0503e0 	mov	w0, w5
   13430:	f9400bf3 	ldr	x19, [sp, #16]
   13434:	a8c27bfd 	ldp	x29, x30, [sp], #32
   13438:	d65f03c0 	ret
   1343c:	00000000 	.inst	0x00000000 ; undefined

0000000000013440 <bl2_plat_handle_pre_image_load>:
   13440:	52800000 	mov	w0, #0x0                   	// #0
   13444:	d65f03c0 	ret

0000000000013448 <bl2_plat_handle_post_image_load>:
   13448:	a9be7bfd 	stp	x29, x30, [sp, #-32]!
   1344c:	910003fd 	mov	x29, sp
   13450:	a90153f3 	stp	x19, x20, [sp, #16]
   13454:	b0000074 	adrp	x20, 20000 <__STACKS_START__+0x700>
   13458:	2a0003f3 	mov	w19, w0
   1345c:	f944fe80 	ldr	x0, [x20, #2552]
   13460:	b40003a0 	cbz	x0, 134d4 <bl2_plat_handle_post_image_load+0x8c>
   13464:	2a1303e0 	mov	w0, w19
   13468:	97fffcb2 	bl	12730 <get_bl_mem_params_node>
   1346c:	7100127f 	cmp	w19, #0x4
   13470:	aa0003e1 	mov	x1, x0
   13474:	54000200 	b.eq	134b4 <bl2_plat_handle_post_image_load+0x6c>  // b.none
   13478:	7100167f 	cmp	w19, #0x5
   1347c:	540000a0 	b.eq	13490 <bl2_plat_handle_post_image_load+0x48>  // b.none
   13480:	52800000 	mov	w0, #0x0                   	// #0
   13484:	a94153f3 	ldp	x19, x20, [sp, #16]
   13488:	a8c27bfd 	ldp	x29, x30, [sp], #32
   1348c:	d65f03c0 	ret
   13490:	f944fe80 	ldr	x0, [x20, #2552]
   13494:	d2800b02 	mov	x2, #0x58                  	// #88
   13498:	91008021 	add	x1, x1, #0x20
   1349c:	8b020000 	add	x0, x0, x2
   134a0:	94002158 	bl	1ba00 <memcpy>
   134a4:	52800000 	mov	w0, #0x0                   	// #0
   134a8:	a94153f3 	ldp	x19, x20, [sp, #16]
   134ac:	a8c27bfd 	ldp	x29, x30, [sp], #32
   134b0:	d65f03c0 	ret
   134b4:	f944fe80 	ldr	x0, [x20, #2552]
   134b8:	91008021 	add	x1, x1, #0x20
   134bc:	d2800b02 	mov	x2, #0x58                  	// #88
   134c0:	94002150 	bl	1ba00 <memcpy>
   134c4:	52800000 	mov	w0, #0x0                   	// #0
   134c8:	a94153f3 	ldp	x19, x20, [sp, #16]
   134cc:	a8c27bfd 	ldp	x29, x30, [sp], #32
   134d0:	d65f03c0 	ret
   134d4:	9140bc00 	add	x0, x0, #0x2f, lsl #12
   134d8:	d2801602 	mov	x2, #0xb0                  	// #176
   134dc:	f904fe80 	str	x0, [x20, #2552]
   134e0:	52800001 	mov	w1, #0x0                   	// #0
   134e4:	94002163 	bl	1ba70 <memset>
   134e8:	17ffffdf 	b	13464 <bl2_plat_handle_post_image_load+0x1c>
   134ec:	00000000 	.inst	0x00000000 ; undefined

00000000000134f0 <bl2_el3_early_platform_setup>:
   134f0:	a9be7bfd 	stp	x29, x30, [sp, #-32]!
   134f4:	910003fd 	mov	x29, sp
   134f8:	f9000bf3 	str	x19, [sp, #16]
   134fc:	940000ff 	bl	138f8 <cpg_early_setup>
   13500:	5286c000 	mov	w0, #0x3600                	// #13824
   13504:	72a02dc0 	movk	w0, #0x16e, lsl #16
   13508:	94001cec 	bl	1a8b8 <syc_init>
   1350c:	97fffda7 	bl	12ba8 <generic_delay_timer_init>
   13510:	94001120 	bl	17990 <pfc_setup>
   13514:	94000109 	bl	13938 <cpg_setup>
   13518:	d2814080 	mov	x0, #0xa04                 	// #2564
   1351c:	529888e1 	mov	w1, #0xc447                	// #50247
   13520:	f2a22040 	movk	x0, #0x1102, lsl #16
   13524:	72a10821 	movk	w1, #0x841, lsl #16
   13528:	b9400000 	ldr	w0, [x0]
   1352c:	12006c00 	and	w0, w0, #0xfffffff
   13530:	6b01001f 	cmp	w0, w1
   13534:	54000220 	b.eq	13578 <bl2_el3_early_platform_setup+0x88>  // b.none
   13538:	b0000073 	adrp	x19, 20000 <__STACKS_START__+0x700>
   1353c:	52984002 	mov	w2, #0xc200                	// #49664
   13540:	91280273 	add	x19, x19, #0xa00
   13544:	529c2001 	mov	w1, #0xe100                	// #57600
   13548:	d2970000 	mov	x0, #0xb800                	// #47104
   1354c:	aa1303e3 	mov	x3, x19
   13550:	72a00022 	movk	w2, #0x1, lsl #16
   13554:	72a0bea1 	movk	w1, #0x5f5, lsl #16
   13558:	f2a20080 	movk	x0, #0x1004, lsl #16
   1355c:	97fffbb6 	bl	12434 <console_rzg2l_register>
   13560:	340006e0 	cbz	w0, 1363c <bl2_el3_early_platform_setup+0x14c>
   13564:	aa1303e0 	mov	x0, x19
   13568:	528000a1 	mov	w1, #0x5                   	// #5
   1356c:	f9400bf3 	ldr	x19, [sp, #16]
   13570:	a8c27bfd 	ldp	x29, x30, [sp], #32
   13574:	14001e73 	b	1af40 <console_set_scope>
   13578:	d2822480 	mov	x0, #0x1124                	// #4388
   1357c:	f2a230c0 	movk	x0, #0x1186, lsl #16
   13580:	b9400000 	ldr	w0, [x0]
   13584:	12180c00 	and	w0, w0, #0xf00
   13588:	711c001f 	cmp	w0, #0x700
   1358c:	54fffd61 	b.ne	13538 <bl2_el3_early_platform_setup+0x48>  // b.any
   13590:	d2822500 	mov	x0, #0x1128                	// #4392
   13594:	f2a230c0 	movk	x0, #0x1186, lsl #16
   13598:	b9400000 	ldr	w0, [x0]
   1359c:	12180c00 	and	w0, w0, #0xf00
   135a0:	711c001f 	cmp	w0, #0x700
   135a4:	54fffca1 	b.ne	13538 <bl2_el3_early_platform_setup+0x48>  // b.any
   135a8:	d280af00 	mov	x0, #0x578                 	// #1400
   135ac:	d280df01 	mov	x1, #0x6f8                 	// #1784
   135b0:	f2a22020 	movk	x0, #0x1101, lsl #16
   135b4:	32008fe2 	mov	w2, #0xf000f               	// #983055
   135b8:	f2a22021 	movk	x1, #0x1101, lsl #16
   135bc:	b9000002 	str	w2, [x0]
   135c0:	b9400020 	ldr	w0, [x1]
   135c4:	12000c00 	and	w0, w0, #0xf
   135c8:	71003c1f 	cmp	w0, #0xf
   135cc:	54ffffa1 	b.ne	135c0 <bl2_el3_early_platform_setup+0xd0>  // b.any
   135d0:	d2810f00 	mov	x0, #0x878                 	// #2168
   135d4:	d2813f01 	mov	x1, #0x9f8                 	// #2552
   135d8:	f2a22020 	movk	x0, #0x1101, lsl #16
   135dc:	32008fe2 	mov	w2, #0xf000f               	// #983055
   135e0:	f2a22021 	movk	x1, #0x1101, lsl #16
   135e4:	b9000002 	str	w2, [x0]
   135e8:	b9400020 	ldr	w0, [x1]
   135ec:	f2400c1f 	tst	x0, #0xf
   135f0:	54ffffc1 	b.ne	135e8 <bl2_el3_early_platform_setup+0xf8>  // b.any
   135f4:	d2800282 	mov	x2, #0x14                  	// #20
   135f8:	d2800200 	mov	x0, #0x10                  	// #16
   135fc:	f2a23882 	movk	x2, #0x11c4, lsl #16
   13600:	f2a23880 	movk	x0, #0x11c4, lsl #16
   13604:	5282a0c3 	mov	w3, #0x1506                	// #5382
   13608:	d280af01 	mov	x1, #0x578                 	// #1400
   1360c:	72a00043 	movk	w3, #0x2, lsl #16
   13610:	f2a22021 	movk	x1, #0x1101, lsl #16
   13614:	b9000043 	str	w3, [x2]
   13618:	5282a0c2 	mov	w2, #0x1506                	// #5382
   1361c:	72a02042 	movk	w2, #0x102, lsl #16
   13620:	b9000002 	str	w2, [x0]
   13624:	d280df00 	mov	x0, #0x6f8                 	// #1784
   13628:	52a001e2 	mov	w2, #0xf0000               	// #983040
   1362c:	f2a22020 	movk	x0, #0x1101, lsl #16
   13630:	b9000022 	str	w2, [x1]
   13634:	b9400000 	ldr	w0, [x0]
   13638:	17ffffc0 	b	13538 <bl2_el3_early_platform_setup+0x48>
   1363c:	94001e75 	bl	1b010 <console_flush>
   13640:	97fffaf6 	bl	12218 <do_panic>
   13644:	00000000 	.inst	0x00000000 ; undefined

0000000000013648 <bl2_el3_plat_arch_setup>:
   13648:	a9b57bfd 	stp	x29, x30, [sp, #-176]!
   1364c:	d2801082 	mov	x2, #0x84                  	// #132
   13650:	52800001 	mov	w1, #0x0                   	// #0
   13654:	910003fd 	mov	x29, sp
   13658:	9100b3e0 	add	x0, sp, #0x2c
   1365c:	94002105 	bl	1ba70 <memset>
   13660:	b00000a4 	adrp	x4, 28000 <__BL2_END__>
   13664:	f0ffffe3 	adrp	x3, 12000 <bl2_entrypoint>
   13668:	91000084 	add	x4, x4, #0x0
   1366c:	91000063 	add	x3, x3, #0x0
   13670:	90000062 	adrp	x2, 1f000 <__RO_END__>
   13674:	91000042 	add	x2, x2, #0x0
   13678:	d1404884 	sub	x4, x4, #0x12, lsl #12
   1367c:	cb030042 	sub	x2, x2, x3
   13680:	d2840006 	mov	x6, #0x2000                	// #8192
   13684:	d2a80005 	mov	x5, #0x40000000            	// #1073741824
   13688:	f2a00026 	movk	x6, #0x1, lsl #16
   1368c:	52800149 	mov	w9, #0xa                   	// #10
   13690:	52800048 	mov	w8, #0x2                   	// #2
   13694:	52800847 	mov	w7, #0x42                  	// #66
   13698:	b0000041 	adrp	x1, 1c000 <vprintf+0x418>
   1369c:	910c8021 	add	x1, x1, #0x320
   136a0:	910043e0 	add	x0, sp, #0x10
   136a4:	a9011be6 	stp	x6, x6, [sp, #16]
   136a8:	f90013e4 	str	x4, [sp, #32]
   136ac:	b9002be9 	str	w9, [sp, #40]
   136b0:	a9030fe5 	stp	x5, x3, [sp, #48]
   136b4:	a9040be3 	stp	x3, x2, [sp, #64]
   136b8:	b90053e8 	str	w8, [sp, #80]
   136bc:	f9002fe5 	str	x5, [sp, #88]
   136c0:	b9007be7 	str	w7, [sp, #120]
   136c4:	f90043e5 	str	x5, [sp, #128]
   136c8:	94001e70 	bl	1b088 <setup_page_tables>
   136cc:	52800000 	mov	w0, #0x0                   	// #0
   136d0:	94001ede 	bl	1b248 <enable_mmu_el3>
   136d4:	a8cb7bfd 	ldp	x29, x30, [sp], #176
   136d8:	d65f03c0 	ret
   136dc:	00000000 	.inst	0x00000000 ; undefined

00000000000136e0 <bl2_platform_setup>:
   136e0:	a9bf7bfd 	stp	x29, x30, [sp, #-16]!
   136e4:	910003fd 	mov	x29, sp
   136e8:	94001cb2 	bl	1a9b0 <plat_security_setup>
   136ec:	94000353 	bl	14438 <ddr_setup>
   136f0:	a8c17bfd 	ldp	x29, x30, [sp], #16
   136f4:	14001cfd 	b	1aae8 <rz_io_setup>

00000000000136f8 <cpg_ctrl_clkrst>:
   136f8:	51000421 	sub	w1, w1, #0x1
   136fc:	91000421 	add	x1, x1, #0x1
   13700:	8b010421 	add	x1, x1, x1, lsl #1
   13704:	8b010c05 	add	x5, x0, x1, lsl #3
   13708:	b9401002 	ldr	w2, [x0, #16]
   1370c:	a9401001 	ldp	x1, x4, [x0]
   13710:	b9000022 	str	w2, [x1]
   13714:	12003c43 	and	w3, w2, #0xffff
   13718:	53107c42 	lsr	w2, w2, #16
   1371c:	b9401401 	ldr	w1, [x0, #20]
   13720:	7100043f 	cmp	w1, #0x1
   13724:	5a831063 	cinv	w3, w3, eq  // eq = none
   13728:	b9400081 	ldr	w1, [x4]
   1372c:	4a030021 	eor	w1, w1, w3
   13730:	6a02003f 	tst	w1, w2
   13734:	54ffffa1 	b.ne	13728 <cpg_ctrl_clkrst+0x30>  // b.any
   13738:	91006000 	add	x0, x0, #0x18
   1373c:	eb0000bf 	cmp	x5, x0
   13740:	54fffe41 	b.ne	13708 <cpg_ctrl_clkrst+0x10>  // b.any
   13744:	d65f03c0 	ret

0000000000013748 <cpg_active_ddr>:
   13748:	a9be7bfd 	stp	x29, x30, [sp, #-32]!
   1374c:	d2810981 	mov	x1, #0x84c                 	// #2124
   13750:	f2a22021 	movk	x1, #0x1101, lsl #16
   13754:	910003fd 	mov	x29, sp
   13758:	d2817d83 	mov	x3, #0xbec                 	// #3052
   1375c:	f2a22023 	movk	x3, #0x1101, lsl #16
   13760:	f9000bf3 	str	x19, [sp, #16]
   13764:	d2813982 	mov	x2, #0x9cc                 	// #2508
   13768:	aa0003f3 	mov	x19, x0
   1376c:	52a00be0 	mov	w0, #0x5f0000              	// #6225920
   13770:	b9000020 	str	w0, [x1]
   13774:	f2a22022 	movk	x2, #0x1101, lsl #16
   13778:	52a00020 	mov	w0, #0x10000               	// #65536
   1377c:	52800be1 	mov	w1, #0x5f                  	// #95
   13780:	b9000060 	str	w0, [x3]
   13784:	d503201f 	nop
   13788:	b9400040 	ldr	w0, [x2]
   1378c:	0a010000 	and	w0, w0, w1
   13790:	71017c1f 	cmp	w0, #0x5f
   13794:	54ffffa1 	b.ne	13788 <cpg_active_ddr+0x40>  // b.any
   13798:	d280a980 	mov	x0, #0x54c                 	// #1356
   1379c:	d280d981 	mov	x1, #0x6cc                 	// #1740
   137a0:	f2a22020 	movk	x0, #0x1101, lsl #16
   137a4:	320087e2 	mov	w2, #0x30003               	// #196611
   137a8:	f2a22021 	movk	x1, #0x1101, lsl #16
   137ac:	b9000002 	str	w2, [x0]
   137b0:	b9400020 	ldr	w0, [x1]
   137b4:	12000400 	and	w0, w0, #0x3
   137b8:	71000c1f 	cmp	w0, #0x3
   137bc:	54ffffa1 	b.ne	137b0 <cpg_active_ddr+0x68>  // b.any
   137c0:	52800020 	mov	w0, #0x1                   	// #1
   137c4:	97fffcd5 	bl	12b18 <udelay>
   137c8:	d2817d81 	mov	x1, #0xbec                 	// #3052
   137cc:	320083e2 	mov	w2, #0x10001               	// #65537
   137d0:	f2a22021 	movk	x1, #0x1101, lsl #16
   137d4:	52800020 	mov	w0, #0x1                   	// #1
   137d8:	b9000022 	str	w2, [x1]
   137dc:	97fffccf 	bl	12b18 <udelay>
   137e0:	d2810980 	mov	x0, #0x84c                 	// #2124
   137e4:	d2813981 	mov	x1, #0x9cc                 	// #2508
   137e8:	f2a22020 	movk	x0, #0x1101, lsl #16
   137ec:	320f83e2 	mov	w2, #0x20002               	// #131074
   137f0:	f2a22021 	movk	x1, #0x1101, lsl #16
   137f4:	b9000002 	str	w2, [x0]
   137f8:	b9400020 	ldr	w0, [x1]
   137fc:	370fffe0 	tbnz	w0, #1, 137f8 <cpg_active_ddr+0xb0>
   13800:	52800020 	mov	w0, #0x1                   	// #1
   13804:	97fffcc5 	bl	12b18 <udelay>
   13808:	d63f0260 	blr	x19
   1380c:	d2810980 	mov	x0, #0x84c                 	// #2124
   13810:	52800ba3 	mov	w3, #0x5d                  	// #93
   13814:	f2a22020 	movk	x0, #0x1101, lsl #16
   13818:	d2813982 	mov	x2, #0x9cc                 	// #2508
   1381c:	72a00ba3 	movk	w3, #0x5d, lsl #16
   13820:	f2a22022 	movk	x2, #0x1101, lsl #16
   13824:	52800ba1 	mov	w1, #0x5d                  	// #93
   13828:	b9000003 	str	w3, [x0]
   1382c:	d503201f 	nop
   13830:	b9400040 	ldr	w0, [x2]
   13834:	6a01001f 	tst	w0, w1
   13838:	54ffffc1 	b.ne	13830 <cpg_active_ddr+0xe8>  // b.any
   1383c:	f9400bf3 	ldr	x19, [sp, #16]
   13840:	52800020 	mov	w0, #0x1                   	// #1
   13844:	a8c27bfd 	ldp	x29, x30, [sp], #32
   13848:	17fffcb4 	b	12b18 <udelay>
   1384c:	00000000 	.inst	0x00000000 ; undefined

0000000000013850 <cpg_reset_ddr_mc>:
   13850:	a9be7bfd 	stp	x29, x30, [sp, #-32]!
   13854:	d2810980 	mov	x0, #0x84c                 	// #2124
   13858:	f2a22020 	movk	x0, #0x1101, lsl #16
   1385c:	910003fd 	mov	x29, sp
   13860:	d2817d82 	mov	x2, #0xbec                 	// #3052
   13864:	52a00b81 	mov	w1, #0x5c0000              	// #6029312
   13868:	f2a22022 	movk	x2, #0x1101, lsl #16
   1386c:	f9000bf3 	str	x19, [sp, #16]
   13870:	b9000001 	str	w1, [x0]
   13874:	d2813981 	mov	x1, #0x9cc                 	// #2508
   13878:	52a00023 	mov	w3, #0x10000               	// #65536
   1387c:	f2a22021 	movk	x1, #0x1101, lsl #16
   13880:	52800b80 	mov	w0, #0x5c                  	// #92
   13884:	b9000043 	str	w3, [x2]
   13888:	b9400033 	ldr	w19, [x1]
   1388c:	0a000273 	and	w19, w19, w0
   13890:	7101727f 	cmp	w19, #0x5c
   13894:	54ffffa1 	b.ne	13888 <cpg_reset_ddr_mc+0x38>  // b.any
   13898:	52800020 	mov	w0, #0x1                   	// #1
   1389c:	97fffc9f 	bl	12b18 <udelay>
   138a0:	d2817d81 	mov	x1, #0xbec                 	// #3052
   138a4:	320083e2 	mov	w2, #0x10001               	// #65537
   138a8:	f2a22021 	movk	x1, #0x1101, lsl #16
   138ac:	52800020 	mov	w0, #0x1                   	// #1
   138b0:	b9000022 	str	w2, [x1]
   138b4:	97fffc99 	bl	12b18 <udelay>
   138b8:	d2810980 	mov	x0, #0x84c                 	// #2124
   138bc:	52800b82 	mov	w2, #0x5c                  	// #92
   138c0:	f2a22020 	movk	x0, #0x1101, lsl #16
   138c4:	d2813981 	mov	x1, #0x9cc                 	// #2508
   138c8:	72a00b82 	movk	w2, #0x5c, lsl #16
   138cc:	f2a22021 	movk	x1, #0x1101, lsl #16
   138d0:	b9000002 	str	w2, [x0]
   138d4:	d503201f 	nop
   138d8:	b9400020 	ldr	w0, [x1]
   138dc:	6a13001f 	tst	w0, w19
   138e0:	54ffffc1 	b.ne	138d8 <cpg_reset_ddr_mc+0x88>  // b.any
   138e4:	f9400bf3 	ldr	x19, [sp, #16]
   138e8:	52800020 	mov	w0, #0x1                   	// #1
   138ec:	a8c27bfd 	ldp	x29, x30, [sp], #32
   138f0:	17fffc8a 	b	12b18 <udelay>
   138f4:	00000000 	.inst	0x00000000 ; undefined

00000000000138f8 <cpg_early_setup>:
   138f8:	d2805001 	mov	x1, #0x280                 	// #640
   138fc:	f2a22021 	movk	x1, #0x1101, lsl #16
   13900:	b9400020 	ldr	w0, [x1]
   13904:	3707ffe0 	tbnz	w0, #0, 13900 <cpg_early_setup+0x8>
   13908:	d2804000 	mov	x0, #0x200                 	// #512
   1390c:	d2805001 	mov	x1, #0x280                 	// #640
   13910:	f2a22020 	movk	x0, #0x1101, lsl #16
   13914:	52a00022 	mov	w2, #0x10000               	// #65536
   13918:	f2a22021 	movk	x1, #0x1101, lsl #16
   1391c:	b9000002 	str	w2, [x0]
   13920:	b9400020 	ldr	w0, [x1]
   13924:	3707ffe0 	tbnz	w0, #0, 13920 <cpg_early_setup+0x28>
   13928:	b0000040 	adrp	x0, 1c000 <vprintf+0x418>
   1392c:	52800041 	mov	w1, #0x2                   	// #2
   13930:	91104000 	add	x0, x0, #0x410
   13934:	17ffff71 	b	136f8 <cpg_ctrl_clkrst>

0000000000013938 <cpg_setup>:
   13938:	a9bf7bfd 	stp	x29, x30, [sp, #-16]!
   1393c:	90000060 	adrp	x0, 1f000 <__RO_END__>
   13940:	911de003 	add	x3, x0, #0x778
   13944:	910003fd 	mov	x29, sp
   13948:	f943bc05 	ldr	x5, [x0, #1912]
   1394c:	90000066 	adrp	x6, 1f000 <__RO_END__>
   13950:	b9400860 	ldr	w0, [x3, #8]
   13954:	911e60c2 	add	x2, x6, #0x798
   13958:	f9400864 	ldr	x4, [x3, #16]
   1395c:	12103c00 	and	w0, w0, #0xffff0000
   13960:	b94000a8 	ldr	w8, [x5]
   13964:	d2805001 	mov	x1, #0x280                 	// #640
   13968:	f943ccc7 	ldr	x7, [x6, #1944]
   1396c:	2a080000 	orr	w0, w0, w8
   13970:	f9400846 	ldr	x6, [x2, #16]
   13974:	b90000a0 	str	w0, [x5]
   13978:	f2a22021 	movk	x1, #0x1101, lsl #16
   1397c:	b9401860 	ldr	w0, [x3, #24]
   13980:	b9400088 	ldr	w8, [x4]
   13984:	12103c00 	and	w0, w0, #0xffff0000
   13988:	2a080000 	orr	w0, w0, w8
   1398c:	b9000080 	str	w0, [x4]
   13990:	b9400840 	ldr	w0, [x2, #8]
   13994:	b90000e0 	str	w0, [x7]
   13998:	b9401840 	ldr	w0, [x2, #24]
   1399c:	b90000c0 	str	w0, [x6]
   139a0:	b9400020 	ldr	w0, [x1]
   139a4:	35ffffe0 	cbnz	w0, 139a0 <cpg_setup+0x68>
   139a8:	b9400866 	ldr	w6, [x3, #8]
   139ac:	d2800382 	mov	x2, #0x1c                  	// #28
   139b0:	b94000a0 	ldr	w0, [x5]
   139b4:	f2a22022 	movk	x2, #0x1101, lsl #16
   139b8:	52800221 	mov	w1, #0x11                  	// #17
   139bc:	2a060000 	orr	w0, w0, w6
   139c0:	b90000a0 	str	w0, [x5]
   139c4:	b9401863 	ldr	w3, [x3, #24]
   139c8:	b9400080 	ldr	w0, [x4]
   139cc:	2a030000 	orr	w0, w0, w3
   139d0:	b9000080 	str	w0, [x4]
   139d4:	d503201f 	nop
   139d8:	b9400040 	ldr	w0, [x2]
   139dc:	6a01001f 	tst	w0, w1
   139e0:	54ffffc1 	b.ne	139d8 <cpg_setup+0xa0>  // b.any
   139e4:	d2800582 	mov	x2, #0x2c                  	// #44
   139e8:	52800221 	mov	w1, #0x11                  	// #17
   139ec:	f2a22022 	movk	x2, #0x1101, lsl #16
   139f0:	b9400040 	ldr	w0, [x2]
   139f4:	6a01001f 	tst	w0, w1
   139f8:	54ffffc1 	b.ne	139f0 <cpg_setup+0xb8>  // b.any
   139fc:	d2800281 	mov	x1, #0x14                  	// #20
   13a00:	d2800300 	mov	x0, #0x18                  	// #24
   13a04:	f2a22021 	movk	x1, #0x1101, lsl #16
   13a08:	52864062 	mov	w2, #0x3203                	// #12803
   13a0c:	f2a22020 	movk	x0, #0x1101, lsl #16
   13a10:	72bf5c22 	movk	w2, #0xfae1, lsl #16
   13a14:	d2800203 	mov	x3, #0x10                  	// #16
   13a18:	b9000022 	str	w2, [x1]
   13a1c:	f2a22023 	movk	x3, #0x1101, lsl #16
   13a20:	52820001 	mov	w1, #0x1000                	// #4096
   13a24:	d2800482 	mov	x2, #0x24                  	// #36
   13a28:	72a00101 	movk	w1, #0x8, lsl #16
   13a2c:	f2a22022 	movk	x2, #0x1101, lsl #16
   13a30:	b9000001 	str	w1, [x0]
   13a34:	320083e0 	mov	w0, #0x10001               	// #65537
   13a38:	d2800501 	mov	x1, #0x28                  	// #40
   13a3c:	b9000060 	str	w0, [x3]
   13a40:	f2a22021 	movk	x1, #0x1101, lsl #16
   13a44:	5287d064 	mov	w4, #0x3e83                	// #16003
   13a48:	b9000044 	str	w4, [x2]
   13a4c:	5285a042 	mov	w2, #0x2d02                	// #11522
   13a50:	72a00102 	movk	w2, #0x8, lsl #16
   13a54:	b9000022 	str	w2, [x1]
   13a58:	d2800382 	mov	x2, #0x1c                  	// #28
   13a5c:	52800221 	mov	w1, #0x11                  	// #17
   13a60:	f2a22022 	movk	x2, #0x1101, lsl #16
   13a64:	b9001060 	str	w0, [x3, #16]
   13a68:	b9400040 	ldr	w0, [x2]
   13a6c:	6a01001f 	tst	w0, w1
   13a70:	54ffffc0 	b.eq	13a68 <cpg_setup+0x130>  // b.none
   13a74:	d2800582 	mov	x2, #0x2c                  	// #44
   13a78:	52800221 	mov	w1, #0x11                  	// #17
   13a7c:	f2a22022 	movk	x2, #0x1101, lsl #16
   13a80:	b9400040 	ldr	w0, [x2]
   13a84:	6a01001f 	tst	w0, w1
   13a88:	54ffffc0 	b.eq	13a80 <cpg_setup+0x148>  // b.none
   13a8c:	528003e1 	mov	w1, #0x1f                  	// #31
   13a90:	90000060 	adrp	x0, 1f000 <__RO_END__>
   13a94:	91062000 	add	x0, x0, #0x188
   13a98:	97ffff18 	bl	136f8 <cpg_ctrl_clkrst>
   13a9c:	528003e1 	mov	w1, #0x1f                  	// #31
   13aa0:	90000060 	adrp	x0, 1f000 <__RO_END__>
   13aa4:	91124000 	add	x0, x0, #0x490
   13aa8:	97ffff14 	bl	136f8 <cpg_ctrl_clkrst>
   13aac:	90000062 	adrp	x2, 1f000 <__RO_END__>
   13ab0:	9111c040 	add	x0, x2, #0x470
   13ab4:	d2805001 	mov	x1, #0x280                 	// #640
   13ab8:	f9423843 	ldr	x3, [x2, #1136]
   13abc:	f2a22021 	movk	x1, #0x1101, lsl #16
   13ac0:	b9400804 	ldr	w4, [x0, #8]
   13ac4:	f9400802 	ldr	x2, [x0, #16]
   13ac8:	b9000064 	str	w4, [x3]
   13acc:	b9401800 	ldr	w0, [x0, #24]
   13ad0:	b9000040 	str	w0, [x2]
   13ad4:	d503201f 	nop
   13ad8:	b9400020 	ldr	w0, [x1]
   13adc:	35ffffe0 	cbnz	w0, 13ad8 <cpg_setup+0x1a0>
   13ae0:	d2816281 	mov	x1, #0xb14                 	// #2836
   13ae4:	f2a22021 	movk	x1, #0x1101, lsl #16
   13ae8:	b9400020 	ldr	w0, [x1]
   13aec:	32000800 	orr	w0, w0, #0x7
   13af0:	b9000020 	str	w0, [x1]
   13af4:	a8c17bfd 	ldp	x29, x30, [sp], #16
   13af8:	d65f03c0 	ret
   13afc:	00000000 	.inst	0x00000000 ; undefined

0000000000013b00 <disable_phy_clk>:
   13b00:	d2804002 	mov	x2, #0x200                 	// #512
   13b04:	d2804080 	mov	x0, #0x204                 	// #516
   13b08:	f2a22802 	movk	x2, #0x1140, lsl #16
   13b0c:	f2a22800 	movk	x0, #0x1140, lsl #16
   13b10:	52804003 	mov	w3, #0x200                 	// #512
   13b14:	320083e1 	mov	w1, #0x10001               	// #65537
   13b18:	b9000043 	str	w3, [x2]
   13b1c:	b9000001 	str	w1, [x0]
   13b20:	d65f03c0 	ret
   13b24:	00000000 	.inst	0x00000000 ; undefined

0000000000013b28 <program_mc1>:
   13b28:	d0000041 	adrp	x1, 1d000 <sys_acctl+0xe0>
   13b2c:	d2801e07 	mov	x7, #0xf0                  	// #240
   13b30:	91046021 	add	x1, x1, #0x118
   13b34:	52a22825 	mov	w5, #0x11410000            	// #289472512
   13b38:	91368026 	add	x6, x1, #0xda0
   13b3c:	f2a22827 	movk	x7, #0x1141, lsl #16
   13b40:	14000005 	b	13b54 <program_mc1+0x2c>
   13b44:	b9000082 	str	w2, [x4]
   13b48:	91002021 	add	x1, x1, #0x8
   13b4c:	eb06003f 	cmp	x1, x6
   13b50:	54000180 	b.eq	13b80 <program_mc1+0x58>  // b.none
   13b54:	29400823 	ldp	w3, w2, [x1]
   13b58:	0b050064 	add	w4, w3, w5
   13b5c:	7103c07f 	cmp	w3, #0xf0
   13b60:	54ffff21 	b.ne	13b44 <program_mc1+0x1c>  // b.any
   13b64:	12000c43 	and	w3, w2, #0xf
   13b68:	39000003 	strb	w3, [x0]
   13b6c:	121c6c42 	and	w2, w2, #0xfffffff0
   13b70:	b90000e2 	str	w2, [x7]
   13b74:	91002021 	add	x1, x1, #0x8
   13b78:	eb06003f 	cmp	x1, x6
   13b7c:	54fffec1 	b.ne	13b54 <program_mc1+0x2c>  // b.any
   13b80:	d2805800 	mov	x0, #0x2c0                 	// #704
   13b84:	b0000042 	adrp	x2, 1c000 <vprintf+0x418>
   13b88:	f2a22820 	movk	x0, #0x1141, lsl #16
   13b8c:	91124044 	add	x4, x2, #0x490
   13b90:	b9449045 	ldr	w5, [x2, #1168]
   13b94:	d2805881 	mov	x1, #0x2c4                 	// #708
   13b98:	b9400007 	ldr	w7, [x0]
   13b9c:	f2a22821 	movk	x1, #0x1141, lsl #16
   13ba0:	29408883 	ldp	w3, w2, [x4, #4]
   13ba4:	120674e7 	and	w7, w7, #0xfcffffff
   13ba8:	2a0560e5 	orr	w5, w7, w5, lsl #24
   13bac:	b9000005 	str	w5, [x0]
   13bb0:	b9400c8d 	ldr	w13, [x4, #12]
   13bb4:	b0000048 	adrp	x8, 1c000 <vprintf+0x418>
   13bb8:	b9400025 	ldr	w5, [x1]
   13bbc:	d2802306 	mov	x6, #0x118                 	// #280
   13bc0:	f2a22826 	movk	x6, #0x1141, lsl #16
   13bc4:	9111c109 	add	x9, x8, #0x470
   13bc8:	121674a5 	and	w5, w5, #0xfffffcff
   13bcc:	b9447104 	ldr	w4, [x8, #1136]
   13bd0:	2a0320a3 	orr	w3, w5, w3, lsl #8
   13bd4:	b9000023 	str	w3, [x1]
   13bd8:	b9400531 	ldr	w17, [x9, #4]
   13bdc:	2a2403e4 	mvn	w4, w4
   13be0:	b9400005 	ldr	w5, [x0]
   13be4:	d2802490 	mov	x16, #0x124                 	// #292
   13be8:	f2a22830 	movk	x16, #0x1141, lsl #16
   13bec:	b0000047 	adrp	x7, 1c000 <vprintf+0x418>
   13bf0:	120e74a5 	and	w5, w5, #0xfffcffff
   13bf4:	d280238e 	mov	x14, #0x11c                 	// #284
   13bf8:	2a0240a2 	orr	w2, w5, w2, lsl #16
   13bfc:	b9000002 	str	w2, [x0]
   13c00:	9111e0e8 	add	x8, x7, #0x478
   13c04:	f2a2282e 	movk	x14, #0x1141, lsl #16
   13c08:	b9400020 	ldr	w0, [x1]
   13c0c:	d280250b 	mov	x11, #0x128                 	// #296
   13c10:	b94478e3 	ldr	w3, [x7, #1144]
   13c14:	f2a2282b 	movk	x11, #0x1141, lsl #16
   13c18:	121e7400 	and	w0, w0, #0xfffffffc
   13c1c:	b940050c 	ldr	w12, [x8, #4]
   13c20:	2a0d0000 	orr	w0, w0, w13
   13c24:	b9000020 	str	w0, [x1]
   13c28:	2a2303e3 	mvn	w3, w3
   13c2c:	b0000047 	adrp	x7, 1c000 <vprintf+0x418>
   13c30:	b94000c0 	ldr	w0, [x6]
   13c34:	d280288a 	mov	x10, #0x144                 	// #324
   13c38:	911200e8 	add	x8, x7, #0x480
   13c3c:	f2a2282a 	movk	x10, #0x1141, lsl #16
   13c40:	0a000080 	and	w0, w4, w0
   13c44:	b94480e2 	ldr	w2, [x7, #1152]
   13c48:	2a110000 	orr	w0, w0, w17
   13c4c:	b90000c0 	str	w0, [x6]
   13c50:	b940050f 	ldr	w15, [x8, #4]
   13c54:	2a2203e2 	mvn	w2, w2
   13c58:	b9400212 	ldr	w18, [x16]
   13c5c:	d2802909 	mov	x9, #0x148                 	// #328
   13c60:	f2a22829 	movk	x9, #0x1141, lsl #16
   13c64:	b0000045 	adrp	x5, 1c000 <vprintf+0x418>
   13c68:	0a120084 	and	w4, w4, w18
   13c6c:	d2802988 	mov	x8, #0x14c                 	// #332
   13c70:	2a110084 	orr	w4, w4, w17
   13c74:	b9000204 	str	w4, [x16]
   13c78:	f2a22828 	movk	x8, #0x1141, lsl #16
   13c7c:	911220ad 	add	x13, x5, #0x488
   13c80:	b94001c4 	ldr	w4, [x14]
   13c84:	d2802a07 	mov	x7, #0x150                 	// #336
   13c88:	b94488a1 	ldr	w1, [x5, #1160]
   13c8c:	f2a22827 	movk	x7, #0x1141, lsl #16
   13c90:	0a040064 	and	w4, w3, w4
   13c94:	b0000040 	adrp	x0, 1c000 <vprintf+0x418>
   13c98:	2a0c0084 	orr	w4, w4, w12
   13c9c:	b90001c4 	str	w4, [x14]
   13ca0:	2a2103e1 	mvn	w1, w1
   13ca4:	91128000 	add	x0, x0, #0x4a0
   13ca8:	b9400164 	ldr	w4, [x11]
   13cac:	91008006 	add	x6, x0, #0x20
   13cb0:	52a22825 	mov	w5, #0x11410000            	// #289472512
   13cb4:	0a040063 	and	w3, w3, w4
   13cb8:	2a0c0063 	orr	w3, w3, w12
   13cbc:	b9000163 	str	w3, [x11]
   13cc0:	b9400143 	ldr	w3, [x10]
   13cc4:	0a030043 	and	w3, w2, w3
   13cc8:	2a0f0063 	orr	w3, w3, w15
   13ccc:	b9000143 	str	w3, [x10]
   13cd0:	b9400123 	ldr	w3, [x9]
   13cd4:	0a030042 	and	w2, w2, w3
   13cd8:	2a0f0042 	orr	w2, w2, w15
   13cdc:	b9000122 	str	w2, [x9]
   13ce0:	b9400102 	ldr	w2, [x8]
   13ce4:	b94005a3 	ldr	w3, [x13, #4]
   13ce8:	0a020022 	and	w2, w1, w2
   13cec:	2a030042 	orr	w2, w2, w3
   13cf0:	b9000102 	str	w2, [x8]
   13cf4:	b94000e2 	ldr	w2, [x7]
   13cf8:	0a020021 	and	w1, w1, w2
   13cfc:	2a030021 	orr	w1, w1, w3
   13d00:	b90000e1 	str	w1, [x7]
   13d04:	b9400402 	ldr	w2, [x0, #4]
   13d08:	b8408401 	ldr	w1, [x0], #8
   13d0c:	0b050021 	add	w1, w1, w5
   13d10:	eb0000df 	cmp	x6, x0
   13d14:	b9000022 	str	w2, [x1]
   13d18:	54ffff61 	b.ne	13d04 <program_mc1+0x1dc>  // b.any
   13d1c:	d65f03c0 	ret

0000000000013d20 <setup_vref_training_registers>:
   13d20:	d2802985 	mov	x5, #0x14c                 	// #332
   13d24:	12001c00 	and	w0, w0, #0xff
   13d28:	f2a22825 	movk	x5, #0x1141, lsl #16
   13d2c:	51005c03 	sub	w3, w0, #0x17
   13d30:	7100cc1f 	cmp	w0, #0x33
   13d34:	12001c42 	and	w2, w2, #0xff
   13d38:	12001c64 	and	w4, w3, #0xff
   13d3c:	321a0000 	orr	w0, w0, #0x40
   13d40:	b94000a3 	ldr	w3, [x5]
   13d44:	1a843000 	csel	w0, w0, w4, cc  // cc = lo, ul, last
   13d48:	7100085f 	cmp	w2, #0x2
   13d4c:	12001c21 	and	w1, w1, #0xff
   13d50:	1a9f07e2 	cset	w2, ne  // ne = any
   13d54:	12181c63 	and	w3, w3, #0xff00
   13d58:	2a000060 	orr	w0, w3, w0
   13d5c:	2a021c00 	orr	w0, w0, w2, lsl #7
   13d60:	360000e1 	tbz	w1, #0, 13d7c <setup_vref_training_registers+0x5c>
   13d64:	d2802583 	mov	x3, #0x12c                 	// #300
   13d68:	f2a22823 	movk	x3, #0x1141, lsl #16
   13d6c:	b9400062 	ldr	w2, [x3]
   13d70:	12103c42 	and	w2, w2, #0xffff0000
   13d74:	2a000042 	orr	w2, w2, w0
   13d78:	b9000062 	str	w2, [x3]
   13d7c:	52800003 	mov	w3, #0x0                   	// #0
   13d80:	36080101 	tbz	w1, #1, 13da0 <setup_vref_training_registers+0x80>
   13d84:	d2802604 	mov	x4, #0x130                 	// #304
   13d88:	52802003 	mov	w3, #0x100                 	// #256
   13d8c:	f2a22824 	movk	x4, #0x1141, lsl #16
   13d90:	b9400082 	ldr	w2, [x4]
   13d94:	12103c42 	and	w2, w2, #0xffff0000
   13d98:	2a000040 	orr	w0, w2, w0
   13d9c:	b9000080 	str	w0, [x4]
   13da0:	12000421 	and	w1, w1, #0x3
   13da4:	d2802182 	mov	x2, #0x10c                 	// #268
   13da8:	f2a22822 	movk	x2, #0x1141, lsl #16
   13dac:	71000c3f 	cmp	w1, #0x3
   13db0:	1a9f17e0 	cset	w0, eq  // eq = none
   13db4:	528000c4 	mov	w4, #0x6                   	// #6
   13db8:	b9400041 	ldr	w1, [x2]
   13dbc:	72a05004 	movk	w4, #0x280, lsl #16
   13dc0:	2a006060 	orr	w0, w3, w0, lsl #24
   13dc4:	d2804985 	mov	x5, #0x24c                 	// #588
   13dc8:	2a040000 	orr	w0, w0, w4
   13dcc:	12061421 	and	w1, w1, #0xfc000000
   13dd0:	2a010000 	orr	w0, w0, w1
   13dd4:	f2a22825 	movk	x5, #0x1141, lsl #16
   13dd8:	b9000040 	str	w0, [x2]
   13ddc:	d503201f 	nop
   13de0:	b94000a0 	ldr	w0, [x5]
   13de4:	361fffe0 	tbz	w0, #3, 13de0 <setup_vref_training_registers+0xc0>
   13de8:	d2804d82 	mov	x2, #0x26c                 	// #620
   13dec:	52800020 	mov	w0, #0x1                   	// #1
   13df0:	f2a22822 	movk	x2, #0x1141, lsl #16
   13df4:	b9400041 	ldr	w1, [x2]
   13df8:	321d0021 	orr	w1, w1, #0x8
   13dfc:	b9000041 	str	w1, [x2]
   13e00:	17fffb46 	b	12b18 <udelay>
   13e04:	00000000 	.inst	0x00000000 ; undefined

0000000000013e08 <exec_trainingVREF>:
   13e08:	a9a87bfd 	stp	x29, x30, [sp, #-384]!
   13e0c:	d2802583 	mov	x3, #0x12c                 	// #300
   13e10:	f2a22803 	movk	x3, #0x1140, lsl #16
   13e14:	910003fd 	mov	x29, sp
   13e18:	d2800c02 	mov	x2, #0x60                  	// #96
   13e1c:	a90153f3 	stp	x19, x20, [sp, #16]
   13e20:	f2a22802 	movk	x2, #0x1140, lsl #16
   13e24:	a9025bf5 	stp	x21, x22, [sp, #32]
   13e28:	7100083f 	cmp	w1, #0x2
   13e2c:	a90363f7 	stp	x23, x24, [sp, #48]
   13e30:	a9046bf9 	stp	x25, x26, [sp, #64]
   13e34:	a90573fb 	stp	x27, x28, [sp, #80]
   13e38:	2a0103fc 	mov	w28, w1
   13e3c:	b9006fe0 	str	w0, [sp, #108]
   13e40:	b900007f 	str	wzr, [x3]
   13e44:	b9400040 	ldr	w0, [x2]
   13e48:	121a7400 	and	w0, w0, #0xffffffcf
   13e4c:	321c0000 	orr	w0, w0, #0x10
   13e50:	b9000040 	str	w0, [x2]
   13e54:	54002d41 	b.ne	143fc <exec_trainingVREF+0x5f4>  // b.any
   13e58:	52800020 	mov	w0, #0x1                   	// #1
   13e5c:	b9000060 	str	w0, [x3]
   13e60:	d280cf04 	mov	x4, #0x678                 	// #1656
   13e64:	d280d083 	mov	x3, #0x684                 	// #1668
   13e68:	b9400040 	ldr	w0, [x2]
   13e6c:	f2a22824 	movk	x4, #0x1141, lsl #16
   13e70:	f2a22823 	movk	x3, #0x1141, lsl #16
   13e74:	b2001fe1 	mov	x1, #0xff000000ff          	// #1095216660735
   13e78:	121a7400 	and	w0, w0, #0xffffffcf
   13e7c:	321c0000 	orr	w0, w0, #0x10
   13e80:	b9000040 	str	w0, [x2]
   13e84:	b9400088 	ldr	w8, [x4]
   13e88:	b940006e 	ldr	w14, [x3]
   13e8c:	a9087fe1 	stp	x1, xzr, [sp, #128]
   13e90:	d3505d08 	ubfx	x8, x8, #16, #8
   13e94:	12001dce 	and	w14, w14, #0xff
   13e98:	531f79cb 	lsl	w11, w14, #1
   13e9c:	d2802586 	mov	x6, #0x12c                 	// #300
   13ea0:	d280390c 	mov	x12, #0x1c8                 	// #456
   13ea4:	d2802001 	mov	x1, #0x100                 	// #256
   13ea8:	d280358a 	mov	x10, #0x1ac                 	// #428
   13eac:	d2803a89 	mov	x9, #0x1d4                 	// #468
   13eb0:	110005c7 	add	w7, w14, #0x1
   13eb4:	1100056b 	add	w11, w11, #0x1
   13eb8:	4b0e010e 	sub	w14, w8, w14
   13ebc:	910223f4 	add	x20, sp, #0x88
   13ec0:	910203ed 	add	x13, sp, #0x80
   13ec4:	52800004 	mov	w4, #0x0                   	// #0
   13ec8:	f2a22806 	movk	x6, #0x1140, lsl #16
   13ecc:	f2a2280c 	movk	x12, #0x1140, lsl #16
   13ed0:	f2a22801 	movk	x1, #0x1140, lsl #16
   13ed4:	52a6100f 	mov	w15, #0x30800000            	// #813694976
   13ed8:	f2a2280a 	movk	x10, #0x1140, lsl #16
   13edc:	f2a22809 	movk	x9, #0x1140, lsl #16
   13ee0:	52800031 	mov	w17, #0x1                   	// #1
   13ee4:	528000f0 	mov	w16, #0x7                   	// #7
   13ee8:	14000004 	b	13ef8 <exec_trainingVREF+0xf0>
   13eec:	2a0703e4 	mov	w4, w7
   13ef0:	6b04017f 	cmp	w11, w4
   13ef4:	540006c9 	b.ls	13fcc <exec_trainingVREF+0x1c4>  // b.plast
   13ef8:	6b0400ff 	cmp	w7, w4
   13efc:	540024e9 	b.ls	14398 <exec_trainingVREF+0x590>  // b.plast
   13f00:	11000880 	add	w0, w4, #0x2
   13f04:	4b040105 	sub	w5, w8, w4
   13f08:	12003ca5 	and	w5, w5, #0xffff
   13f0c:	6b08001f 	cmp	w0, w8
   13f10:	54fffee8 	b.hi	13eec <exec_trainingVREF+0xe4>  // b.pmore
   13f14:	531c6ca0 	lsl	w0, w5, #4
   13f18:	b90000df 	str	wzr, [x6]
   13f1c:	32000000 	orr	w0, w0, #0x1
   13f20:	b9000180 	str	w0, [x12]
   13f24:	71000b9f 	cmp	w28, #0x2
   13f28:	54000061 	b.ne	13f34 <exec_trainingVREF+0x12c>  // b.any
   13f2c:	b90000d0 	str	w16, [x6]
   13f30:	b9000180 	str	w0, [x12]
   13f34:	b900002f 	str	w15, [x1]
   13f38:	b9400020 	ldr	w0, [x1]
   13f3c:	37e7ffe0 	tbnz	w0, #28, 13f38 <exec_trainingVREF+0x130>
   13f40:	d2800000 	mov	x0, #0x0                   	// #0
   13f44:	b9400143 	ldr	w3, [x10]
   13f48:	11003802 	add	w2, w0, #0xe
   13f4c:	93407c12 	sxtw	x18, w0
   13f50:	1ac22462 	lsr	w2, w3, w2
   13f54:	37000302 	tbnz	w2, #0, 13fb4 <exec_trainingVREF+0x1ac>
   13f58:	0b000402 	add	w2, w0, w0, lsl #1
   13f5c:	531f7842 	lsl	w2, w2, #1
   13f60:	b90000c2 	str	w2, [x6]
   13f64:	b9400133 	ldr	w19, [x9]
   13f68:	b9400123 	ldr	w3, [x9]
   13f6c:	12001673 	and	w19, w19, #0x3f
   13f70:	b86079b8 	ldr	w24, [x13, x0, lsl #2]
   13f74:	d3483463 	ubfx	x3, x3, #8, #6
   13f78:	4b130062 	sub	w2, w3, w19
   13f7c:	4b030277 	sub	w23, w19, w3
   13f80:	6b03027f 	cmp	w19, w3
   13f84:	12001c42 	and	w2, w2, #0xff
   13f88:	12001ee3 	and	w3, w23, #0xff
   13f8c:	1a839042 	csel	w2, w2, w3, ls  // ls = plast
   13f90:	6b18005f 	cmp	w2, w24
   13f94:	54001e82 	b.cs	14364 <exec_trainingVREF+0x55c>  // b.hs, b.nlast
   13f98:	d37cec03 	lsl	x3, x0, #4
   13f9c:	b82079a2 	str	w2, [x13, x0, lsl #2]
   13fa0:	cb000062 	sub	x2, x3, x0
   13fa4:	910243e3 	add	x3, sp, #0x90
   13fa8:	b8207a91 	str	w17, [x20, x0, lsl #2]
   13fac:	d37df042 	lsl	x2, x2, #3
   13fb0:	b8226865 	str	w5, [x3, x2]
   13fb4:	91000400 	add	x0, x0, #0x1
   13fb8:	6b00039f 	cmp	w28, w0
   13fbc:	54fffc48 	b.hi	13f44 <exec_trainingVREF+0x13c>  // b.pmore
   13fc0:	11000484 	add	w4, w4, #0x1
   13fc4:	6b04017f 	cmp	w11, w4
   13fc8:	54fff988 	b.hi	13ef8 <exec_trainingVREF+0xf0>  // b.pmore
   13fcc:	531d7388 	lsl	w8, w28, #3
   13fd0:	910243fa 	add	x26, sp, #0x90
   13fd4:	d280258b 	mov	x11, #0x12c                 	// #300
   13fd8:	d280390a 	mov	x10, #0x1c8                 	// #456
   13fdc:	aa1403e9 	mov	x9, x20
   13fe0:	4b1c0108 	sub	w8, w8, w28
   13fe4:	aa1a03e4 	mov	x4, x26
   13fe8:	52800007 	mov	w7, #0x0                   	// #0
   13fec:	f2a2280b 	movk	x11, #0x1140, lsl #16
   13ff0:	f2a2280a 	movk	x10, #0x1140, lsl #16
   13ff4:	b9400126 	ldr	w6, [x9]
   13ff8:	d2800001 	mov	x1, #0x0                   	// #0
   13ffc:	52800002 	mov	w2, #0x0                   	// #0
   14000:	52800fe3 	mov	w3, #0x7f                  	// #127
   14004:	52807e00 	mov	w0, #0x3f0                 	// #1008
   14008:	340001a6 	cbz	w6, 1403c <exec_trainingVREF+0x234>
   1400c:	d503201f 	nop
   14010:	b8617880 	ldr	w0, [x4, x1, lsl #2]
   14014:	91000421 	add	x1, x1, #0x1
   14018:	6b00005f 	cmp	w2, w0
   1401c:	1a802042 	csel	w2, w2, w0, cs  // cs = hs, nlast
   14020:	6b00007f 	cmp	w3, w0
   14024:	1a809063 	csel	w3, w3, w0, ls  // ls = plast
   14028:	6b0100df 	cmp	w6, w1
   1402c:	54ffff28 	b.hi	14010 <exec_trainingVREF+0x208>  // b.pmore
   14030:	0b030040 	add	w0, w2, w3
   14034:	53017c00 	lsr	w0, w0, #1
   14038:	531c3c00 	ubfiz	w0, w0, #4, #16
   1403c:	b9000167 	str	w7, [x11]
   14040:	11001ce7 	add	w7, w7, #0x7
   14044:	b9000140 	str	w0, [x10]
   14048:	91001129 	add	x9, x9, #0x4
   1404c:	9101e084 	add	x4, x4, #0x78
   14050:	6b07011f 	cmp	w8, w7
   14054:	54fffd01 	b.ne	13ff4 <exec_trainingVREF+0x1ec>  // b.any
   14058:	d2802081 	mov	x1, #0x104                 	// #260
   1405c:	d2802103 	mov	x3, #0x108                 	// #264
   14060:	f2a22801 	movk	x1, #0x1140, lsl #16
   14064:	f2a22803 	movk	x3, #0x1140, lsl #16
   14068:	d2802000 	mov	x0, #0x100                 	// #256
   1406c:	32089fe2 	mov	w2, #0xff00ff00            	// #-16711936
   14070:	f2a22800 	movk	x0, #0x1140, lsl #16
   14074:	b9000022 	str	w2, [x1]
   14078:	aa0003e1 	mov	x1, x0
   1407c:	b9000062 	str	w2, [x3]
   14080:	52a61002 	mov	w2, #0x30800000            	// #813694976
   14084:	b9000002 	str	w2, [x0]
   14088:	b9400020 	ldr	w0, [x1]
   1408c:	37e7ffe0 	tbnz	w0, #28, 14088 <exec_trainingVREF+0x280>
   14090:	d2803580 	mov	x0, #0x1ac                 	// #428
   14094:	f2a22800 	movk	x0, #0x1140, lsl #16
   14098:	b9400004 	ldr	w4, [x0]
   1409c:	b9406fe0 	ldr	w0, [sp, #108]
   140a0:	6a443819 	ands	w25, w0, w4, lsr #14
   140a4:	54001c41 	b.ne	1442c <exec_trainingVREF+0x624>  // b.any
   140a8:	d2803286 	mov	x6, #0x194                 	// #404
   140ac:	3941b3e0 	ldrb	w0, [sp, #108]
   140b0:	f2a22806 	movk	x6, #0x1140, lsl #16
   140b4:	d280d083 	mov	x3, #0x684                 	// #1668
   140b8:	2a0003e1 	mov	w1, w0
   140bc:	f2a22823 	movk	x3, #0x1141, lsl #16
   140c0:	b94000c0 	ldr	w0, [x6]
   140c4:	d2802387 	mov	x7, #0x11c                 	// #284
   140c8:	b9007fe1 	str	w1, [sp, #124]
   140cc:	f2a22807 	movk	x7, #0x1140, lsl #16
   140d0:	32190000 	orr	w0, w0, #0x80
   140d4:	b90000c0 	str	w0, [x6]
   140d8:	52800022 	mov	w2, #0x1                   	// #1
   140dc:	b9400060 	ldr	w0, [x3]
   140e0:	b9400063 	ldr	w3, [x3]
   140e4:	b94000f7 	ldr	w23, [x7]
   140e8:	53087c00 	lsr	w0, w0, #8
   140ec:	d3505c63 	ubfx	x3, x3, #16, #8
   140f0:	f9003be3 	str	x3, [sp, #112]
   140f4:	120006e3 	and	w3, w23, #0x3
   140f8:	12001c15 	and	w21, w0, #0xff
   140fc:	b9007be3 	str	w3, [sp, #120]
   14100:	97ffff08 	bl	13d20 <setup_vref_training_registers>
   14104:	d2803901 	mov	x1, #0x1c8                 	// #456
   14108:	52801fe2 	mov	w2, #0xff                  	// #255
   1410c:	f2a22801 	movk	x1, #0x1140, lsl #16
   14110:	71000b9f 	cmp	w28, #0x2
   14114:	b9400020 	ldr	w0, [x1]
   14118:	32000000 	orr	w0, w0, #0x1
   1411c:	b9000020 	str	w0, [x1]
   14120:	b90083e2 	str	w2, [sp, #128]
   14124:	b9008bff 	str	wzr, [sp, #136]
   14128:	54000061 	b.ne	14134 <exec_trainingVREF+0x32c>  // b.any
   1412c:	b90087e2 	str	w2, [sp, #132]
   14130:	b9008fff 	str	wzr, [sp, #140]
   14134:	b94073e0 	ldr	w0, [sp, #112]
   14138:	d280201b 	mov	x27, #0x100                 	// #256
   1413c:	d2803a98 	mov	x24, #0x1d4                 	// #468
   14140:	52800017 	mov	w23, #0x0                   	// #0
   14144:	11000416 	add	w22, w0, #0x1
   14148:	f2a2281b 	movk	x27, #0x1140, lsl #16
   1414c:	531f7813 	lsl	w19, w0, #1
   14150:	f2a22818 	movk	x24, #0x1140, lsl #16
   14154:	11000660 	add	w0, w19, #0x1
   14158:	b9006be0 	str	w0, [sp, #104]
   1415c:	14000005 	b	14170 <exec_trainingVREF+0x368>
   14160:	b9406be0 	ldr	w0, [sp, #104]
   14164:	2a1603f7 	mov	w23, w22
   14168:	6b17001f 	cmp	w0, w23
   1416c:	54000729 	b.ls	14250 <exec_trainingVREF+0x448>  // b.plast
   14170:	6b1602ff 	cmp	w23, w22
   14174:	54001362 	b.cs	143e0 <exec_trainingVREF+0x5d8>  // b.hs, b.nlast
   14178:	4b1702a6 	sub	w6, w21, w23
   1417c:	6b1702bf 	cmp	w21, w23
   14180:	12003cd3 	and	w19, w6, #0xffff
   14184:	54fffee3 	b.cc	14160 <exec_trainingVREF+0x358>  // b.lo, b.ul, b.last
   14188:	3941e3e1 	ldrb	w1, [sp, #120]
   1418c:	2a1303e0 	mov	w0, w19
   14190:	52800002 	mov	w2, #0x0                   	// #0
   14194:	97fffee3 	bl	13d20 <setup_vref_training_registers>
   14198:	52a60a00 	mov	w0, #0x30500000            	// #810549248
   1419c:	b9000360 	str	w0, [x27]
   141a0:	b9400360 	ldr	w0, [x27]
   141a4:	37e7ffe0 	tbnz	w0, #28, 141a0 <exec_trainingVREF+0x398>
   141a8:	d2803801 	mov	x1, #0x1c0                 	// #448
   141ac:	910203ec 	add	x12, sp, #0x80
   141b0:	f2a22801 	movk	x1, #0x1140, lsl #16
   141b4:	d2800000 	mov	x0, #0x0                   	// #0
   141b8:	5280002d 	mov	w13, #0x1                   	// #1
   141bc:	b940002b 	ldr	w11, [x1]
   141c0:	b9406fe1 	ldr	w1, [sp, #108]
   141c4:	0a4b502b 	and	w11, w1, w11, lsr #20
   141c8:	93407c0e 	sxtw	x14, w0
   141cc:	3500034b 	cbnz	w11, 14234 <exec_trainingVREF+0x42c>
   141d0:	d2802582 	mov	x2, #0x12c                 	// #300
   141d4:	0b000401 	add	w1, w0, w0, lsl #1
   141d8:	f2a22802 	movk	x2, #0x1140, lsl #16
   141dc:	531f7821 	lsl	w1, w1, #1
   141e0:	b9000041 	str	w1, [x2]
   141e4:	b940030a 	ldr	w10, [x24]
   141e8:	b9400302 	ldr	w2, [x24]
   141ec:	1200154a 	and	w10, w10, #0x3f
   141f0:	b860798f 	ldr	w15, [x12, x0, lsl #2]
   141f4:	d3483442 	ubfx	x2, x2, #8, #6
   141f8:	4b0a0041 	sub	w1, w2, w10
   141fc:	4b020150 	sub	w16, w10, w2
   14200:	6b02015f 	cmp	w10, w2
   14204:	12001c21 	and	w1, w1, #0xff
   14208:	12001e02 	and	w2, w16, #0xff
   1420c:	1a829021 	csel	w1, w1, w2, ls  // ls = plast
   14210:	6b0f003f 	cmp	w1, w15
   14214:	54000cc2 	b.cs	143ac <exec_trainingVREF+0x5a4>  // b.hs, b.nlast
   14218:	d37cec02 	lsl	x2, x0, #4
   1421c:	b8207981 	str	w1, [x12, x0, lsl #2]
   14220:	cb000041 	sub	x1, x2, x0
   14224:	910243e2 	add	x2, sp, #0x90
   14228:	b8207a8d 	str	w13, [x20, x0, lsl #2]
   1422c:	d37df021 	lsl	x1, x1, #3
   14230:	b8216853 	str	w19, [x2, x1]
   14234:	91000400 	add	x0, x0, #0x1
   14238:	6b00039f 	cmp	w28, w0
   1423c:	54fffc68 	b.hi	141c8 <exec_trainingVREF+0x3c0>  // b.pmore
   14240:	b9406be0 	ldr	w0, [sp, #104]
   14244:	110006f7 	add	w23, w23, #0x1
   14248:	6b17001f 	cmp	w0, w23
   1424c:	54fff928 	b.hi	14170 <exec_trainingVREF+0x368>  // b.pmore
   14250:	d2800006 	mov	x6, #0x0                   	// #0
   14254:	52800fe2 	mov	w2, #0x7f                  	// #127
   14258:	b8667a83 	ldr	w3, [x20, x6, lsl #2]
   1425c:	d2800001 	mov	x1, #0x0                   	// #0
   14260:	34000143 	cbz	w3, 14288 <exec_trainingVREF+0x480>
   14264:	d503201f 	nop
   14268:	b8617b40 	ldr	w0, [x26, x1, lsl #2]
   1426c:	91000421 	add	x1, x1, #0x1
   14270:	6b00033f 	cmp	w25, w0
   14274:	1a802339 	csel	w25, w25, w0, cs  // cs = hs, nlast
   14278:	6b00005f 	cmp	w2, w0
   1427c:	1a809042 	csel	w2, w2, w0, ls  // ls = plast
   14280:	6b01007f 	cmp	w3, w1
   14284:	54ffff28 	b.hi	14268 <exec_trainingVREF+0x460>  // b.pmore
   14288:	910004c6 	add	x6, x6, #0x1
   1428c:	9101e35a 	add	x26, x26, #0x78
   14290:	6b06039f 	cmp	w28, w6
   14294:	54fffe28 	b.hi	14258 <exec_trainingVREF+0x450>  // b.pmore
   14298:	0b190053 	add	w19, w2, w25
   1429c:	b9407ff5 	ldr	w21, [sp, #124]
   142a0:	52800002 	mov	w2, #0x0                   	// #0
   142a4:	53017e73 	lsr	w19, w19, #1
   142a8:	2a1503e1 	mov	w1, w21
   142ac:	12001e74 	and	w20, w19, #0xff
   142b0:	2a1403e0 	mov	w0, w20
   142b4:	97fffe9b 	bl	13d20 <setup_vref_training_registers>
   142b8:	d280d106 	mov	x6, #0x688                 	// #1672
   142bc:	12003e63 	and	w3, w19, #0xffff
   142c0:	f2a22826 	movk	x6, #0x1141, lsl #16
   142c4:	d2803905 	mov	x5, #0x1c8                 	// #456
   142c8:	f2a22805 	movk	x5, #0x1140, lsl #16
   142cc:	2a1403e0 	mov	w0, w20
   142d0:	b94000c4 	ldr	w4, [x6]
   142d4:	2a1503e1 	mov	w1, w21
   142d8:	52800042 	mov	w2, #0x2                   	// #2
   142dc:	12185c84 	and	w4, w4, #0xffffff00
   142e0:	2a040063 	orr	w3, w3, w4
   142e4:	b90000c3 	str	w3, [x6]
   142e8:	b94000a3 	ldr	w3, [x5]
   142ec:	121f7863 	and	w3, w3, #0xfffffffe
   142f0:	b90000a3 	str	w3, [x5]
   142f4:	97fffe8b 	bl	13d20 <setup_vref_training_registers>
   142f8:	d2803282 	mov	x2, #0x194                 	// #404
   142fc:	d2802583 	mov	x3, #0x12c                 	// #300
   14300:	f2a22802 	movk	x2, #0x1140, lsl #16
   14304:	f2a22803 	movk	x3, #0x1140, lsl #16
   14308:	d2800c00 	mov	x0, #0x60                  	// #96
   1430c:	71000b9f 	cmp	w28, #0x2
   14310:	b9400041 	ldr	w1, [x2]
   14314:	f2a22800 	movk	x0, #0x1140, lsl #16
   14318:	12187821 	and	w1, w1, #0xffffff7f
   1431c:	b9000041 	str	w1, [x2]
   14320:	b900007f 	str	wzr, [x3]
   14324:	b9400001 	ldr	w1, [x0]
   14328:	321c0421 	orr	w1, w1, #0x30
   1432c:	b9000001 	str	w1, [x0]
   14330:	540000c1 	b.ne	14348 <exec_trainingVREF+0x540>  // b.any
   14334:	52800021 	mov	w1, #0x1                   	// #1
   14338:	b9000061 	str	w1, [x3]
   1433c:	b9400001 	ldr	w1, [x0]
   14340:	321c0421 	orr	w1, w1, #0x30
   14344:	b9000001 	str	w1, [x0]
   14348:	a94153f3 	ldp	x19, x20, [sp, #16]
   1434c:	a9425bf5 	ldp	x21, x22, [sp, #32]
   14350:	a94363f7 	ldp	x23, x24, [sp, #48]
   14354:	a9446bf9 	ldp	x25, x26, [sp, #64]
   14358:	a94573fb 	ldp	x27, x28, [sp, #80]
   1435c:	a8d87bfd 	ldp	x29, x30, [sp], #384
   14360:	d65f03c0 	ret
   14364:	54ffe281 	b.ne	13fb4 <exec_trainingVREF+0x1ac>  // b.any
   14368:	b8607a82 	ldr	w2, [x20, x0, lsl #2]
   1436c:	7100745f 	cmp	w2, #0x1d
   14370:	54ffe228 	b.hi	13fb4 <exec_trainingVREF+0x1ac>  // b.pmore
   14374:	11000443 	add	w3, w2, #0x1
   14378:	b8207a83 	str	w3, [x20, x0, lsl #2]
   1437c:	d37cee43 	lsl	x3, x18, #4
   14380:	cb120072 	sub	x18, x3, x18
   14384:	d37ffa43 	lsl	x3, x18, #1
   14388:	8b224062 	add	x2, x3, w2, uxtw
   1438c:	910243e3 	add	x3, sp, #0x90
   14390:	b8227865 	str	w5, [x3, x2, lsl #2]
   14394:	17ffff08 	b	13fb4 <exec_trainingVREF+0x1ac>
   14398:	0b0401c5 	add	w5, w14, w4
   1439c:	7101f8bf 	cmp	w5, #0x7e
   143a0:	54ffe168 	b.hi	13fcc <exec_trainingVREF+0x1c4>  // b.pmore
   143a4:	12003ca5 	and	w5, w5, #0xffff
   143a8:	17fffedb 	b	13f14 <exec_trainingVREF+0x10c>
   143ac:	54fff441 	b.ne	14234 <exec_trainingVREF+0x42c>  // b.any
   143b0:	b8607a81 	ldr	w1, [x20, x0, lsl #2]
   143b4:	7100743f 	cmp	w1, #0x1d
   143b8:	54fff3e8 	b.hi	14234 <exec_trainingVREF+0x42c>  // b.pmore
   143bc:	11000422 	add	w2, w1, #0x1
   143c0:	b8207a82 	str	w2, [x20, x0, lsl #2]
   143c4:	d37cedc2 	lsl	x2, x14, #4
   143c8:	cb0e004e 	sub	x14, x2, x14
   143cc:	d37ff9c2 	lsl	x2, x14, #1
   143d0:	8b214041 	add	x1, x2, w1, uxtw
   143d4:	910243e2 	add	x2, sp, #0x90
   143d8:	b8217853 	str	w19, [x2, x1, lsl #2]
   143dc:	17ffff96 	b	14234 <exec_trainingVREF+0x42c>
   143e0:	b94073e0 	ldr	w0, [sp, #112]
   143e4:	4b0002a6 	sub	w6, w21, w0
   143e8:	0b1700c6 	add	w6, w6, w23
   143ec:	710124df 	cmp	w6, #0x49
   143f0:	54fff308 	b.hi	14250 <exec_trainingVREF+0x448>  // b.pmore
   143f4:	12003cd3 	and	w19, w6, #0xffff
   143f8:	17ffff64 	b	14188 <exec_trainingVREF+0x380>
   143fc:	d280cf02 	mov	x2, #0x678                 	// #1656
   14400:	d280d081 	mov	x1, #0x684                 	// #1668
   14404:	f2a22822 	movk	x2, #0x1141, lsl #16
   14408:	f2a22821 	movk	x1, #0x1141, lsl #16
   1440c:	52801fe0 	mov	w0, #0xff                  	// #255
   14410:	b9400048 	ldr	w8, [x2]
   14414:	b940002e 	ldr	w14, [x1]
   14418:	b90083e0 	str	w0, [sp, #128]
   1441c:	d3505d08 	ubfx	x8, x8, #16, #8
   14420:	0a0001ce 	and	w14, w14, w0
   14424:	b9008bff 	str	wzr, [sp, #136]
   14428:	17fffe9c 	b	13e98 <exec_trainingVREF+0x90>
   1442c:	94001af9 	bl	1b010 <console_flush>
   14430:	97fff77a 	bl	12218 <do_panic>
   14434:	00000000 	.inst	0x00000000 ; undefined

0000000000014438 <ddr_setup>:
   14438:	a9b97bfd 	stp	x29, x30, [sp, #-112]!
   1443c:	f0ffffe0 	adrp	x0, 13000 <fip_file_open+0x100>
   14440:	912c0000 	add	x0, x0, #0xb00
   14444:	910003fd 	mov	x29, sp
   14448:	a90153f3 	stp	x19, x20, [sp, #16]
   1444c:	a9025bf5 	stp	x21, x22, [sp, #32]
   14450:	a90363f7 	stp	x23, x24, [sp, #48]
   14454:	39017fff 	strb	wzr, [sp, #95]
   14458:	97fffcbc 	bl	13748 <cpg_active_ddr>
   1445c:	91017fe0 	add	x0, sp, #0x5f
   14460:	97fffdb2 	bl	13b28 <program_mc1>
   14464:	d2804280 	mov	x0, #0x214                 	// #532
   14468:	f2a22820 	movk	x0, #0x1141, lsl #16
   1446c:	b9400000 	ldr	w0, [x0]
   14470:	360056e0 	tbz	w0, #0, 14f4c <ddr_setup+0xb14>
   14474:	12000013 	and	w19, w0, #0x1
   14478:	2a1303f7 	mov	w23, w19
   1447c:	d280ce80 	mov	x0, #0x674                 	// #1652
   14480:	d2805805 	mov	x5, #0x2c0                 	// #704
   14484:	d2800701 	mov	x1, #0x38                  	// #56
   14488:	d2800783 	mov	x3, #0x3c                  	// #60
   1448c:	f2a22820 	movk	x0, #0x1141, lsl #16
   14490:	f2a22825 	movk	x5, #0x1141, lsl #16
   14494:	f2a22821 	movk	x1, #0x1141, lsl #16
   14498:	f2a22823 	movk	x3, #0x1141, lsl #16
   1449c:	d2802304 	mov	x4, #0x118                 	// #280
   144a0:	d2802382 	mov	x2, #0x11c                 	// #284
   144a4:	f2a22824 	movk	x4, #0x1141, lsl #16
   144a8:	f2a22822 	movk	x2, #0x1141, lsl #16
   144ac:	b9400015 	ldr	w21, [x0]
   144b0:	b9400018 	ldr	w24, [x0]
   144b4:	b94000a8 	ldr	w8, [x5]
   144b8:	b9400021 	ldr	w1, [x1]
   144bc:	12003f0b 	and	w11, w24, #0xffff
   144c0:	b9400063 	ldr	w3, [x3]
   144c4:	d3504f18 	ubfx	x24, x24, #16, #4
   144c8:	b9400086 	ldr	w6, [x4]
   144cc:	d35452b6 	ubfx	x22, x21, #20, #1
   144d0:	b9400044 	ldr	w4, [x2]
   144d4:	d3515425 	ubfx	x5, x1, #17, #5
   144d8:	d3482c62 	ubfx	x2, x3, #8, #4
   144dc:	d3587021 	ubfx	x1, x1, #24, #5
   144e0:	12001063 	and	w3, w3, #0x1f
   144e4:	0b0200a0 	add	w0, w5, w2
   144e8:	0b020022 	add	w2, w1, w2
   144ec:	d35556b4 	ubfx	x20, x21, #21, #1
   144f0:	d3586507 	ubfx	x7, x8, #24, #2
   144f4:	71000b1f 	cmp	w24, #0x2
   144f8:	d35966b5 	ubfx	x21, x21, #25, #1
   144fc:	d3504508 	ubfx	x8, x8, #16, #2
   14500:	12003cca 	and	w10, w6, #0xffff
   14504:	0b000060 	add	w0, w3, w0
   14508:	0b020062 	add	w2, w3, w2
   1450c:	12003c89 	and	w9, w4, #0xffff
   14510:	54005fa0 	b.eq	15104 <ddr_setup+0xccc>  // b.none
   14514:	d3492884 	ubfx	x4, x4, #9, #2
   14518:	71000c9f 	cmp	w4, #0x3
   1451c:	54006a80 	b.eq	1526c <ddr_setup+0xe34>  // b.none
   14520:	2a0403e4 	mov	w4, w4
   14524:	90000046 	adrp	x6, 1c000 <vprintf+0x418>
   14528:	911140c6 	add	x6, x6, #0x450
   1452c:	9000004c 	adrp	x12, 1c000 <vprintf+0x418>
   14530:	9111018c 	add	x12, x12, #0x440
   14534:	529f3fed 	mov	w13, #0xf9ff                	// #63999
   14538:	f90023f9 	str	x25, [sp, #64]
   1453c:	b86478c6 	ldr	w6, [x6, x4, lsl #2]
   14540:	b864798c 	ldr	w12, [x12, x4, lsl #2]
   14544:	52003cc4 	eor	w4, w6, #0xffff
   14548:	0a0a0084 	and	w4, w4, w10
   1454c:	2a0c0084 	orr	w4, w4, w12
   14550:	d280cf0c 	mov	x12, #0x678                 	// #1656
   14554:	11000446 	add	w6, w2, #0x1
   14558:	f2a2282c 	movk	x12, #0x1141, lsl #16
   1455c:	11000400 	add	w0, w0, #0x1
   14560:	4b4607e6 	neg	w6, w6, lsr #1
   14564:	0a0d012d 	and	w13, w9, w13
   14568:	b940018c 	ldr	w12, [x12]
   1456c:	53017c00 	lsr	w0, w0, #1
   14570:	12001cc6 	and	w6, w6, #0xff
   14574:	71000b1f 	cmp	w24, #0x2
   14578:	0b060012 	add	w18, w0, w6
   1457c:	12000d91 	and	w17, w12, #0xf
   14580:	d3441d90 	ubfx	x16, x12, #4, #4
   14584:	d3482d8f 	ubfx	x15, x12, #8, #4
   14588:	53107d8e 	lsr	w14, w12, #16
   1458c:	12001e52 	and	w18, w18, #0xff
   14590:	531f7800 	lsl	w0, w0, #1
   14594:	53187d8c 	lsr	w12, w12, #24
   14598:	540057c0 	b.eq	15090 <ddr_setup+0xc58>  // b.none
   1459c:	110098c6 	add	w6, w6, #0x26
   145a0:	11009a52 	add	w18, w18, #0x26
   145a4:	0b060000 	add	w0, w0, w6
   145a8:	7100145f 	cmp	w2, #0x5
   145ac:	12001e46 	and	w6, w18, #0xff
   145b0:	12001c00 	and	w0, w0, #0xff
   145b4:	540055c0 	b.eq	1506c <ddr_setup+0xc34>  // b.none
   145b8:	d2804019 	mov	x25, #0x200                 	// #512
   145bc:	d2800b12 	mov	x18, #0x58                  	// #88
   145c0:	f2a22819 	movk	x25, #0x1140, lsl #16
   145c4:	f2a22812 	movk	x18, #0x1140, lsl #16
   145c8:	52a0021e 	mov	w30, #0x100000              	// #1048576
   145cc:	b900033e 	str	w30, [x25]
   145d0:	528000d9 	mov	w25, #0x6                   	// #6
   145d4:	b9000259 	str	w25, [x18]
   145d8:	7100031f 	cmp	w24, #0x0
   145dc:	d280399e 	mov	x30, #0x1cc                 	// #460
   145e0:	f2a2281e 	movk	x30, #0x1140, lsl #16
   145e4:	1a9f07f2 	cset	w18, ne  // ne = any
   145e8:	d2802e99 	mov	x25, #0x174                 	// #372
   145ec:	f2a22819 	movk	x25, #0x1140, lsl #16
   145f0:	53114252 	lsl	w18, w18, #15
   145f4:	b90003df 	str	wzr, [x30]
   145f8:	b900033f 	str	wzr, [x25]
   145fc:	710fa17f 	cmp	w11, #0x3e8
   14600:	3218024b 	orr	w11, w18, #0x100
   14604:	1a923172 	csel	w18, w11, w18, cc  // cc = lo, ul, last
   14608:	d280241e 	mov	x30, #0x120                 	// #288
   1460c:	53185e2b 	lsl	w11, w17, #8
   14610:	52880019 	mov	w25, #0x4000                	// #16384
   14614:	72a20019 	movk	w25, #0x1000, lsl #16
   14618:	2a11116b 	orr	w11, w11, w17, lsl #4
   1461c:	f2a2281e 	movk	x30, #0x1140, lsl #16
   14620:	2a113231 	orr	w17, w17, w17, lsl #12
   14624:	2a190252 	orr	w18, w18, w25
   14628:	2a11016b 	orr	w11, w11, w17
   1462c:	d2801899 	mov	x25, #0xc4                  	// #196
   14630:	530c2e11 	lsl	w17, w16, #20
   14634:	2a104230 	orr	w16, w17, w16, lsl #16
   14638:	f2a22819 	movk	x25, #0x1140, lsl #16
   1463c:	b90003d2 	str	w18, [x30]
   14640:	d2801912 	mov	x18, #0xc8                  	// #200
   14644:	2a10016b 	orr	w11, w11, w16
   14648:	71000b1f 	cmp	w24, #0x2
   1464c:	2a0f11f0 	orr	w16, w15, w15, lsl #4
   14650:	d2801391 	mov	x17, #0x9c                  	// #156
   14654:	f2a22812 	movk	x18, #0x1140, lsl #16
   14658:	1a8f120f 	csel	w15, w16, w15, ne  // ne = any
   1465c:	f2a22811 	movk	x17, #0x1140, lsl #16
   14660:	d2802590 	mov	x16, #0x12c                 	// #300
   14664:	b900032b 	str	w11, [x25]
   14668:	f2a22810 	movk	x16, #0x1140, lsl #16
   1466c:	d280390b 	mov	x11, #0x1c8                 	// #456
   14670:	b900024f 	str	w15, [x18]
   14674:	f2a2280b 	movk	x11, #0x1140, lsl #16
   14678:	b900023f 	str	wzr, [x17]
   1467c:	531c1dce 	ubfiz	w14, w14, #4, #8
   14680:	b900021f 	str	wzr, [x16]
   14684:	321e01ce 	orr	w14, w14, #0x4
   14688:	b900016e 	str	w14, [x11]
   1468c:	71000a7f 	cmp	w19, #0x2
   14690:	54000081 	b.ne	146a0 <ddr_setup+0x268>  // b.any
   14694:	528000ef 	mov	w15, #0x7                   	// #7
   14698:	b900020f 	str	w15, [x16]
   1469c:	b900016e 	str	w14, [x11]
   146a0:	1100046b 	add	w11, w3, #0x1
   146a4:	d2801803 	mov	x3, #0xc0                  	// #192
   146a8:	f2a22803 	movk	x3, #0x1140, lsl #16
   146ac:	53081ce7 	lsl	w7, w7, #24
   146b0:	d280368e 	mov	x14, #0x1b4                 	// #436
   146b4:	71000b1f 	cmp	w24, #0x2
   146b8:	2a0840e8 	orr	w8, w7, w8, lsl #16
   146bc:	f2a2280e 	movk	x14, #0x1140, lsl #16
   146c0:	110004a5 	add	w5, w5, #0x1
   146c4:	13017d6b 	asr	w11, w11, #1
   146c8:	528005a7 	mov	w7, #0x2d                  	// #45
   146cc:	b900006c 	str	w12, [x3]
   146d0:	72a34127 	movk	w7, #0x1a09, lsl #16
   146d4:	1a9f07e3 	cset	w3, ne  // ne = any
   146d8:	d2802b8c 	mov	x12, #0x15c                 	// #348
   146dc:	53185d6b 	lsl	w11, w11, #8
   146e0:	f2a2280c 	movk	x12, #0x1140, lsl #16
   146e4:	13017ca5 	asr	w5, w5, #1
   146e8:	11000421 	add	w1, w1, #0x1
   146ec:	b90001c7 	str	w7, [x14]
   146f0:	d2803d07 	mov	x7, #0x1e8                 	// #488
   146f4:	2a030963 	orr	w3, w11, w3, lsl #2
   146f8:	f2a22807 	movk	x7, #0x1140, lsl #16
   146fc:	2a080063 	orr	w3, w3, w8
   14700:	531c6ca5 	lsl	w5, w5, #4
   14704:	52800348 	mov	w8, #0x1a                  	// #26
   14708:	13017c21 	asr	w1, w1, #1
   1470c:	d280230b 	mov	x11, #0x118                 	// #280
   14710:	b900019f 	str	wzr, [x12]
   14714:	320000a5 	orr	w5, w5, #0x1
   14718:	f2a2280b 	movk	x11, #0x1140, lsl #16
   1471c:	b90000e8 	str	w8, [x7]
   14720:	53080047 	ubfiz	w7, w2, #24, #1
   14724:	d2802388 	mov	x8, #0x11c                 	// #284
   14728:	2a050063 	orr	w3, w3, w5
   1472c:	f2a22808 	movk	x8, #0x1140, lsl #16
   14730:	2a0120e1 	orr	w1, w7, w1, lsl #8
   14734:	d2802d87 	mov	x7, #0x16c                 	// #364
   14738:	f2a22807 	movk	x7, #0x1140, lsl #16
   1473c:	b9000163 	str	w3, [x11]
   14740:	d2803803 	mov	x3, #0x1c0                 	// #448
   14744:	53144c00 	lsl	w0, w0, #12
   14748:	32010421 	orr	w1, w1, #0x80000001
   1474c:	f2a22803 	movk	x3, #0x1140, lsl #16
   14750:	d2803785 	mov	x5, #0x1bc                 	// #444
   14754:	b9000101 	str	w1, [x8]
   14758:	2a061006 	orr	w6, w0, w6, lsl #4
   1475c:	f2a22805 	movk	x5, #0x1140, lsl #16
   14760:	520006e1 	eor	w1, w23, #0x3
   14764:	d2803c00 	mov	x0, #0x1e0                 	// #480
   14768:	b90000e1 	str	w1, [x7]
   1476c:	f2a22800 	movk	x0, #0x1140, lsl #16
   14770:	2a2203e2 	mvn	w2, w2
   14774:	b9000066 	str	w6, [x3]
   14778:	d2802a03 	mov	x3, #0x150                 	// #336
   1477c:	12000042 	and	w2, w2, #0x1
   14780:	f2a22803 	movk	x3, #0x1140, lsl #16
   14784:	d2802a81 	mov	x1, #0x154                 	// #340
   14788:	b90000a2 	str	w2, [x5]
   1478c:	f2a22801 	movk	x1, #0x1140, lsl #16
   14790:	52802e02 	mov	w2, #0x170                 	// #368
   14794:	b9000002 	str	w2, [x0]
   14798:	d2802480 	mov	x0, #0x124                 	// #292
   1479c:	2a0941a9 	orr	w9, w13, w9, lsl #16
   147a0:	2a044144 	orr	w4, w10, w4, lsl #16
   147a4:	f2a22800 	movk	x0, #0x1140, lsl #16
   147a8:	b9000069 	str	w9, [x3]
   147ac:	32090084 	orr	w4, w4, #0x800000
   147b0:	b9000024 	str	w4, [x1]
   147b4:	52820001 	mov	w1, #0x1000                	// #4096
   147b8:	72b58001 	movk	w1, #0xac00, lsl #16
   147bc:	b9000001 	str	w1, [x0]
   147c0:	52800140 	mov	w0, #0xa                   	// #10
   147c4:	97fff8d5 	bl	12b18 <udelay>
   147c8:	d2802d01 	mov	x1, #0x168                 	// #360
   147cc:	d2802c80 	mov	x0, #0x164                 	// #356
   147d0:	f2a22801 	movk	x1, #0x1140, lsl #16
   147d4:	f2a22800 	movk	x0, #0x1140, lsl #16
   147d8:	d2802584 	mov	x4, #0x12c                 	// #300
   147dc:	d2802602 	mov	x2, #0x130                 	// #304
   147e0:	f2a22804 	movk	x4, #0x1140, lsl #16
   147e4:	b900003f 	str	wzr, [x1]
   147e8:	f2a22802 	movk	x2, #0x1140, lsl #16
   147ec:	b900001f 	str	wzr, [x0]
   147f0:	d2802700 	mov	x0, #0x138                 	// #312
   147f4:	b900009f 	str	wzr, [x4]
   147f8:	f2a22800 	movk	x0, #0x1140, lsl #16
   147fc:	52800123 	mov	w3, #0x9                   	// #9
   14800:	b9000043 	str	w3, [x2]
   14804:	52800141 	mov	w1, #0xa                   	// #10
   14808:	b9000001 	str	w1, [x0]
   1480c:	71000a7f 	cmp	w19, #0x2
   14810:	540000a1 	b.ne	14824 <ddr_setup+0x3ec>  // b.any
   14814:	528000c5 	mov	w5, #0x6                   	// #6
   14818:	b9000085 	str	w5, [x4]
   1481c:	b9000043 	str	w3, [x2]
   14820:	b9000001 	str	w1, [x0]
   14824:	d2802502 	mov	x2, #0x128                 	// #296
   14828:	d2802581 	mov	x1, #0x12c                 	// #300
   1482c:	f2a22802 	movk	x2, #0x1140, lsl #16
   14830:	f2a22801 	movk	x1, #0x1140, lsl #16
   14834:	d2803480 	mov	x0, #0x1a4                 	// #420
   14838:	52804343 	mov	w3, #0x21a                 	// #538
   1483c:	f2a22800 	movk	x0, #0x1140, lsl #16
   14840:	b9000043 	str	w3, [x2]
   14844:	d2802482 	mov	x2, #0x124                 	// #292
   14848:	52801343 	mov	w3, #0x9a                  	// #154
   1484c:	f2a22802 	movk	x2, #0x1140, lsl #16
   14850:	b900003f 	str	wzr, [x1]
   14854:	d2802181 	mov	x1, #0x10c                 	// #268
   14858:	b9000003 	str	w3, [x0]
   1485c:	f2a22801 	movk	x1, #0x1140, lsl #16
   14860:	52820343 	mov	w3, #0x101a                	// #4122
   14864:	d2800c00 	mov	x0, #0x60                  	// #96
   14868:	72b58003 	movk	w3, #0xac00, lsl #16
   1486c:	f2a22800 	movk	x0, #0x1140, lsl #16
   14870:	b9000043 	str	w3, [x2]
   14874:	528a0ec2 	mov	w2, #0x5076                	// #20598
   14878:	71000b1f 	cmp	w24, #0x2
   1487c:	72a00062 	movk	w2, #0x3, lsl #16
   14880:	b9000022 	str	w2, [x1]
   14884:	52800642 	mov	w2, #0x32                  	// #50
   14888:	b9000002 	str	w2, [x0]
   1488c:	52800002 	mov	w2, #0x0                   	// #0
   14890:	b9406820 	ldr	w0, [x1, #104]
   14894:	12092000 	and	w0, w0, #0xff800000
   14898:	b9006820 	str	w0, [x1, #104]
   1489c:	540000a8 	b.hi	148b0 <ddr_setup+0x478>  // b.pmore
   148a0:	90000040 	adrp	x0, 1c000 <vprintf+0x418>
   148a4:	92401f01 	and	x1, x24, #0xff
   148a8:	91118000 	add	x0, x0, #0x460
   148ac:	b8617802 	ldr	w2, [x0, x1, lsl #2]
   148b0:	d2803984 	mov	x4, #0x1cc                 	// #460
   148b4:	d2802e00 	mov	x0, #0x170                 	// #368
   148b8:	f2a22804 	movk	x4, #0x1140, lsl #16
   148bc:	f2a22800 	movk	x0, #0x1140, lsl #16
   148c0:	aa0003e1 	mov	x1, x0
   148c4:	52800043 	mov	w3, #0x2                   	// #2
   148c8:	b9000082 	str	w2, [x4]
   148cc:	b9000003 	str	w3, [x0]
   148d0:	b9400020 	ldr	w0, [x1]
   148d4:	361fffe0 	tbz	w0, #3, 148d0 <ddr_setup+0x498>
   148d8:	b900003f 	str	wzr, [x1]
   148dc:	52800c80 	mov	w0, #0x64                  	// #100
   148e0:	97fff88e 	bl	12b18 <udelay>
   148e4:	7100071f 	cmp	w24, #0x1
   148e8:	540042a9 	b.ls	1513c <ddr_setup+0xd04>  // b.plast
   148ec:	71000b1f 	cmp	w24, #0x2
   148f0:	52826000 	mov	w0, #0x1300                	// #4864
   148f4:	72a10200 	movk	w0, #0x810, lsl #16
   148f8:	1a9f0000 	csel	w0, w0, wzr, eq  // eq = none
   148fc:	d2803984 	mov	x4, #0x1cc                 	// #460
   14900:	d2802e02 	mov	x2, #0x170                 	// #368
   14904:	f2a22804 	movk	x4, #0x1140, lsl #16
   14908:	f2a22802 	movk	x2, #0x1140, lsl #16
   1490c:	aa0203e1 	mov	x1, x2
   14910:	52800023 	mov	w3, #0x1                   	// #1
   14914:	b9000080 	str	w0, [x4]
   14918:	b9000043 	str	w3, [x2]
   1491c:	d503201f 	nop
   14920:	b9400020 	ldr	w0, [x1]
   14924:	3617ffe0 	tbz	w0, #2, 14920 <ddr_setup+0x4e8>
   14928:	b9400022 	ldr	w2, [x1]
   1492c:	52800020 	mov	w0, #0x1                   	// #1
   14930:	321c0042 	orr	w2, w2, #0x10
   14934:	b9000022 	str	w2, [x1]
   14938:	b9400022 	ldr	w2, [x1]
   1493c:	121b7842 	and	w2, w2, #0xffffffef
   14940:	b9000022 	str	w2, [x1]
   14944:	97fff875 	bl	12b18 <udelay>
   14948:	d2802484 	mov	x4, #0x124                 	// #292
   1494c:	d2804083 	mov	x3, #0x204                 	// #516
   14950:	f2a22804 	movk	x4, #0x1140, lsl #16
   14954:	f2a22803 	movk	x3, #0x1140, lsl #16
   14958:	1281e025 	mov	w5, #0xfffff0fe            	// #-3842
   1495c:	d2802c01 	mov	x1, #0x160                 	// #352
   14960:	b9400082 	ldr	w2, [x4]
   14964:	f2a22801 	movk	x1, #0x1140, lsl #16
   14968:	12057842 	and	w2, w2, #0xfbffffff
   1496c:	b9000082 	str	w2, [x4]
   14970:	b9400060 	ldr	w0, [x3]
   14974:	0a050000 	and	w0, w0, w5
   14978:	2a172000 	orr	w0, w0, w23, lsl #8
   1497c:	b9000060 	str	w0, [x3]
   14980:	b9400020 	ldr	w0, [x1]
   14984:	12000400 	and	w0, w0, #0x3
   14988:	6b17001f 	cmp	w0, w23
   1498c:	54ffffa1 	b.ne	14980 <ddr_setup+0x548>  // b.any
   14990:	52800000 	mov	w0, #0x0                   	// #0
   14994:	940018db 	bl	1ad00 <ddr_ctrl_reten_en_n>
   14998:	d2802004 	mov	x4, #0x100                 	// #256
   1499c:	d2800583 	mov	x3, #0x2c                  	// #44
   149a0:	f2a22824 	movk	x4, #0x1141, lsl #16
   149a4:	f2a22823 	movk	x3, #0x1141, lsl #16
   149a8:	d2a22822 	mov	x2, #0x11410000            	// #289472512
   149ac:	d2804901 	mov	x1, #0x248                 	// #584
   149b0:	b9400080 	ldr	w0, [x4]
   149b4:	f2a22821 	movk	x1, #0x1141, lsl #16
   149b8:	12177800 	and	w0, w0, #0xfffffeff
   149bc:	b9000080 	str	w0, [x4]
   149c0:	b9400060 	ldr	w0, [x3]
   149c4:	32080000 	orr	w0, w0, #0x1000000
   149c8:	b9000060 	str	w0, [x3]
   149cc:	b9400040 	ldr	w0, [x2]
   149d0:	32000000 	orr	w0, w0, #0x1
   149d4:	b9000040 	str	w0, [x2]
   149d8:	b9400020 	ldr	w0, [x1]
   149dc:	36cfffe0 	tbz	w0, #25, 149d8 <ddr_setup+0x5a0>
   149e0:	d2803d18 	mov	x24, #0x1e8                 	// #488
   149e4:	d280c885 	mov	x5, #0x644                 	// #1604
   149e8:	f2a22818 	movk	x24, #0x1140, lsl #16
   149ec:	f2a22825 	movk	x5, #0x1141, lsl #16
   149f0:	d280c384 	mov	x4, #0x61c                 	// #1564
   149f4:	d2804303 	mov	x3, #0x218                 	// #536
   149f8:	b9400302 	ldr	w2, [x24]
   149fc:	f2a22824 	movk	x4, #0x1141, lsl #16
   14a00:	f2a22823 	movk	x3, #0x1141, lsl #16
   14a04:	528de006 	mov	w6, #0x6f00                	// #28416
   14a08:	320d0042 	orr	w2, w2, #0x80000
   14a0c:	b9000302 	str	w2, [x24]
   14a10:	52800020 	mov	w0, #0x1                   	// #1
   14a14:	b94000a2 	ldr	w2, [x5]
   14a18:	12083c42 	and	w2, w2, #0xff0000ff
   14a1c:	32120042 	orr	w2, w2, #0x4000
   14a20:	b90000a2 	str	w2, [x5]
   14a24:	b9400081 	ldr	w1, [x4]
   14a28:	12032821 	and	w1, w1, #0xe00000ff
   14a2c:	2a060021 	orr	w1, w1, w6
   14a30:	b9000081 	str	w1, [x4]
   14a34:	b9400061 	ldr	w1, [x3]
   14a38:	32180021 	orr	w1, w1, #0x100
   14a3c:	b9000061 	str	w1, [x3]
   14a40:	97fff836 	bl	12b18 <udelay>
   14a44:	b9400300 	ldr	w0, [x24]
   14a48:	120c7800 	and	w0, w0, #0xfff7ffff
   14a4c:	b9000300 	str	w0, [x24]
   14a50:	97fffb80 	bl	13850 <cpg_reset_ddr_mc>
   14a54:	52800020 	mov	w0, #0x1                   	// #1
   14a58:	940018aa 	bl	1ad00 <ddr_ctrl_reten_en_n>
   14a5c:	91017fe0 	add	x0, sp, #0x5f
   14a60:	97fffc32 	bl	13b28 <program_mc1>
   14a64:	90000040 	adrp	x0, 1c000 <vprintf+0x418>
   14a68:	91130000 	add	x0, x0, #0x4c0
   14a6c:	91012004 	add	x4, x0, #0x48
   14a70:	52a22823 	mov	w3, #0x11410000            	// #289472512
   14a74:	d503201f 	nop
   14a78:	b9400402 	ldr	w2, [x0, #4]
   14a7c:	b8408401 	ldr	w1, [x0], #8
   14a80:	0b030021 	add	w1, w1, w3
   14a84:	eb00009f 	cmp	x4, x0
   14a88:	b9000022 	str	w2, [x1]
   14a8c:	54ffff61 	b.ne	14a78 <ddr_setup+0x640>  // b.any
   14a90:	90000040 	adrp	x0, 1c000 <vprintf+0x418>
   14a94:	91142000 	add	x0, x0, #0x508
   14a98:	91020004 	add	x4, x0, #0x80
   14a9c:	52a22803 	mov	w3, #0x11400000            	// #289406976
   14aa0:	b9400402 	ldr	w2, [x0, #4]
   14aa4:	b8408401 	ldr	w1, [x0], #8
   14aa8:	0b030021 	add	w1, w1, w3
   14aac:	eb00009f 	cmp	x4, x0
   14ab0:	b9000022 	str	w2, [x1]
   14ab4:	54ffff61 	b.ne	14aa0 <ddr_setup+0x668>  // b.any
   14ab8:	d2a22822 	mov	x2, #0x11410000            	// #289472512
   14abc:	d2804901 	mov	x1, #0x248                 	// #584
   14ac0:	f2a22821 	movk	x1, #0x1141, lsl #16
   14ac4:	b9400040 	ldr	w0, [x2]
   14ac8:	32000000 	orr	w0, w0, #0x1
   14acc:	b9000040 	str	w0, [x2]
   14ad0:	b9400020 	ldr	w0, [x1]
   14ad4:	36cfffe0 	tbz	w0, #25, 14ad0 <ddr_setup+0x698>
   14ad8:	d2804d02 	mov	x2, #0x268                 	// #616
   14adc:	d2802304 	mov	x4, #0x118                 	// #280
   14ae0:	f2a22822 	movk	x2, #0x1141, lsl #16
   14ae4:	f2a22804 	movk	x4, #0x1140, lsl #16
   14ae8:	d2802987 	mov	x7, #0x14c                 	// #332
   14aec:	d2802685 	mov	x5, #0x134                 	// #308
   14af0:	b9400040 	ldr	w0, [x2]
   14af4:	f2a22807 	movk	x7, #0x1140, lsl #16
   14af8:	f2a22805 	movk	x5, #0x1140, lsl #16
   14afc:	d2802003 	mov	x3, #0x100                 	// #256
   14b00:	32070000 	orr	w0, w0, #0x2000000
   14b04:	b9000040 	str	w0, [x2]
   14b08:	f2a22803 	movk	x3, #0x1140, lsl #16
   14b0c:	52a00026 	mov	w6, #0x10000               	// #65536
   14b10:	b9400082 	ldr	w2, [x4]
   14b14:	aa0303e1 	mov	x1, x3
   14b18:	52aa0400 	mov	w0, #0x50200000            	// #1344274432
   14b1c:	32080048 	orr	w8, w2, #0x1000000
   14b20:	b9000088 	str	w8, [x4]
   14b24:	b90000f7 	str	w23, [x7]
   14b28:	b90000a6 	str	w6, [x5]
   14b2c:	b9000060 	str	w0, [x3]
   14b30:	b9400020 	ldr	w0, [x1]
   14b34:	37e7ffe0 	tbnz	w0, #28, 14b30 <ddr_setup+0x6f8>
   14b38:	d2802900 	mov	x0, #0x148                 	// #328
   14b3c:	f2a22800 	movk	x0, #0x1140, lsl #16
   14b40:	b9400000 	ldr	w0, [x0]
   14b44:	6a2002ff 	bics	wzr, w23, w0
   14b48:	540038e1 	b.ne	15264 <ddr_setup+0xe2c>  // b.any
   14b4c:	d2802980 	mov	x0, #0x14c                 	// #332
   14b50:	f2a22800 	movk	x0, #0x1140, lsl #16
   14b54:	b9400000 	ldr	w0, [x0]
   14b58:	6a17001f 	tst	w0, w23
   14b5c:	54003841 	b.ne	15264 <ddr_setup+0xe2c>  // b.any
   14b60:	d2802300 	mov	x0, #0x118                 	// #280
   14b64:	f2a22800 	movk	x0, #0x1140, lsl #16
   14b68:	b9000002 	str	w2, [x0]
   14b6c:	35001f75 	cbnz	w21, 14f58 <ddr_setup+0xb20>
   14b70:	35001fd6 	cbnz	w22, 14f68 <ddr_setup+0xb30>
   14b74:	d2802484 	mov	x4, #0x124                 	// #292
   14b78:	d2801c03 	mov	x3, #0xe0                  	// #224
   14b7c:	f2a22804 	movk	x4, #0x1140, lsl #16
   14b80:	f2a22823 	movk	x3, #0x1141, lsl #16
   14b84:	d2801d81 	mov	x1, #0xec                  	// #236
   14b88:	52800225 	mov	w5, #0x11                  	// #17
   14b8c:	b9400082 	ldr	w2, [x4]
   14b90:	f2a22821 	movk	x1, #0x1141, lsl #16
   14b94:	32060042 	orr	w2, w2, #0x4000000
   14b98:	b9000082 	str	w2, [x4]
   14b9c:	b9400060 	ldr	w0, [x3]
   14ba0:	12196000 	and	w0, w0, #0xffffff80
   14ba4:	2a050000 	orr	w0, w0, w5
   14ba8:	b9000060 	str	w0, [x3]
   14bac:	d503201f 	nop
   14bb0:	b9400020 	ldr	w0, [x1]
   14bb4:	d3587800 	ubfx	x0, x0, #24, #7
   14bb8:	7101201f 	cmp	w0, #0x48
   14bbc:	54ffffa1 	b.ne	14bb0 <ddr_setup+0x778>  // b.any
   14bc0:	d2802580 	mov	x0, #0x12c                 	// #300
   14bc4:	d2803481 	mov	x1, #0x1a4                 	// #420
   14bc8:	f2a22800 	movk	x0, #0x1140, lsl #16
   14bcc:	f2a22801 	movk	x1, #0x1140, lsl #16
   14bd0:	531d726d 	lsl	w13, w19, #3
   14bd4:	d280268f 	mov	x15, #0x134                 	// #308
   14bd8:	b900001f 	str	wzr, [x0]
   14bdc:	d2803407 	mov	x7, #0x1a0                 	// #416
   14be0:	aa0003e6 	mov	x6, x0
   14be4:	4b1301ad 	sub	w13, w13, w19
   14be8:	b9400028 	ldr	w8, [x1]
   14bec:	910183ec 	add	x12, sp, #0x60
   14bf0:	9101a3eb 	add	x11, sp, #0x68
   14bf4:	52800005 	mov	w5, #0x0                   	// #0
   14bf8:	12001908 	and	w8, w8, #0x7f
   14bfc:	5280000a 	mov	w10, #0x0                   	// #0
   14c00:	2a0803e9 	mov	w9, w8
   14c04:	52801003 	mov	w3, #0x80                  	// #128
   14c08:	f2a2280f 	movk	x15, #0x1140, lsl #16
   14c0c:	5281200e 	mov	w14, #0x900                 	// #2304
   14c10:	f2a22807 	movk	x7, #0x1140, lsl #16
   14c14:	b90000ca 	str	w10, [x6]
   14c18:	2a0e00a4 	orr	w4, w5, w14
   14c1c:	52800002 	mov	w2, #0x0                   	// #0
   14c20:	b94001e1 	ldr	w1, [x15]
   14c24:	12001420 	and	w0, w1, #0x3f
   14c28:	79000180 	strh	w0, [x12]
   14c2c:	b90000c4 	str	w4, [x6]
   14c30:	6b09001f 	cmp	w0, w9
   14c34:	1a893000 	csel	w0, w0, w9, cc  // cc = lo, ul, last
   14c38:	b94000e4 	ldr	w4, [x7]
   14c3c:	12003c09 	and	w9, w0, #0xffff
   14c40:	12001484 	and	w4, w4, #0x3f
   14c44:	79000164 	strh	w4, [x11]
   14c48:	6b03009f 	cmp	w4, w3
   14c4c:	1a833080 	csel	w0, w4, w3, cc  // cc = lo, ul, last
   14c50:	12003c03 	and	w3, w0, #0xffff
   14c54:	d503201f 	nop
   14c58:	2a050040 	orr	w0, w2, w5
   14c5c:	b90000c0 	str	w0, [x6]
   14c60:	11040042 	add	w2, w2, #0x100
   14c64:	b94000e0 	ldr	w0, [x7]
   14c68:	12001401 	and	w1, w0, #0x3f
   14c6c:	f27a001f 	tst	x0, #0x40
   14c70:	0b040020 	add	w0, w1, w4
   14c74:	4b010081 	sub	w1, w4, w1
   14c78:	1a800020 	csel	w0, w1, w0, eq  // eq = none
   14c7c:	6b00007f 	cmp	w3, w0
   14c80:	1a809060 	csel	w0, w3, w0, ls  // ls = plast
   14c84:	7124005f 	cmp	w2, #0x900
   14c88:	12003c03 	and	w3, w0, #0xffff
   14c8c:	54fffe61 	b.ne	14c58 <ddr_setup+0x820>  // b.any
   14c90:	11001ca5 	add	w5, w5, #0x7
   14c94:	1100194a 	add	w10, w10, #0x6
   14c98:	6b0501bf 	cmp	w13, w5
   14c9c:	9100098c 	add	x12, x12, #0x2
   14ca0:	9100096b 	add	x11, x11, #0x2
   14ca4:	54fffb81 	b.ne	14c14 <ddr_setup+0x7dc>  // b.any
   14ca8:	d2802586 	mov	x6, #0x12c                 	// #300
   14cac:	d2803484 	mov	x4, #0x1a4                 	// #420
   14cb0:	f2a22806 	movk	x6, #0x1140, lsl #16
   14cb4:	4b090101 	sub	w1, w8, w9
   14cb8:	f2a22804 	movk	x4, #0x1140, lsl #16
   14cbc:	d2802500 	mov	x0, #0x128                 	// #296
   14cc0:	12001821 	and	w1, w1, #0x7f
   14cc4:	f2a22800 	movk	x0, #0x1140, lsl #16
   14cc8:	b90000df 	str	wzr, [x6]
   14ccc:	32190025 	orr	w5, w1, #0x80
   14cd0:	d280248a 	mov	x10, #0x124                 	// #292
   14cd4:	b9000085 	str	w5, [x4]
   14cd8:	f2a2280a 	movk	x10, #0x1140, lsl #16
   14cdc:	32170024 	orr	w4, w1, #0x200
   14ce0:	b9000004 	str	w4, [x0]
   14ce4:	d2802688 	mov	x8, #0x134                 	// #308
   14ce8:	7940c3e4 	ldrh	w4, [sp, #96]
   14cec:	f2a22808 	movk	x8, #0x1140, lsl #16
   14cf0:	b9400145 	ldr	w5, [x10]
   14cf4:	d2803407 	mov	x7, #0x1a0                 	// #416
   14cf8:	7940d3e0 	ldrh	w0, [sp, #104]
   14cfc:	4b090084 	sub	w4, w4, w9
   14d00:	121960a5 	and	w5, w5, #0xffffff80
   14d04:	12001484 	and	w4, w4, #0x3f
   14d08:	2a0100a1 	orr	w1, w5, w1
   14d0c:	b9000141 	str	w1, [x10]
   14d10:	b90000df 	str	wzr, [x6]
   14d14:	f2a22807 	movk	x7, #0x1140, lsl #16
   14d18:	4b030000 	sub	w0, w0, w3
   14d1c:	71000a7f 	cmp	w19, #0x2
   14d20:	b9400101 	ldr	w1, [x8]
   14d24:	12001400 	and	w0, w0, #0x3f
   14d28:	121a6421 	and	w1, w1, #0xffffffc0
   14d2c:	2a040021 	orr	w1, w1, w4
   14d30:	b9000101 	str	w1, [x8]
   14d34:	b90000c2 	str	w2, [x6]
   14d38:	b94000e1 	ldr	w1, [x7]
   14d3c:	12196021 	and	w1, w1, #0xffffff80
   14d40:	2a010000 	orr	w0, w0, w1
   14d44:	b90000e0 	str	w0, [x7]
   14d48:	54000261 	b.ne	14d94 <ddr_setup+0x95c>  // b.any
   14d4c:	7940c7e0 	ldrh	w0, [sp, #98]
   14d50:	528000c1 	mov	w1, #0x6                   	// #6
   14d54:	528120e2 	mov	w2, #0x907                 	// #2311
   14d58:	4b090009 	sub	w9, w0, w9
   14d5c:	7940d7e0 	ldrh	w0, [sp, #106]
   14d60:	b90000c1 	str	w1, [x6]
   14d64:	12001529 	and	w9, w9, #0x3f
   14d68:	4b030000 	sub	w0, w0, w3
   14d6c:	b9400101 	ldr	w1, [x8]
   14d70:	12001400 	and	w0, w0, #0x3f
   14d74:	121a6421 	and	w1, w1, #0xffffffc0
   14d78:	2a090021 	orr	w1, w1, w9
   14d7c:	b9000101 	str	w1, [x8]
   14d80:	b90000c2 	str	w2, [x6]
   14d84:	b94000e1 	ldr	w1, [x7]
   14d88:	12196021 	and	w1, w1, #0xffffff80
   14d8c:	2a010000 	orr	w0, w0, w1
   14d90:	b90000e0 	str	w0, [x7]
   14d94:	d2801c02 	mov	x2, #0xe0                  	// #224
   14d98:	d2801d81 	mov	x1, #0xec                  	// #236
   14d9c:	f2a22822 	movk	x2, #0x1141, lsl #16
   14da0:	f2a22821 	movk	x1, #0x1141, lsl #16
   14da4:	b9400040 	ldr	w0, [x2]
   14da8:	12196000 	and	w0, w0, #0xffffff80
   14dac:	321f0000 	orr	w0, w0, #0x2
   14db0:	b9000040 	str	w0, [x2]
   14db4:	d503201f 	nop
   14db8:	b9400020 	ldr	w0, [x1]
   14dbc:	d3587800 	ubfx	x0, x0, #24, #7
   14dc0:	7101001f 	cmp	w0, #0x40
   14dc4:	54ffffa1 	b.ne	14db8 <ddr_setup+0x980>  // b.any
   14dc8:	d2802482 	mov	x2, #0x124                 	// #292
   14dcc:	d2802c01 	mov	x1, #0x160                 	// #352
   14dd0:	f2a22802 	movk	x2, #0x1140, lsl #16
   14dd4:	f2a22801 	movk	x1, #0x1140, lsl #16
   14dd8:	b9400040 	ldr	w0, [x2]
   14ddc:	12057800 	and	w0, w0, #0xfbffffff
   14de0:	b9000040 	str	w0, [x2]
   14de4:	d503201f 	nop
   14de8:	b9400020 	ldr	w0, [x1]
   14dec:	12000400 	and	w0, w0, #0x3
   14df0:	6b17001f 	cmp	w0, w23
   14df4:	54ffffa1 	b.ne	14de8 <ddr_setup+0x9b0>  // b.any
   14df8:	35001a94 	cbnz	w20, 15148 <ddr_setup+0xd10>
   14dfc:	d280ce80 	mov	x0, #0x674                 	// #1652
   14e00:	d2803809 	mov	x9, #0x1c0                 	// #448
   14e04:	f2a22820 	movk	x0, #0x1141, lsl #16
   14e08:	f2a22809 	movk	x9, #0x1140, lsl #16
   14e0c:	d2820001 	mov	x1, #0x1000                	// #4096
   14e10:	d2803588 	mov	x8, #0x1ac                 	// #428
   14e14:	b9400000 	ldr	w0, [x0]
   14e18:	f2ba94a1 	movk	x1, #0xd4a5, lsl #16
   14e1c:	b9400124 	ldr	w4, [x9]
   14e20:	f2c01d01 	movk	x1, #0xe8, lsl #32
   14e24:	12003c05 	and	w5, w0, #0xffff
   14e28:	f2a22808 	movk	x8, #0x1140, lsl #16
   14e2c:	d3575c06 	ubfx	x6, x0, #23, #1
   14e30:	121f7884 	and	w4, w4, #0xfffffffe
   14e34:	d3773ca3 	ubfiz	x3, x5, #9, #16
   14e38:	2a060084 	orr	w4, w4, w6
   14e3c:	a94153f3 	ldp	x19, x20, [sp, #16]
   14e40:	710000df 	cmp	w6, #0x0
   14e44:	9ac30823 	udiv	x3, x1, x3
   14e48:	d3565806 	ubfx	x6, x0, #22, #1
   14e4c:	a9425bf5 	ldp	x21, x22, [sp, #32]
   14e50:	d280338a 	mov	x10, #0x19c                 	// #412
   14e54:	a94363f7 	ldp	x23, x24, [sp, #48]
   14e58:	53157c00 	lsr	w0, w0, #21
   14e5c:	f94023f9 	ldr	x25, [sp, #64]
   14e60:	b9000124 	str	w4, [x9]
   14e64:	b2405fe7 	mov	x7, #0xffffff              	// #16777215
   14e68:	1a9f00c6 	csel	w6, w6, wzr, eq  // eq = none
   14e6c:	b9400104 	ldr	w4, [x8]
   14e70:	eb07007f 	cmp	x3, x7
   14e74:	f2a2280a 	movk	x10, #0x1140, lsl #16
   14e78:	9a87d063 	csel	x3, x3, x7, le
   14e7c:	121f7884 	and	w4, w4, #0xfffffffe
   14e80:	d3783ca5 	ubfiz	x5, x5, #8, #16
   14e84:	2a060084 	orr	w4, w4, w6
   14e88:	d2802482 	mov	x2, #0x124                 	// #292
   14e8c:	53080000 	ubfiz	w0, w0, #24, #1
   14e90:	b9000104 	str	w4, [x8]
   14e94:	f2a22802 	movk	x2, #0x1140, lsl #16
   14e98:	2a030000 	orr	w0, w0, w3
   14e9c:	b9000140 	str	w0, [x10]
   14ea0:	b24047e6 	mov	x6, #0x3ffff               	// #262143
   14ea4:	9ac50820 	udiv	x0, x1, x5
   14ea8:	d2802187 	mov	x7, #0x10c                 	// #268
   14eac:	b9400041 	ldr	w1, [x2]
   14eb0:	f2a22807 	movk	x7, #0x1140, lsl #16
   14eb4:	d280c705 	mov	x5, #0x638                 	// #1592
   14eb8:	d280c384 	mov	x4, #0x61c                 	// #1564
   14ebc:	32060021 	orr	w1, w1, #0x4000000
   14ec0:	b9000041 	str	w1, [x2]
   14ec4:	eb06001f 	cmp	x0, x6
   14ec8:	f2a22825 	movk	x5, #0x1141, lsl #16
   14ecc:	b9400041 	ldr	w1, [x2]
   14ed0:	9a86d000 	csel	x0, x0, x6, le
   14ed4:	f2a22824 	movk	x4, #0x1141, lsl #16
   14ed8:	d2801e03 	mov	x3, #0xf0                  	// #240
   14edc:	12063421 	and	w1, w1, #0xfc0000ff
   14ee0:	f2a22823 	movk	x3, #0x1141, lsl #16
   14ee4:	2a002020 	orr	w0, w1, w0, lsl #8
   14ee8:	b9000040 	str	w0, [x2]
   14eec:	b9400040 	ldr	w0, [x2]
   14ef0:	12057800 	and	w0, w0, #0xfbffffff
   14ef4:	b9000040 	str	w0, [x2]
   14ef8:	b94000e0 	ldr	w0, [x7]
   14efc:	b94000a2 	ldr	w2, [x5]
   14f00:	b9400081 	ldr	w1, [x4]
   14f04:	d3441c00 	ubfx	x0, x0, #4, #4
   14f08:	11000c00 	add	w0, w0, #0x3
   14f0c:	d3587842 	ubfx	x2, x2, #24, #7
   14f10:	7100045f 	cmp	w2, #0x1
   14f14:	12196021 	and	w1, w1, #0xffffff80
   14f18:	531f7800 	lsl	w0, w0, #1
   14f1c:	11000802 	add	w2, w0, #0x2
   14f20:	1a821000 	csel	w0, w0, w2, ne  // ne = any
   14f24:	2a000020 	orr	w0, w1, w0
   14f28:	b9000080 	str	w0, [x4]
   14f2c:	39417fe0 	ldrb	w0, [sp, #95]
   14f30:	b9400061 	ldr	w1, [x3]
   14f34:	12000c00 	and	w0, w0, #0xf
   14f38:	121c6c21 	and	w1, w1, #0xfffffff0
   14f3c:	2a010000 	orr	w0, w0, w1
   14f40:	b9000060 	str	w0, [x3]
   14f44:	a8c77bfd 	ldp	x29, x30, [sp], #112
   14f48:	d65f03c0 	ret
   14f4c:	52800077 	mov	w23, #0x3                   	// #3
   14f50:	52800053 	mov	w19, #0x2                   	// #2
   14f54:	17fffd4a 	b	1447c <ddr_setup+0x44>
   14f58:	2a1303e1 	mov	w1, w19
   14f5c:	2a1703e0 	mov	w0, w23
   14f60:	97fffbaa 	bl	13e08 <exec_trainingVREF>
   14f64:	34ffe096 	cbz	w22, 14b74 <ddr_setup+0x73c>
   14f68:	d2803700 	mov	x0, #0x1b8                 	// #440
   14f6c:	d2802081 	mov	x1, #0x104                 	// #260
   14f70:	f2a22800 	movk	x0, #0x1140, lsl #16
   14f74:	f2a22801 	movk	x1, #0x1140, lsl #16
   14f78:	d2802103 	mov	x3, #0x108                 	// #264
   14f7c:	32089fe2 	mov	w2, #0xff00ff00            	// #-16711936
   14f80:	f2a22803 	movk	x3, #0x1140, lsl #16
   14f84:	b900001f 	str	wzr, [x0]
   14f88:	d2802000 	mov	x0, #0x100                 	// #256
   14f8c:	b9000022 	str	w2, [x1]
   14f90:	f2a22800 	movk	x0, #0x1140, lsl #16
   14f94:	aa0003e1 	mov	x1, x0
   14f98:	b9000062 	str	w2, [x3]
   14f9c:	52a61402 	mov	w2, #0x30a00000            	// #815792128
   14fa0:	b9000002 	str	w2, [x0]
   14fa4:	d503201f 	nop
   14fa8:	b9400020 	ldr	w0, [x1]
   14fac:	37e7ffe0 	tbnz	w0, #28, 14fa8 <ddr_setup+0xb70>
   14fb0:	d2803580 	mov	x0, #0x1ac                 	// #428
   14fb4:	f2a22800 	movk	x0, #0x1140, lsl #16
   14fb8:	b9400000 	ldr	w0, [x0]
   14fbc:	6a403aff 	tst	w23, w0, lsr #14
   14fc0:	54001521 	b.ne	15264 <ddr_setup+0xe2c>  // b.any
   14fc4:	d2803283 	mov	x3, #0x194                 	// #404
   14fc8:	d2802002 	mov	x2, #0x100                 	// #256
   14fcc:	f2a22803 	movk	x3, #0x1140, lsl #16
   14fd0:	52a60e04 	mov	w4, #0x30700000            	// #812646400
   14fd4:	f2a22802 	movk	x2, #0x1140, lsl #16
   14fd8:	b9400060 	ldr	w0, [x3]
   14fdc:	32190000 	orr	w0, w0, #0x80
   14fe0:	b9000060 	str	w0, [x3]
   14fe4:	b9000024 	str	w4, [x1]
   14fe8:	b9400040 	ldr	w0, [x2]
   14fec:	37e7ffe0 	tbnz	w0, #28, 14fe8 <ddr_setup+0xbb0>
   14ff0:	d2803800 	mov	x0, #0x1c0                 	// #448
   14ff4:	f2a22800 	movk	x0, #0x1140, lsl #16
   14ff8:	b9400000 	ldr	w0, [x0]
   14ffc:	6a4052ff 	tst	w23, w0, lsr #20
   15000:	54001321 	b.ne	15264 <ddr_setup+0xe2c>  // b.any
   15004:	d2803283 	mov	x3, #0x194                 	// #404
   15008:	d2803105 	mov	x5, #0x188                 	// #392
   1500c:	f2a22803 	movk	x3, #0x1140, lsl #16
   15010:	f2a22805 	movk	x5, #0x1140, lsl #16
   15014:	52a00106 	mov	w6, #0x80000               	// #524288
   15018:	d2802001 	mov	x1, #0x100                 	// #256
   1501c:	b9400060 	ldr	w0, [x3]
   15020:	52a22404 	mov	w4, #0x11200000            	// #287309824
   15024:	f2a22801 	movk	x1, #0x1140, lsl #16
   15028:	12187800 	and	w0, w0, #0xffffff7f
   1502c:	b9000060 	str	w0, [x3]
   15030:	b90000a6 	str	w6, [x5]
   15034:	b9000044 	str	w4, [x2]
   15038:	b9400020 	ldr	w0, [x1]
   1503c:	37e7ffe0 	tbnz	w0, #28, 15038 <ddr_setup+0xc00>
   15040:	d2803103 	mov	x3, #0x188                 	// #392
   15044:	d2802002 	mov	x2, #0x100                 	// #256
   15048:	f2a22803 	movk	x3, #0x1140, lsl #16
   1504c:	52a61400 	mov	w0, #0x30a00000            	// #815792128
   15050:	f2a22802 	movk	x2, #0x1140, lsl #16
   15054:	b900007f 	str	wzr, [x3]
   15058:	b9000020 	str	w0, [x1]
   1505c:	d503201f 	nop
   15060:	b9400040 	ldr	w0, [x2]
   15064:	37e7ffe0 	tbnz	w0, #28, 15060 <ddr_setup+0xc28>
   15068:	17fffec3 	b	14b74 <ddr_setup+0x73c>
   1506c:	d2804019 	mov	x25, #0x200                 	// #512
   15070:	d2800b12 	mov	x18, #0x58                  	// #88
   15074:	f2a22819 	movk	x25, #0x1140, lsl #16
   15078:	f2a22812 	movk	x18, #0x1140, lsl #16
   1507c:	52a0023e 	mov	w30, #0x110000              	// #1114112
   15080:	b900033e 	str	w30, [x25]
   15084:	528000d9 	mov	w25, #0x6                   	// #6
   15088:	b9000259 	str	w25, [x18]
   1508c:	17fffd53 	b	145d8 <ddr_setup+0x1a0>
   15090:	1100a0c6 	add	w6, w6, #0x28
   15094:	1100a252 	add	w18, w18, #0x28
   15098:	0b060000 	add	w0, w0, w6
   1509c:	7100145f 	cmp	w2, #0x5
   150a0:	12001e46 	and	w6, w18, #0xff
   150a4:	12001c00 	and	w0, w0, #0xff
   150a8:	54000b80 	b.eq	15218 <ddr_setup+0xde0>  // b.none
   150ac:	d2804019 	mov	x25, #0x200                 	// #512
   150b0:	d2800b12 	mov	x18, #0x58                  	// #88
   150b4:	f2a22819 	movk	x25, #0x1140, lsl #16
   150b8:	f2a22812 	movk	x18, #0x1140, lsl #16
   150bc:	52a0021e 	mov	w30, #0x100000              	// #1048576
   150c0:	b900033e 	str	w30, [x25]
   150c4:	528000d9 	mov	w25, #0x6                   	// #6
   150c8:	b9000259 	str	w25, [x18]
   150cc:	d2803892 	mov	x18, #0x1c4                 	// #452
   150d0:	d2803999 	mov	x25, #0x1cc                 	// #460
   150d4:	f2a22812 	movk	x18, #0x1140, lsl #16
   150d8:	f2a22819 	movk	x25, #0x1140, lsl #16
   150dc:	5280013e 	mov	w30, #0x9                   	// #9
   150e0:	b900025e 	str	w30, [x18]
   150e4:	d2802e92 	mov	x18, #0x174                 	// #372
   150e8:	f2a22812 	movk	x18, #0x1140, lsl #16
   150ec:	52a1001e 	mov	w30, #0x8000000             	// #134217728
   150f0:	b900033e 	str	w30, [x25]
   150f4:	52a02019 	mov	w25, #0x1000000             	// #16777216
   150f8:	b9000259 	str	w25, [x18]
   150fc:	52900012 	mov	w18, #0x8000                	// #32768
   15100:	17fffd3f 	b	145fc <ddr_setup+0x1c4>
   15104:	d3492c84 	ubfx	x4, x4, #9, #3
   15108:	7100049f 	cmp	w4, #0x1
   1510c:	54000a00 	b.eq	1524c <ddr_setup+0xe14>  // b.none
   15110:	34000964 	cbz	w4, 1523c <ddr_setup+0xe04>
   15114:	7100089f 	cmp	w4, #0x2
   15118:	54000740 	b.eq	15200 <ddr_setup+0xdc8>  // b.none
   1511c:	7100109f 	cmp	w4, #0x4
   15120:	54000a61 	b.ne	1526c <ddr_setup+0xe34>  // b.any
   15124:	529f0fe4 	mov	w4, #0xf87f                	// #63615
   15128:	0a0400c4 	and	w4, w6, w4
   1512c:	32170484 	orr	w4, w4, #0x600
   15130:	529e3fed 	mov	w13, #0xf1ff                	// #61951
   15134:	f90023f9 	str	x25, [sp, #64]
   15138:	17fffd06 	b	14550 <ddr_setup+0x118>
   1513c:	52824000 	mov	w0, #0x1200                	// #4608
   15140:	72a00080 	movk	w0, #0x4, lsl #16
   15144:	17fffdee 	b	148fc <ddr_setup+0x4c4>
   15148:	d2803702 	mov	x2, #0x1b8                 	// #440
   1514c:	d2802800 	mov	x0, #0x140                 	// #320
   15150:	f2a22802 	movk	x2, #0x1140, lsl #16
   15154:	f2a22800 	movk	x0, #0x1140, lsl #16
   15158:	52800023 	mov	w3, #0x1                   	// #1
   1515c:	d2802081 	mov	x1, #0x104                 	// #260
   15160:	b9000043 	str	w3, [x2]
   15164:	52800203 	mov	w3, #0x10                  	// #16
   15168:	f2a22801 	movk	x1, #0x1140, lsl #16
   1516c:	d2802102 	mov	x2, #0x108                 	// #264
   15170:	b9000003 	str	w3, [x0]
   15174:	5287bc03 	mov	w3, #0x3de0                	// #15840
   15178:	f2a22802 	movk	x2, #0x1140, lsl #16
   1517c:	72af1363 	movk	w3, #0x789b, lsl #16
   15180:	d2802000 	mov	x0, #0x100                 	// #256
   15184:	b9000023 	str	w3, [x1]
   15188:	f2a22800 	movk	x0, #0x1140, lsl #16
   1518c:	52894ac3 	mov	w3, #0x4a56                	// #19030
   15190:	72be21c3 	movk	w3, #0xf10e, lsl #16
   15194:	aa0003e1 	mov	x1, x0
   15198:	b9000043 	str	w3, [x2]
   1519c:	52a22402 	mov	w2, #0x11200000            	// #287309824
   151a0:	b9000002 	str	w2, [x0]
   151a4:	d503201f 	nop
   151a8:	b9400020 	ldr	w0, [x1]
   151ac:	37e7ffe0 	tbnz	w0, #28, 151a8 <ddr_setup+0xd70>
   151b0:	d2802002 	mov	x2, #0x100                 	// #256
   151b4:	52a22400 	mov	w0, #0x11200000            	// #287309824
   151b8:	f2a22802 	movk	x2, #0x1140, lsl #16
   151bc:	b9000020 	str	w0, [x1]
   151c0:	b9400040 	ldr	w0, [x2]
   151c4:	37e7ffe0 	tbnz	w0, #28, 151c0 <ddr_setup+0xd88>
   151c8:	d2802001 	mov	x1, #0x100                 	// #256
   151cc:	52a68400 	mov	w0, #0x34200000            	// #874512384
   151d0:	f2a22801 	movk	x1, #0x1140, lsl #16
   151d4:	b9000040 	str	w0, [x2]
   151d8:	b9400020 	ldr	w0, [x1]
   151dc:	37e7ffe0 	tbnz	w0, #28, 151d8 <ddr_setup+0xda0>
   151e0:	b9400020 	ldr	w0, [x1]
   151e4:	6a2002ff 	bics	wzr, w23, w0
   151e8:	540003e1 	b.ne	15264 <ddr_setup+0xe2c>  // b.any
   151ec:	d2803700 	mov	x0, #0x1b8                 	// #440
   151f0:	52800061 	mov	w1, #0x3                   	// #3
   151f4:	f2a22800 	movk	x0, #0x1140, lsl #16
   151f8:	b9000001 	str	w1, [x0]
   151fc:	17ffff00 	b	14dfc <ddr_setup+0x9c4>
   15200:	529f0fe4 	mov	w4, #0xf87f                	// #63615
   15204:	0a0400c4 	and	w4, w6, w4
   15208:	32160084 	orr	w4, w4, #0x400
   1520c:	529e3fed 	mov	w13, #0xf1ff                	// #61951
   15210:	f90023f9 	str	x25, [sp, #64]
   15214:	17fffccf 	b	14550 <ddr_setup+0x118>
   15218:	d2804019 	mov	x25, #0x200                 	// #512
   1521c:	d2800b12 	mov	x18, #0x58                  	// #88
   15220:	f2a22819 	movk	x25, #0x1140, lsl #16
   15224:	f2a22812 	movk	x18, #0x1140, lsl #16
   15228:	52a0023e 	mov	w30, #0x110000              	// #1114112
   1522c:	b900033e 	str	w30, [x25]
   15230:	528000d9 	mov	w25, #0x6                   	// #6
   15234:	b9000259 	str	w25, [x18]
   15238:	17ffffa5 	b	150cc <ddr_setup+0xc94>
   1523c:	2a0a03e4 	mov	w4, w10
   15240:	529e3fed 	mov	w13, #0xf1ff                	// #61951
   15244:	f90023f9 	str	x25, [sp, #64]
   15248:	17fffcc2 	b	14550 <ddr_setup+0x118>
   1524c:	529f0fe4 	mov	w4, #0xf87f                	// #63615
   15250:	0a0400c4 	and	w4, w6, w4
   15254:	32170084 	orr	w4, w4, #0x200
   15258:	529e3fed 	mov	w13, #0xf1ff                	// #61951
   1525c:	f90023f9 	str	x25, [sp, #64]
   15260:	17fffcbc 	b	14550 <ddr_setup+0x118>
   15264:	9400176b 	bl	1b010 <console_flush>
   15268:	97fff3ec 	bl	12218 <do_panic>
   1526c:	f90023f9 	str	x25, [sp, #64]
   15270:	94001768 	bl	1b010 <console_flush>
   15274:	97fff3e9 	bl	12218 <do_panic>

0000000000015278 <emmc_WaitCmd2Cmd_8Cycle>:
   15278:	d2801200 	mov	x0, #0x90                  	// #144
   1527c:	f2a23800 	movk	x0, #0x11c0, lsl #16
   15280:	b9400001 	ldr	w1, [x0]
   15284:	12001c21 	and	w1, w1, #0xff
   15288:	7100403f 	cmp	w1, #0x10
   1528c:	540003a0 	b.eq	15300 <emmc_WaitCmd2Cmd_8Cycle+0x88>  // b.none
   15290:	540001a9 	b.ls	152c4 <emmc_WaitCmd2Cmd_8Cycle+0x4c>  // b.plast
   15294:	7101003f 	cmp	w1, #0x40
   15298:	52800280 	mov	w0, #0x14                  	// #20
   1529c:	540000a0 	b.eq	152b0 <emmc_WaitCmd2Cmd_8Cycle+0x38>  // b.none
   152a0:	54000209 	b.ls	152e0 <emmc_WaitCmd2Cmd_8Cycle+0x68>  // b.plast
   152a4:	7102003f 	cmp	w1, #0x80
   152a8:	528003c0 	mov	w0, #0x1e                  	// #30
   152ac:	54000041 	b.ne	152b4 <emmc_WaitCmd2Cmd_8Cycle+0x3c>  // b.any
   152b0:	17fff61a 	b	12b18 <udelay>
   152b4:	7103fc3f 	cmp	w1, #0xff
   152b8:	52800140 	mov	w0, #0xa                   	// #10
   152bc:	1a9f0000 	csel	w0, w0, wzr, eq  // eq = none
   152c0:	17fff616 	b	12b18 <udelay>
   152c4:	7100103f 	cmp	w1, #0x4
   152c8:	540001c0 	b.eq	15300 <emmc_WaitCmd2Cmd_8Cycle+0x88>  // b.none
   152cc:	54000128 	b.hi	152f0 <emmc_WaitCmd2Cmd_8Cycle+0x78>  // b.pmore
   152d0:	7100083f 	cmp	w1, #0x2
   152d4:	52800140 	mov	w0, #0xa                   	// #10
   152d8:	1a8083e0 	csel	w0, wzr, w0, hi  // hi = pmore
   152dc:	17fff60f 	b	12b18 <udelay>
   152e0:	7100803f 	cmp	w1, #0x20
   152e4:	52800140 	mov	w0, #0xa                   	// #10
   152e8:	1a9f0000 	csel	w0, w0, wzr, eq  // eq = none
   152ec:	17fff60b 	b	12b18 <udelay>
   152f0:	7100203f 	cmp	w1, #0x8
   152f4:	52800140 	mov	w0, #0xa                   	// #10
   152f8:	1a9f0000 	csel	w0, w0, wzr, eq  // eq = none
   152fc:	17fff607 	b	12b18 <udelay>
   15300:	52800140 	mov	w0, #0xa                   	// #10
   15304:	17fff605 	b	12b18 <udelay>

0000000000015308 <emmc_softreset>:
   15308:	a9be7bfd 	stp	x29, x30, [sp, #-32]!
   1530c:	f0000040 	adrp	x0, 20000 <__STACKS_START__+0x700>
   15310:	9128c000 	add	x0, x0, #0xa30
   15314:	910003fd 	mov	x29, sp
   15318:	a90153f3 	stp	x19, x20, [sp, #16]
   1531c:	d2800f02 	mov	x2, #0x78                  	// #120
   15320:	f2a23802 	movk	x2, #0x11c0, lsl #16
   15324:	b9008c1f 	str	wzr, [x0, #140]
   15328:	52807d13 	mov	w19, #0x3e8                 	// #1000
   1532c:	b900901f 	str	wzr, [x0, #144]
   15330:	aa0203f4 	mov	x20, x2
   15334:	b900941f 	str	wzr, [x0, #148]
   15338:	5284e201 	mov	w1, #0x2710                	// #10000
   1533c:	b900a01f 	str	wzr, [x0, #160]
   15340:	b9009c1f 	str	wzr, [x0, #156]
   15344:	b900981f 	str	wzr, [x0, #152]
   15348:	b9400040 	ldr	w0, [x2]
   1534c:	367001a0 	tbz	w0, #14, 15380 <emmc_softreset+0x78>
   15350:	b9400282 	ldr	w2, [x20]
   15354:	52807d00 	mov	w0, #0x3e8                 	// #1000
   15358:	51000421 	sub	w1, w1, #0x1
   1535c:	36700122 	tbz	w2, #14, 15380 <emmc_softreset+0x78>
   15360:	7100027f 	cmp	w19, #0x0
   15364:	7a40c820 	ccmp	w1, #0x0, #0x0, gt
   15368:	540003c1 	b.ne	153e0 <emmc_softreset+0xd8>  // b.any
   1536c:	97fff5eb 	bl	12b18 <udelay>
   15370:	51000673 	sub	w19, w19, #0x1
   15374:	b9400280 	ldr	w0, [x20]
   15378:	5284e1e1 	mov	w1, #0x270f                	// #9999
   1537c:	3777fea0 	tbnz	w0, #14, 15350 <emmc_softreset+0x48>
   15380:	d2807000 	mov	x0, #0x380                 	// #896
   15384:	d2800e06 	mov	x6, #0x70                  	// #112
   15388:	f2a23800 	movk	x0, #0x11c0, lsl #16
   1538c:	f2a23806 	movk	x6, #0x11c0, lsl #16
   15390:	a94153f3 	ldp	x19, x20, [sp, #16]
   15394:	d2800f05 	mov	x5, #0x78                  	// #120
   15398:	b9400001 	ldr	w1, [x0]
   1539c:	f2a23805 	movk	x5, #0x11c0, lsl #16
   153a0:	d2801004 	mov	x4, #0x80                  	// #128
   153a4:	d2801103 	mov	x3, #0x88                  	// #136
   153a8:	121f7821 	and	w1, w1, #0xfffffffe
   153ac:	b9000001 	str	w1, [x0]
   153b0:	f2a23804 	movk	x4, #0x11c0, lsl #16
   153b4:	52810002 	mov	w2, #0x800                 	// #2048
   153b8:	b9400001 	ldr	w1, [x0]
   153bc:	f2a23803 	movk	x3, #0x11c0, lsl #16
   153c0:	32000021 	orr	w1, w1, #0x1
   153c4:	b9000001 	str	w1, [x0]
   153c8:	b90000df 	str	wzr, [x6]
   153cc:	b90000a2 	str	w2, [x5]
   153d0:	b900009f 	str	wzr, [x4]
   153d4:	b9000062 	str	w2, [x3]
   153d8:	a8c27bfd 	ldp	x29, x30, [sp], #32
   153dc:	d65f03c0 	ret
   153e0:	35fffb81 	cbnz	w1, 15350 <emmc_softreset+0x48>
   153e4:	17ffffe7 	b	15380 <emmc_softreset+0x78>

00000000000153e8 <emmc_exec_cmd>:
   153e8:	a9b97bfd 	stp	x29, x30, [sp, #-112]!
   153ec:	910003fd 	mov	x29, sp
   153f0:	a90153f3 	stp	x19, x20, [sp, #16]
   153f4:	b9006be0 	str	w0, [sp, #104]
   153f8:	b4003841 	cbz	x1, 15b00 <emmc_exec_cmd+0x718>
   153fc:	f0000042 	adrp	x2, 20000 <__STACKS_START__+0x700>
   15400:	a90573fb 	stp	x27, x28, [sp, #80]
   15404:	9128c05c 	add	x28, x2, #0xa30
   15408:	b9406f93 	ldr	w19, [x28, #108]
   1540c:	7100067f 	cmp	w19, #0x1
   15410:	540032a1 	b.ne	15a64 <emmc_exec_cmd+0x67c>  // b.any
   15414:	b940a380 	ldr	w0, [x28, #160]
   15418:	7100041f 	cmp	w0, #0x1
   1541c:	54003360 	b.eq	15a88 <emmc_exec_cmd+0x6a0>  // b.none
   15420:	b9401f94 	ldr	w20, [x28, #28]
   15424:	d2800e1b 	mov	x27, #0x70                  	// #112
   15428:	a9025bf5 	stp	x21, x22, [sp, #32]
   1542c:	d2801116 	mov	x22, #0x88                  	// #136
   15430:	aa0103f5 	mov	x21, x1
   15434:	a90363f7 	stp	x23, x24, [sp, #48]
   15438:	d2801017 	mov	x23, #0x80                  	// #128
   1543c:	52800018 	mov	w24, #0x0                   	// #0
   15440:	a9046bf9 	stp	x25, x26, [sp, #64]
   15444:	12180e99 	and	w25, w20, #0xf00
   15448:	12140a94 	and	w20, w20, #0x7000
   1544c:	5280001a 	mov	w26, #0x0                   	// #0
   15450:	f2a23817 	movk	x23, #0x11c0, lsl #16
   15454:	f2a23816 	movk	x22, #0x11c0, lsl #16
   15458:	f2a2381b 	movk	x27, #0x11c0, lsl #16
   1545c:	b9409f80 	ldr	w0, [x28, #156]
   15460:	7100041f 	cmp	w0, #0x1
   15464:	54002280 	b.eq	158b4 <emmc_exec_cmd+0x4cc>  // b.none
   15468:	94000334 	bl	16138 <emmc_interrupt>
   1546c:	b940a380 	ldr	w0, [x28, #160]
   15470:	7100041f 	cmp	w0, #0x1
   15474:	54ffff40 	b.eq	1545c <emmc_exec_cmd+0x74>  // b.none
   15478:	7100175f 	cmp	w26, #0x5
   1547c:	540013c0 	b.eq	156f4 <emmc_exec_cmd+0x30c>  // b.none
   15480:	54000688 	b.hi	15550 <emmc_exec_cmd+0x168>  // b.pmore
   15484:	71000b5f 	cmp	w26, #0x2
   15488:	540002c0 	b.eq	154e0 <emmc_exec_cmd+0xf8>  // b.none
   1548c:	54001128 	b.hi	156b0 <emmc_exec_cmd+0x2c8>  // b.pmore
   15490:	7100075f 	cmp	w26, #0x1
   15494:	54001681 	b.ne	15764 <emmc_exec_cmd+0x37c>  // b.any
   15498:	d2800203 	mov	x3, #0x10                  	// #16
   1549c:	b9402384 	ldr	w4, [x28, #32]
   154a0:	f2a23803 	movk	x3, #0x11c0, lsl #16
   154a4:	d2a23801 	mov	x1, #0x11c00000            	// #297795584
   154a8:	52800020 	mov	w0, #0x1                   	// #1
   154ac:	b9000064 	str	w4, [x3]
   154b0:	b9402b83 	ldr	w3, [x28, #40]
   154b4:	b9000023 	str	w3, [x1]
   154b8:	b9008f80 	str	w0, [x28, #140]
   154bc:	b900a380 	str	w0, [x28, #160]
   154c0:	35001a59 	cbnz	w25, 15808 <emmc_exec_cmd+0x420>
   154c4:	b9409f80 	ldr	w0, [x28, #156]
   154c8:	7100041f 	cmp	w0, #0x1
   154cc:	54001f40 	b.eq	158b4 <emmc_exec_cmd+0x4cc>  // b.none
   154d0:	9400031a 	bl	16138 <emmc_interrupt>
   154d4:	b940a380 	ldr	w0, [x28, #160]
   154d8:	7100041f 	cmp	w0, #0x1
   154dc:	540037e0 	b.eq	15bd8 <emmc_exec_cmd+0x7f0>  // b.none
   154e0:	b90002ff 	str	wzr, [x23]
   154e4:	52810000 	mov	w0, #0x800                 	// #2048
   154e8:	b90002c0 	str	w0, [x22]
   154ec:	52900fe0 	mov	w0, #0x807f                	// #32895
   154f0:	b940c381 	ldr	w1, [x28, #192]
   154f4:	6a00003f 	tst	w1, w0
   154f8:	54001c01 	b.ne	15878 <emmc_exec_cmd+0x490>  // b.any
   154fc:	b940bf80 	ldr	w0, [x28, #188]
   15500:	37001d60 	tbnz	w0, #0, 158ac <emmc_exec_cmd+0x4c4>
   15504:	b9409f80 	ldr	w0, [x28, #156]
   15508:	7100041f 	cmp	w0, #0x1
   1550c:	54001d40 	b.eq	158b4 <emmc_exec_cmd+0x4cc>  // b.none
   15510:	9400030a 	bl	16138 <emmc_interrupt>
   15514:	b940a380 	ldr	w0, [x28, #160]
   15518:	7100041f 	cmp	w0, #0x1
   1551c:	540037e0 	b.eq	15c18 <emmc_exec_cmd+0x830>  // b.none
   15520:	52800153 	mov	w19, #0xa                   	// #10
   15524:	7100071f 	cmp	w24, #0x1
   15528:	54001521 	b.ne	157cc <emmc_exec_cmd+0x3e4>  // b.any
   1552c:	b9008f9f 	str	wzr, [x28, #140]
   15530:	a9425bf5 	ldp	x21, x22, [sp, #32]
   15534:	a94363f7 	ldp	x23, x24, [sp, #48]
   15538:	a9446bf9 	ldp	x25, x26, [sp, #64]
   1553c:	a94573fb 	ldp	x27, x28, [sp, #80]
   15540:	2a1303e0 	mov	w0, w19
   15544:	a94153f3 	ldp	x19, x20, [sp, #16]
   15548:	a8c77bfd 	ldp	x29, x30, [sp], #112
   1554c:	d65f03c0 	ret
   15550:	7100235f 	cmp	w26, #0x8
   15554:	540005a0 	b.eq	15608 <emmc_exec_cmd+0x220>  // b.none
   15558:	540011e8 	b.hi	15794 <emmc_exec_cmd+0x3ac>  // b.pmore
   1555c:	71001b5f 	cmp	w26, #0x6
   15560:	54000fe1 	b.ne	1575c <emmc_exec_cmd+0x374>  // b.any
   15564:	b9408383 	ldr	w3, [x28, #128]
   15568:	52800020 	mov	w0, #0x1                   	// #1
   1556c:	b9009380 	str	w0, [x28, #144]
   15570:	b900a380 	str	w0, [x28, #160]
   15574:	b9402781 	ldr	w1, [x28, #36]
   15578:	34002363 	cbz	w3, 159e4 <emmc_exec_cmd+0x5fc>
   1557c:	7100043f 	cmp	w1, #0x1
   15580:	54002a20 	b.eq	15ac4 <emmc_exec_cmd+0x6dc>  // b.none
   15584:	52912fe0 	mov	w0, #0x897f                	// #35199
   15588:	b90002c0 	str	w0, [x22]
   1558c:	b9409f80 	ldr	w0, [x28, #156]
   15590:	7100041f 	cmp	w0, #0x1
   15594:	54001900 	b.eq	158b4 <emmc_exec_cmd+0x4cc>  // b.none
   15598:	940002e8 	bl	16138 <emmc_interrupt>
   1559c:	b940a380 	ldr	w0, [x28, #160]
   155a0:	7100041f 	cmp	w0, #0x1
   155a4:	54002da0 	b.eq	15b58 <emmc_exec_cmd+0x770>  // b.none
   155a8:	b940c381 	ldr	w1, [x28, #192]
   155ac:	52900fe0 	mov	w0, #0x807f                	// #32895
   155b0:	6a00003f 	tst	w1, w0
   155b4:	54001fe1 	b.ne	159b0 <emmc_exec_cmd+0x5c8>  // b.any
   155b8:	b9409b80 	ldr	w0, [x28, #152]
   155bc:	7100041f 	cmp	w0, #0x1
   155c0:	540028e0 	b.eq	15adc <emmc_exec_cmd+0x6f4>  // b.none
   155c4:	b9409780 	ldr	w0, [x28, #148]
   155c8:	7100041f 	cmp	w0, #0x1
   155cc:	54004120 	b.eq	15df0 <emmc_exec_cmd+0xa08>  // b.none
   155d0:	52800080 	mov	w0, #0x4                   	// #4
   155d4:	b90002e0 	str	w0, [x23]
   155d8:	52910fe0 	mov	w0, #0x887f                	// #34943
   155dc:	b90002c0 	str	w0, [x22]
   155e0:	52800020 	mov	w0, #0x1                   	// #1
   155e4:	b900a380 	str	w0, [x28, #160]
   155e8:	b9409f80 	ldr	w0, [x28, #156]
   155ec:	7100041f 	cmp	w0, #0x1
   155f0:	54001620 	b.eq	158b4 <emmc_exec_cmd+0x4cc>  // b.none
   155f4:	940002d1 	bl	16138 <emmc_interrupt>
   155f8:	b940a380 	ldr	w0, [x28, #160]
   155fc:	7100041f 	cmp	w0, #0x1
   15600:	540038c0 	b.eq	15d18 <emmc_exec_cmd+0x930>  // b.none
   15604:	d503201f 	nop
   15608:	b9408380 	ldr	w0, [x28, #128]
   1560c:	35000120 	cbnz	w0, 15630 <emmc_exec_cmd+0x248>
   15610:	d2806c02 	mov	x2, #0x360                 	// #864
   15614:	d2800400 	mov	x0, #0x20                  	// #32
   15618:	f2a23802 	movk	x2, #0x11c0, lsl #16
   1561c:	f2a23800 	movk	x0, #0x11c0, lsl #16
   15620:	52820201 	mov	w1, #0x1010                	// #4112
   15624:	b9000041 	str	w1, [x2]
   15628:	b900001f 	str	wzr, [x0]
   1562c:	b900979f 	str	wzr, [x28, #148]
   15630:	d2800f01 	mov	x1, #0x78                  	// #120
   15634:	b90002ff 	str	wzr, [x23]
   15638:	52810000 	mov	w0, #0x800                 	// #2048
   1563c:	f2a23801 	movk	x1, #0x11c0, lsl #16
   15640:	b90002c0 	str	w0, [x22]
   15644:	b900037f 	str	wzr, [x27]
   15648:	b9000020 	str	w0, [x1]
   1564c:	b940bf80 	ldr	w0, [x28, #188]
   15650:	371012e0 	tbnz	w0, #2, 158ac <emmc_exec_cmd+0x4c4>
   15654:	b9409f80 	ldr	w0, [x28, #156]
   15658:	7100041f 	cmp	w0, #0x1
   1565c:	540012c0 	b.eq	158b4 <emmc_exec_cmd+0x4cc>  // b.none
   15660:	940002b6 	bl	16138 <emmc_interrupt>
   15664:	b940a380 	ldr	w0, [x28, #160]
   15668:	7100041f 	cmp	w0, #0x1
   1566c:	54fff5c1 	b.ne	15524 <emmc_exec_cmd+0x13c>  // b.any
   15670:	b9409f80 	ldr	w0, [x28, #156]
   15674:	7100041f 	cmp	w0, #0x1
   15678:	540011e0 	b.eq	158b4 <emmc_exec_cmd+0x4cc>  // b.none
   1567c:	940002af 	bl	16138 <emmc_interrupt>
   15680:	b940a380 	ldr	w0, [x28, #160]
   15684:	7100041f 	cmp	w0, #0x1
   15688:	54fff4e1 	b.ne	15524 <emmc_exec_cmd+0x13c>  // b.any
   1568c:	b9409f80 	ldr	w0, [x28, #156]
   15690:	7100041f 	cmp	w0, #0x1
   15694:	54001100 	b.eq	158b4 <emmc_exec_cmd+0x4cc>  // b.none
   15698:	940002a8 	bl	16138 <emmc_interrupt>
   1569c:	b940a380 	ldr	w0, [x28, #160]
   156a0:	7100041f 	cmp	w0, #0x1
   156a4:	54fff401 	b.ne	15524 <emmc_exec_cmd+0x13c>  // b.any
   156a8:	5280015a 	mov	w26, #0xa                   	// #10
   156ac:	17ffff6c 	b	1545c <emmc_exec_cmd+0x74>
   156b0:	71000f5f 	cmp	w26, #0x3
   156b4:	54000b80 	b.eq	15824 <emmc_exec_cmd+0x43c>  // b.none
   156b8:	7100135f 	cmp	w26, #0x4
   156bc:	54000541 	b.ne	15764 <emmc_exec_cmd+0x37c>  // b.any
   156c0:	52900ffa 	mov	w26, #0x807f                	// #32895
   156c4:	b940c380 	ldr	w0, [x28, #192]
   156c8:	6a1a001f 	tst	w0, w26
   156cc:	54000d61 	b.ne	15878 <emmc_exec_cmd+0x490>  // b.any
   156d0:	b9400b80 	ldr	w0, [x28, #8]
   156d4:	36381e60 	tbz	w0, #7, 15aa0 <emmc_exec_cmd+0x6b8>
   156d8:	b9409f80 	ldr	w0, [x28, #156]
   156dc:	7100041f 	cmp	w0, #0x1
   156e0:	54000ea0 	b.eq	158b4 <emmc_exec_cmd+0x4cc>  // b.none
   156e4:	94000295 	bl	16138 <emmc_interrupt>
   156e8:	b940a380 	ldr	w0, [x28, #160]
   156ec:	7100041f 	cmp	w0, #0x1
   156f0:	54002f40 	b.eq	15cd8 <emmc_exec_cmd+0x8f0>  // b.none
   156f4:	5285ffe0 	mov	w0, #0x2fff                	// #12287
   156f8:	6b00029f 	cmp	w20, w0
   156fc:	54000d89 	b.ls	158ac <emmc_exec_cmd+0x4c4>  // b.plast
   15700:	b9409f80 	ldr	w0, [x28, #156]
   15704:	7100041f 	cmp	w0, #0x1
   15708:	54000d60 	b.eq	158b4 <emmc_exec_cmd+0x4cc>  // b.none
   1570c:	9400028b 	bl	16138 <emmc_interrupt>
   15710:	b940a380 	ldr	w0, [x28, #160]
   15714:	7100041f 	cmp	w0, #0x1
   15718:	54fff261 	b.ne	15564 <emmc_exec_cmd+0x17c>  // b.any
   1571c:	b9409f80 	ldr	w0, [x28, #156]
   15720:	7100041f 	cmp	w0, #0x1
   15724:	54000c80 	b.eq	158b4 <emmc_exec_cmd+0x4cc>  // b.none
   15728:	94000284 	bl	16138 <emmc_interrupt>
   1572c:	b940a380 	ldr	w0, [x28, #160]
   15730:	7100041f 	cmp	w0, #0x1
   15734:	54fff181 	b.ne	15564 <emmc_exec_cmd+0x17c>  // b.any
   15738:	b9409f80 	ldr	w0, [x28, #156]
   1573c:	7100041f 	cmp	w0, #0x1
   15740:	54000ba0 	b.eq	158b4 <emmc_exec_cmd+0x4cc>  // b.none
   15744:	9400027d 	bl	16138 <emmc_interrupt>
   15748:	b940a380 	ldr	w0, [x28, #160]
   1574c:	7100041f 	cmp	w0, #0x1
   15750:	54fff0a1 	b.ne	15564 <emmc_exec_cmd+0x17c>  // b.any
   15754:	528000da 	mov	w26, #0x6                   	// #6
   15758:	17ffff41 	b	1545c <emmc_exec_cmd+0x74>
   1575c:	71001f5f 	cmp	w26, #0x7
   15760:	54fff240 	b.eq	155a8 <emmc_exec_cmd+0x1c0>  // b.none
   15764:	b9400b80 	ldr	w0, [x28, #8]
   15768:	377033c0 	tbnz	w0, #14, 15de0 <emmc_exec_cmd+0x9f8>
   1576c:	d2800f01 	mov	x1, #0x78                  	// #120
   15770:	b900037f 	str	wzr, [x27]
   15774:	f2a23801 	movk	x1, #0x11c0, lsl #16
   15778:	52810000 	mov	w0, #0x800                 	// #2048
   1577c:	b9000020 	str	w0, [x1]
   15780:	52800020 	mov	w0, #0x1                   	// #1
   15784:	b90002e0 	str	w0, [x23]
   15788:	52910fe0 	mov	w0, #0x887f                	// #34943
   1578c:	b90002c0 	str	w0, [x22]
   15790:	17ffff42 	b	15498 <emmc_exec_cmd+0xb0>
   15794:	7100275f 	cmp	w26, #0x9
   15798:	54000321 	b.ne	157fc <emmc_exec_cmd+0x414>  // b.any
   1579c:	b9408380 	ldr	w0, [x28, #128]
   157a0:	35ffec20 	cbnz	w0, 15524 <emmc_exec_cmd+0x13c>
   157a4:	d2806c01 	mov	x1, #0x360                 	// #864
   157a8:	d2800400 	mov	x0, #0x20                  	// #32
   157ac:	f2a23801 	movk	x1, #0x11c0, lsl #16
   157b0:	f2a23800 	movk	x0, #0x11c0, lsl #16
   157b4:	52820203 	mov	w3, #0x1010                	// #4112
   157b8:	7100071f 	cmp	w24, #0x1
   157bc:	b9000023 	str	w3, [x1]
   157c0:	b900001f 	str	wzr, [x0]
   157c4:	b900979f 	str	wzr, [x28, #148]
   157c8:	54ffeb20 	b.eq	1552c <emmc_exec_cmd+0x144>  // b.none
   157cc:	97fffecf 	bl	15308 <emmc_softreset>
   157d0:	2a1303e1 	mov	w1, w19
   157d4:	528001a0 	mov	w0, #0xd                   	// #13
   157d8:	94000682 	bl	171e0 <emmc_write_error_info>
   157dc:	2a1303e0 	mov	w0, w19
   157e0:	a94153f3 	ldp	x19, x20, [sp, #16]
   157e4:	a9425bf5 	ldp	x21, x22, [sp, #32]
   157e8:	a94363f7 	ldp	x23, x24, [sp, #48]
   157ec:	a9446bf9 	ldp	x25, x26, [sp, #64]
   157f0:	a94573fb 	ldp	x27, x28, [sp, #80]
   157f4:	a8c77bfd 	ldp	x29, x30, [sp], #112
   157f8:	d65f03c0 	ret
   157fc:	71002b5f 	cmp	w26, #0xa
   15800:	54fffb21 	b.ne	15764 <emmc_exec_cmd+0x37c>  // b.any
   15804:	17ffff48 	b	15524 <emmc_exec_cmd+0x13c>
   15808:	b9409f80 	ldr	w0, [x28, #156]
   1580c:	7100041f 	cmp	w0, #0x1
   15810:	54000520 	b.eq	158b4 <emmc_exec_cmd+0x4cc>  // b.none
   15814:	94000249 	bl	16138 <emmc_interrupt>
   15818:	b940a380 	ldr	w0, [x28, #160]
   1581c:	7100041f 	cmp	w0, #0x1
   15820:	54001bc0 	b.eq	15b98 <emmc_exec_cmd+0x7b0>  // b.none
   15824:	b90002ff 	str	wzr, [x23]
   15828:	52810000 	mov	w0, #0x800                 	// #2048
   1582c:	b90002c0 	str	w0, [x22]
   15830:	52900fe0 	mov	w0, #0x807f                	// #32895
   15834:	b940c381 	ldr	w1, [x28, #192]
   15838:	6a00003f 	tst	w1, w0
   1583c:	54000580 	b.eq	158ec <emmc_exec_cmd+0x504>  // b.none
   15840:	b940a780 	ldr	w0, [x28, #164]
   15844:	7100041f 	cmp	w0, #0x1
   15848:	54000181 	b.ne	15878 <emmc_exec_cmd+0x490>  // b.any
   1584c:	b940c380 	ldr	w0, [x28, #192]
   15850:	36300140 	tbz	w0, #6, 15878 <emmc_exec_cmd+0x490>
   15854:	b9409f80 	ldr	w0, [x28, #156]
   15858:	7100041f 	cmp	w0, #0x1
   1585c:	540002c0 	b.eq	158b4 <emmc_exec_cmd+0x4cc>  // b.none
   15860:	94000236 	bl	16138 <emmc_interrupt>
   15864:	b940a398 	ldr	w24, [x28, #160]
   15868:	7100071f 	cmp	w24, #0x1
   1586c:	54002980 	b.eq	15d9c <emmc_exec_cmd+0x9b4>  // b.none
   15870:	528000b3 	mov	w19, #0x5                   	// #5
   15874:	17ffff2e 	b	1552c <emmc_exec_cmd+0x144>
   15878:	b9400b81 	ldr	w1, [x28, #8]
   1587c:	f0000020 	adrp	x0, 1c000 <vprintf+0x418>
   15880:	91162000 	add	x0, x0, #0x588
   15884:	94001577 	bl	1ae60 <tf_log>
   15888:	b9409f80 	ldr	w0, [x28, #156]
   1588c:	7100041f 	cmp	w0, #0x1
   15890:	54000120 	b.eq	158b4 <emmc_exec_cmd+0x4cc>  // b.none
   15894:	94000229 	bl	16138 <emmc_interrupt>
   15898:	b940a380 	ldr	w0, [x28, #160]
   1589c:	7100041f 	cmp	w0, #0x1
   158a0:	540013a0 	b.eq	15b14 <emmc_exec_cmd+0x72c>  // b.none
   158a4:	52800333 	mov	w19, #0x19                  	// #25
   158a8:	17ffff1f 	b	15524 <emmc_exec_cmd+0x13c>
   158ac:	97fffe73 	bl	15278 <emmc_WaitCmd2Cmd_8Cycle>
   158b0:	b9409f80 	ldr	w0, [x28, #156]
   158b4:	b9409f80 	ldr	w0, [x28, #156]
   158b8:	7100041f 	cmp	w0, #0x1
   158bc:	54001d00 	b.eq	15c5c <emmc_exec_cmd+0x874>  // b.none
   158c0:	b9008f9f 	str	wzr, [x28, #140]
   158c4:	52800033 	mov	w19, #0x1                   	// #1
   158c8:	b900939f 	str	wzr, [x28, #144]
   158cc:	2a1303e0 	mov	w0, w19
   158d0:	a94153f3 	ldp	x19, x20, [sp, #16]
   158d4:	a9425bf5 	ldp	x21, x22, [sp, #32]
   158d8:	a94363f7 	ldp	x23, x24, [sp, #48]
   158dc:	a9446bf9 	ldp	x25, x26, [sp, #64]
   158e0:	a94573fb 	ldp	x27, x28, [sp, #80]
   158e4:	a8c77bfd 	ldp	x29, x30, [sp], #112
   158e8:	d65f03c0 	ret
   158ec:	b940bf80 	ldr	w0, [x28, #188]
   158f0:	12000013 	and	w19, w0, #0x1
   158f4:	3607e080 	tbz	w0, #0, 15504 <emmc_exec_cmd+0x11c>
   158f8:	b9404f80 	ldr	w0, [x28, #76]
   158fc:	7100441f 	cmp	w0, #0x11
   15900:	54002bc0 	b.eq	15e78 <emmc_exec_cmd+0xa90>  // b.none
   15904:	d2800600 	mov	x0, #0x30                  	// #48
   15908:	f2a23800 	movk	x0, #0x11c0, lsl #16
   1590c:	b9400000 	ldr	w0, [x0]
   15910:	b90002a0 	str	w0, [x21]
   15914:	b9401f80 	ldr	w0, [x28, #28]
   15918:	72180c00 	ands	w0, w0, #0xf00
   1591c:	54000120 	b.eq	15940 <emmc_exec_cmd+0x558>  // b.none
   15920:	7108001f 	cmp	w0, #0x200
   15924:	54003148 	b.hi	15f4c <emmc_exec_cmd+0xb64>  // b.pmore
   15928:	b94002a0 	ldr	w0, [x21]
   1592c:	b9406be1 	ldr	w1, [sp, #104]
   15930:	6a00003f 	tst	w1, w0
   15934:	d3493001 	ubfx	x1, x0, #9, #4
   15938:	b9008b81 	str	w1, [x28, #136]
   1593c:	540038a1 	b.ne	16050 <emmc_exec_cmd+0xc68>  // b.any
   15940:	7108033f 	cmp	w25, #0x200
   15944:	540035e0 	b.eq	16000 <emmc_exec_cmd+0xc18>  // b.none
   15948:	b9409f80 	ldr	w0, [x28, #156]
   1594c:	7100041f 	cmp	w0, #0x1
   15950:	54fffb20 	b.eq	158b4 <emmc_exec_cmd+0x4cc>  // b.none
   15954:	940001f9 	bl	16138 <emmc_interrupt>
   15958:	b940a381 	ldr	w1, [x28, #160]
   1595c:	7100043f 	cmp	w1, #0x1
   15960:	54ffeca1 	b.ne	156f4 <emmc_exec_cmd+0x30c>  // b.any
   15964:	b9409f80 	ldr	w0, [x28, #156]
   15968:	b9006fe1 	str	w1, [sp, #108]
   1596c:	7100041f 	cmp	w0, #0x1
   15970:	54fffa20 	b.eq	158b4 <emmc_exec_cmd+0x4cc>  // b.none
   15974:	940001f1 	bl	16138 <emmc_interrupt>
   15978:	b940a39a 	ldr	w26, [x28, #160]
   1597c:	b9406fe1 	ldr	w1, [sp, #108]
   15980:	7100075f 	cmp	w26, #0x1
   15984:	2a0103f3 	mov	w19, w1
   15988:	54ffeb61 	b.ne	156f4 <emmc_exec_cmd+0x30c>  // b.any
   1598c:	b9409f80 	ldr	w0, [x28, #156]
   15990:	7100041f 	cmp	w0, #0x1
   15994:	54fff900 	b.eq	158b4 <emmc_exec_cmd+0x4cc>  // b.none
   15998:	940001e8 	bl	16138 <emmc_interrupt>
   1599c:	b940a393 	ldr	w19, [x28, #160]
   159a0:	7100067f 	cmp	w19, #0x1
   159a4:	54001b60 	b.eq	15d10 <emmc_exec_cmd+0x928>  // b.none
   159a8:	2a1a03f3 	mov	w19, w26
   159ac:	17ffff52 	b	156f4 <emmc_exec_cmd+0x30c>
   159b0:	b9400b81 	ldr	w1, [x28, #8]
   159b4:	f0000020 	adrp	x0, 1c000 <vprintf+0x418>
   159b8:	91162000 	add	x0, x0, #0x588
   159bc:	94001529 	bl	1ae60 <tf_log>
   159c0:	b9409f80 	ldr	w0, [x28, #156]
   159c4:	7100041f 	cmp	w0, #0x1
   159c8:	54fff760 	b.eq	158b4 <emmc_exec_cmd+0x4cc>  // b.none
   159cc:	940001db 	bl	16138 <emmc_interrupt>
   159d0:	b940a380 	ldr	w0, [x28, #160]
   159d4:	7100041f 	cmp	w0, #0x1
   159d8:	540015e0 	b.eq	15c94 <emmc_exec_cmd+0x8ac>  // b.none
   159dc:	52800333 	mov	w19, #0x19                  	// #25
   159e0:	17ffff6f 	b	1579c <emmc_exec_cmd+0x3b4>
   159e4:	b9009780 	str	w0, [x28, #148]
   159e8:	52910fe0 	mov	w0, #0x887f                	// #34943
   159ec:	b9009b9f 	str	wzr, [x28, #152]
   159f0:	d2810903 	mov	x3, #0x848                 	// #2120
   159f4:	b90002ff 	str	wzr, [x23]
   159f8:	d2810b04 	mov	x4, #0x858                 	// #2136
   159fc:	b90002c0 	str	w0, [x22]
   15a00:	f2a23803 	movk	x3, #0x11c0, lsl #16
   15a04:	f2a23804 	movk	x4, #0x11c0, lsl #16
   15a08:	7100043f 	cmp	w1, #0x1
   15a0c:	54002260 	b.eq	15e58 <emmc_exec_cmd+0xa70>  // b.none
   15a10:	d2810401 	mov	x1, #0x820                 	// #2080
   15a14:	12a00020 	mov	w0, #0xfffeffff            	// #-65537
   15a18:	f2a23801 	movk	x1, #0x11c0, lsl #16
   15a1c:	b9000060 	str	w0, [x3]
   15a20:	52800603 	mov	w3, #0x30                  	// #48
   15a24:	b9000080 	str	w0, [x4]
   15a28:	72a00023 	movk	w3, #0x1, lsl #16
   15a2c:	b9000023 	str	w3, [x1]
   15a30:	d2811004 	mov	x4, #0x880                 	// #2176
   15a34:	d2810501 	mov	x1, #0x828                 	// #2088
   15a38:	f9401b80 	ldr	x0, [x28, #48]
   15a3c:	f2a23804 	movk	x4, #0x11c0, lsl #16
   15a40:	f2a23801 	movk	x1, #0x11c0, lsl #16
   15a44:	52800023 	mov	w3, #0x1                   	// #1
   15a48:	121d7000 	and	w0, w0, #0xfffffff8
   15a4c:	b9000080 	str	w0, [x4]
   15a50:	b9000023 	str	w3, [x1]
   15a54:	b9409f80 	ldr	w0, [x28, #156]
   15a58:	6b03001f 	cmp	w0, w3
   15a5c:	54ffd9e1 	b.ne	15598 <emmc_exec_cmd+0x1b0>  // b.any
   15a60:	17ffff95 	b	158b4 <emmc_exec_cmd+0x4cc>
   15a64:	528001e1 	mov	w1, #0xf                   	// #15
   15a68:	528001a0 	mov	w0, #0xd                   	// #13
   15a6c:	2a0103f3 	mov	w19, w1
   15a70:	940005dc 	bl	171e0 <emmc_write_error_info>
   15a74:	2a1303e0 	mov	w0, w19
   15a78:	a94153f3 	ldp	x19, x20, [sp, #16]
   15a7c:	a94573fb 	ldp	x27, x28, [sp, #80]
   15a80:	a8c77bfd 	ldp	x29, x30, [sp], #112
   15a84:	d65f03c0 	ret
   15a88:	52800001 	mov	w1, #0x0                   	// #0
   15a8c:	528001a0 	mov	w0, #0xd                   	// #13
   15a90:	52800013 	mov	w19, #0x0                   	// #0
   15a94:	940005d3 	bl	171e0 <emmc_write_error_info>
   15a98:	a94573fb 	ldp	x27, x28, [sp, #80]
   15a9c:	17fffea9 	b	15540 <emmc_exec_cmd+0x158>
   15aa0:	b9409f80 	ldr	w0, [x28, #156]
   15aa4:	7100041f 	cmp	w0, #0x1
   15aa8:	54fff060 	b.eq	158b4 <emmc_exec_cmd+0x4cc>  // b.none
   15aac:	940001a3 	bl	16138 <emmc_interrupt>
   15ab0:	b940a380 	ldr	w0, [x28, #160]
   15ab4:	7100041f 	cmp	w0, #0x1
   15ab8:	54ffe061 	b.ne	156c4 <emmc_exec_cmd+0x2dc>  // b.any
   15abc:	5280009a 	mov	w26, #0x4                   	// #4
   15ac0:	17fffe67 	b	1545c <emmc_exec_cmd+0x74>
   15ac4:	52914fe0 	mov	w0, #0x8a7f                	// #35455
   15ac8:	b90002c0 	str	w0, [x22]
   15acc:	b9409f80 	ldr	w0, [x28, #156]
   15ad0:	7100041f 	cmp	w0, #0x1
   15ad4:	54ffd621 	b.ne	15598 <emmc_exec_cmd+0x1b0>  // b.any
   15ad8:	17ffff77 	b	158b4 <emmc_exec_cmd+0x4cc>
   15adc:	b9409f80 	ldr	w0, [x28, #156]
   15ae0:	7100041f 	cmp	w0, #0x1
   15ae4:	54ffee80 	b.eq	158b4 <emmc_exec_cmd+0x4cc>  // b.none
   15ae8:	94000194 	bl	16138 <emmc_interrupt>
   15aec:	b940a380 	ldr	w0, [x28, #160]
   15af0:	7100041f 	cmp	w0, #0x1
   15af4:	54001320 	b.eq	15d58 <emmc_exec_cmd+0x970>  // b.none
   15af8:	52800073 	mov	w19, #0x3                   	// #3
   15afc:	17ffff28 	b	1579c <emmc_exec_cmd+0x3b4>
   15b00:	52800121 	mov	w1, #0x9                   	// #9
   15b04:	528001a0 	mov	w0, #0xd                   	// #13
   15b08:	2a0103f3 	mov	w19, w1
   15b0c:	940005b5 	bl	171e0 <emmc_write_error_info>
   15b10:	17fffe8c 	b	15540 <emmc_exec_cmd+0x158>
   15b14:	b9409f80 	ldr	w0, [x28, #156]
   15b18:	7100041f 	cmp	w0, #0x1
   15b1c:	54ffecc0 	b.eq	158b4 <emmc_exec_cmd+0x4cc>  // b.none
   15b20:	94000186 	bl	16138 <emmc_interrupt>
   15b24:	b940a380 	ldr	w0, [x28, #160]
   15b28:	7100041f 	cmp	w0, #0x1
   15b2c:	54ffebc1 	b.ne	158a4 <emmc_exec_cmd+0x4bc>  // b.any
   15b30:	b9409f80 	ldr	w0, [x28, #156]
   15b34:	7100041f 	cmp	w0, #0x1
   15b38:	54ffebe0 	b.eq	158b4 <emmc_exec_cmd+0x4cc>  // b.none
   15b3c:	9400017f 	bl	16138 <emmc_interrupt>
   15b40:	b940a380 	ldr	w0, [x28, #160]
   15b44:	7100041f 	cmp	w0, #0x1
   15b48:	54ffeae1 	b.ne	158a4 <emmc_exec_cmd+0x4bc>  // b.any
   15b4c:	5280015a 	mov	w26, #0xa                   	// #10
   15b50:	52800333 	mov	w19, #0x19                  	// #25
   15b54:	17fffe42 	b	1545c <emmc_exec_cmd+0x74>
   15b58:	b9409f80 	ldr	w0, [x28, #156]
   15b5c:	7100041f 	cmp	w0, #0x1
   15b60:	54ffeaa0 	b.eq	158b4 <emmc_exec_cmd+0x4cc>  // b.none
   15b64:	94000175 	bl	16138 <emmc_interrupt>
   15b68:	b940a380 	ldr	w0, [x28, #160]
   15b6c:	7100041f 	cmp	w0, #0x1
   15b70:	54ffd1c1 	b.ne	155a8 <emmc_exec_cmd+0x1c0>  // b.any
   15b74:	b9409f80 	ldr	w0, [x28, #156]
   15b78:	7100041f 	cmp	w0, #0x1
   15b7c:	54ffe9c0 	b.eq	158b4 <emmc_exec_cmd+0x4cc>  // b.none
   15b80:	9400016e 	bl	16138 <emmc_interrupt>
   15b84:	b940a380 	ldr	w0, [x28, #160]
   15b88:	7100041f 	cmp	w0, #0x1
   15b8c:	54ffd0e1 	b.ne	155a8 <emmc_exec_cmd+0x1c0>  // b.any
   15b90:	528000fa 	mov	w26, #0x7                   	// #7
   15b94:	17fffe32 	b	1545c <emmc_exec_cmd+0x74>
   15b98:	b9409f80 	ldr	w0, [x28, #156]
   15b9c:	7100041f 	cmp	w0, #0x1
   15ba0:	54ffe8a0 	b.eq	158b4 <emmc_exec_cmd+0x4cc>  // b.none
   15ba4:	94000165 	bl	16138 <emmc_interrupt>
   15ba8:	b940a380 	ldr	w0, [x28, #160]
   15bac:	7100041f 	cmp	w0, #0x1
   15bb0:	54ffe3a1 	b.ne	15824 <emmc_exec_cmd+0x43c>  // b.any
   15bb4:	b9409f80 	ldr	w0, [x28, #156]
   15bb8:	7100041f 	cmp	w0, #0x1
   15bbc:	54ffe7c0 	b.eq	158b4 <emmc_exec_cmd+0x4cc>  // b.none
   15bc0:	9400015e 	bl	16138 <emmc_interrupt>
   15bc4:	b940a380 	ldr	w0, [x28, #160]
   15bc8:	7100041f 	cmp	w0, #0x1
   15bcc:	54ffe2c1 	b.ne	15824 <emmc_exec_cmd+0x43c>  // b.any
   15bd0:	5280007a 	mov	w26, #0x3                   	// #3
   15bd4:	17fffe22 	b	1545c <emmc_exec_cmd+0x74>
   15bd8:	b9409f80 	ldr	w0, [x28, #156]
   15bdc:	7100041f 	cmp	w0, #0x1
   15be0:	54ffe6a0 	b.eq	158b4 <emmc_exec_cmd+0x4cc>  // b.none
   15be4:	94000155 	bl	16138 <emmc_interrupt>
   15be8:	b940a380 	ldr	w0, [x28, #160]
   15bec:	7100041f 	cmp	w0, #0x1
   15bf0:	54ffc781 	b.ne	154e0 <emmc_exec_cmd+0xf8>  // b.any
   15bf4:	b9409f80 	ldr	w0, [x28, #156]
   15bf8:	7100041f 	cmp	w0, #0x1
   15bfc:	54ffe5c0 	b.eq	158b4 <emmc_exec_cmd+0x4cc>  // b.none
   15c00:	9400014e 	bl	16138 <emmc_interrupt>
   15c04:	b940a380 	ldr	w0, [x28, #160]
   15c08:	7100041f 	cmp	w0, #0x1
   15c0c:	54ffc6a1 	b.ne	154e0 <emmc_exec_cmd+0xf8>  // b.any
   15c10:	5280005a 	mov	w26, #0x2                   	// #2
   15c14:	17fffe12 	b	1545c <emmc_exec_cmd+0x74>
   15c18:	b9409f80 	ldr	w0, [x28, #156]
   15c1c:	7100041f 	cmp	w0, #0x1
   15c20:	54ffe4a0 	b.eq	158b4 <emmc_exec_cmd+0x4cc>  // b.none
   15c24:	94000145 	bl	16138 <emmc_interrupt>
   15c28:	b940a380 	ldr	w0, [x28, #160]
   15c2c:	7100041f 	cmp	w0, #0x1
   15c30:	54ffc781 	b.ne	15520 <emmc_exec_cmd+0x138>  // b.any
   15c34:	b9409f80 	ldr	w0, [x28, #156]
   15c38:	7100041f 	cmp	w0, #0x1
   15c3c:	54ffe3c0 	b.eq	158b4 <emmc_exec_cmd+0x4cc>  // b.none
   15c40:	9400013e 	bl	16138 <emmc_interrupt>
   15c44:	b940a380 	ldr	w0, [x28, #160]
   15c48:	7100041f 	cmp	w0, #0x1
   15c4c:	54ffc6a1 	b.ne	15520 <emmc_exec_cmd+0x138>  // b.any
   15c50:	5280015a 	mov	w26, #0xa                   	// #10
   15c54:	2a1a03f3 	mov	w19, w26
   15c58:	17fffe01 	b	1545c <emmc_exec_cmd+0x74>
   15c5c:	b9409780 	ldr	w0, [x28, #148]
   15c60:	7100041f 	cmp	w0, #0x1
   15c64:	54000041 	b.ne	15c6c <emmc_exec_cmd+0x884>  // b.any
   15c68:	b900979f 	str	wzr, [x28, #148]
   15c6c:	f0000020 	adrp	x0, 1c000 <vprintf+0x418>
   15c70:	91172000 	add	x0, x0, #0x5c8
   15c74:	528002d3 	mov	w19, #0x16                  	// #22
   15c78:	9400147a 	bl	1ae60 <tf_log>
   15c7c:	97fffda3 	bl	15308 <emmc_softreset>
   15c80:	a9425bf5 	ldp	x21, x22, [sp, #32]
   15c84:	a94363f7 	ldp	x23, x24, [sp, #48]
   15c88:	a9446bf9 	ldp	x25, x26, [sp, #64]
   15c8c:	a94573fb 	ldp	x27, x28, [sp, #80]
   15c90:	17fffe2c 	b	15540 <emmc_exec_cmd+0x158>
   15c94:	b9409f80 	ldr	w0, [x28, #156]
   15c98:	7100041f 	cmp	w0, #0x1
   15c9c:	54ffe0c0 	b.eq	158b4 <emmc_exec_cmd+0x4cc>  // b.none
   15ca0:	94000126 	bl	16138 <emmc_interrupt>
   15ca4:	b940a380 	ldr	w0, [x28, #160]
   15ca8:	7100041f 	cmp	w0, #0x1
   15cac:	54ffe981 	b.ne	159dc <emmc_exec_cmd+0x5f4>  // b.any
   15cb0:	b9409f80 	ldr	w0, [x28, #156]
   15cb4:	7100041f 	cmp	w0, #0x1
   15cb8:	54ffdfe0 	b.eq	158b4 <emmc_exec_cmd+0x4cc>  // b.none
   15cbc:	9400011f 	bl	16138 <emmc_interrupt>
   15cc0:	b940a380 	ldr	w0, [x28, #160]
   15cc4:	7100041f 	cmp	w0, #0x1
   15cc8:	54ffe8a1 	b.ne	159dc <emmc_exec_cmd+0x5f4>  // b.any
   15ccc:	5280013a 	mov	w26, #0x9                   	// #9
   15cd0:	52800333 	mov	w19, #0x19                  	// #25
   15cd4:	17fffde2 	b	1545c <emmc_exec_cmd+0x74>
   15cd8:	b9409f80 	ldr	w0, [x28, #156]
   15cdc:	7100041f 	cmp	w0, #0x1
   15ce0:	54ffdea0 	b.eq	158b4 <emmc_exec_cmd+0x4cc>  // b.none
   15ce4:	94000115 	bl	16138 <emmc_interrupt>
   15ce8:	b940a380 	ldr	w0, [x28, #160]
   15cec:	7100041f 	cmp	w0, #0x1
   15cf0:	54ffd021 	b.ne	156f4 <emmc_exec_cmd+0x30c>  // b.any
   15cf4:	b9409f80 	ldr	w0, [x28, #156]
   15cf8:	7100041f 	cmp	w0, #0x1
   15cfc:	54ffddc0 	b.eq	158b4 <emmc_exec_cmd+0x4cc>  // b.none
   15d00:	9400010e 	bl	16138 <emmc_interrupt>
   15d04:	b940a380 	ldr	w0, [x28, #160]
   15d08:	7100041f 	cmp	w0, #0x1
   15d0c:	54ffcf41 	b.ne	156f4 <emmc_exec_cmd+0x30c>  // b.any
   15d10:	528000ba 	mov	w26, #0x5                   	// #5
   15d14:	17fffdd2 	b	1545c <emmc_exec_cmd+0x74>
   15d18:	b9409f80 	ldr	w0, [x28, #156]
   15d1c:	7100041f 	cmp	w0, #0x1
   15d20:	54ffdca0 	b.eq	158b4 <emmc_exec_cmd+0x4cc>  // b.none
   15d24:	94000105 	bl	16138 <emmc_interrupt>
   15d28:	b940a380 	ldr	w0, [x28, #160]
   15d2c:	7100041f 	cmp	w0, #0x1
   15d30:	54ffc6c1 	b.ne	15608 <emmc_exec_cmd+0x220>  // b.any
   15d34:	b9409f80 	ldr	w0, [x28, #156]
   15d38:	7100041f 	cmp	w0, #0x1
   15d3c:	54ffdbc0 	b.eq	158b4 <emmc_exec_cmd+0x4cc>  // b.none
   15d40:	940000fe 	bl	16138 <emmc_interrupt>
   15d44:	b940a380 	ldr	w0, [x28, #160]
   15d48:	7100041f 	cmp	w0, #0x1
   15d4c:	54ffc5e1 	b.ne	15608 <emmc_exec_cmd+0x220>  // b.any
   15d50:	5280011a 	mov	w26, #0x8                   	// #8
   15d54:	17fffdc2 	b	1545c <emmc_exec_cmd+0x74>
   15d58:	b9409f80 	ldr	w0, [x28, #156]
   15d5c:	7100041f 	cmp	w0, #0x1
   15d60:	54ffdaa0 	b.eq	158b4 <emmc_exec_cmd+0x4cc>  // b.none
   15d64:	940000f5 	bl	16138 <emmc_interrupt>
   15d68:	b940a380 	ldr	w0, [x28, #160]
   15d6c:	7100041f 	cmp	w0, #0x1
   15d70:	54ffec41 	b.ne	15af8 <emmc_exec_cmd+0x710>  // b.any
   15d74:	b9409f80 	ldr	w0, [x28, #156]
   15d78:	7100041f 	cmp	w0, #0x1
   15d7c:	54ffd9c0 	b.eq	158b4 <emmc_exec_cmd+0x4cc>  // b.none
   15d80:	940000ee 	bl	16138 <emmc_interrupt>
   15d84:	b940a380 	ldr	w0, [x28, #160]
   15d88:	7100041f 	cmp	w0, #0x1
   15d8c:	54ffeb61 	b.ne	15af8 <emmc_exec_cmd+0x710>  // b.any
   15d90:	5280013a 	mov	w26, #0x9                   	// #9
   15d94:	52800073 	mov	w19, #0x3                   	// #3
   15d98:	17fffdb1 	b	1545c <emmc_exec_cmd+0x74>
   15d9c:	b9409f80 	ldr	w0, [x28, #156]
   15da0:	7100041f 	cmp	w0, #0x1
   15da4:	54ffd880 	b.eq	158b4 <emmc_exec_cmd+0x4cc>  // b.none
   15da8:	940000e4 	bl	16138 <emmc_interrupt>
   15dac:	b940a380 	ldr	w0, [x28, #160]
   15db0:	7100041f 	cmp	w0, #0x1
   15db4:	54ffd5e1 	b.ne	15870 <emmc_exec_cmd+0x488>  // b.any
   15db8:	b9409f80 	ldr	w0, [x28, #156]
   15dbc:	7100041f 	cmp	w0, #0x1
   15dc0:	54ffd7a0 	b.eq	158b4 <emmc_exec_cmd+0x4cc>  // b.none
   15dc4:	940000dd 	bl	16138 <emmc_interrupt>
   15dc8:	b940a398 	ldr	w24, [x28, #160]
   15dcc:	7100071f 	cmp	w24, #0x1
   15dd0:	54ffd501 	b.ne	15870 <emmc_exec_cmd+0x488>  // b.any
   15dd4:	5280015a 	mov	w26, #0xa                   	// #10
   15dd8:	528000b3 	mov	w19, #0x5                   	// #5
   15ddc:	17fffda0 	b	1545c <emmc_exec_cmd+0x74>
   15de0:	52800241 	mov	w1, #0x12                  	// #18
   15de4:	528001a0 	mov	w0, #0xd                   	// #13
   15de8:	2a0103f3 	mov	w19, w1
   15dec:	17fffe7b 	b	157d8 <emmc_exec_cmd+0x3f0>
   15df0:	b9409f80 	ldr	w0, [x28, #156]
   15df4:	7100041f 	cmp	w0, #0x1
   15df8:	54ffd5e0 	b.eq	158b4 <emmc_exec_cmd+0x4cc>  // b.none
   15dfc:	940000cf 	bl	16138 <emmc_interrupt>
   15e00:	b940a380 	ldr	w0, [x28, #160]
   15e04:	7100041f 	cmp	w0, #0x1
   15e08:	54000060 	b.eq	15e14 <emmc_exec_cmd+0xa2c>  // b.none
   15e0c:	52800013 	mov	w19, #0x0                   	// #0
   15e10:	17fffe63 	b	1579c <emmc_exec_cmd+0x3b4>
   15e14:	b9409f80 	ldr	w0, [x28, #156]
   15e18:	7100041f 	cmp	w0, #0x1
   15e1c:	54ffd4c0 	b.eq	158b4 <emmc_exec_cmd+0x4cc>  // b.none
   15e20:	940000c6 	bl	16138 <emmc_interrupt>
   15e24:	b940a380 	ldr	w0, [x28, #160]
   15e28:	7100041f 	cmp	w0, #0x1
   15e2c:	54ffff01 	b.ne	15e0c <emmc_exec_cmd+0xa24>  // b.any
   15e30:	b9409f80 	ldr	w0, [x28, #156]
   15e34:	7100041f 	cmp	w0, #0x1
   15e38:	54ffd3e0 	b.eq	158b4 <emmc_exec_cmd+0x4cc>  // b.none
   15e3c:	940000bf 	bl	16138 <emmc_interrupt>
   15e40:	b940a380 	ldr	w0, [x28, #160]
   15e44:	7100041f 	cmp	w0, #0x1
   15e48:	54fffe21 	b.ne	15e0c <emmc_exec_cmd+0xa24>  // b.any
   15e4c:	52800013 	mov	w19, #0x0                   	// #0
   15e50:	5280013a 	mov	w26, #0x9                   	// #9
   15e54:	17fffd82 	b	1545c <emmc_exec_cmd+0x74>
   15e58:	d2810401 	mov	x1, #0x820                 	// #2080
   15e5c:	12a00040 	mov	w0, #0xfffdffff            	// #-131073
   15e60:	f2a23801 	movk	x1, #0x11c0, lsl #16
   15e64:	b9000060 	str	w0, [x3]
   15e68:	b9000080 	str	w0, [x4]
   15e6c:	52800603 	mov	w3, #0x30                  	// #48
   15e70:	b9000023 	str	w3, [x1]
   15e74:	17fffeef 	b	15a30 <emmc_exec_cmd+0x648>
   15e78:	d2800c00 	mov	x0, #0x60                  	// #96
   15e7c:	d2800a03 	mov	x3, #0x50                  	// #80
   15e80:	f2a23803 	movk	x3, #0x11c0, lsl #16
   15e84:	f2a23800 	movk	x0, #0x11c0, lsl #16
   15e88:	d2800801 	mov	x1, #0x40                  	// #64
   15e8c:	b10012bf 	cmn	x21, #0x4
   15e90:	b9400000 	ldr	w0, [x0]
   15e94:	f2a23801 	movk	x1, #0x11c0, lsl #16
   15e98:	b9400064 	ldr	w4, [x3]
   15e9c:	13846000 	extr	w0, w0, w4, #24
   15ea0:	39000ea0 	strb	w0, [x21, #3]
   15ea4:	53187c05 	lsr	w5, w0, #24
   15ea8:	53107c04 	lsr	w4, w0, #16
   15eac:	53087c00 	lsr	w0, w0, #8
   15eb0:	390002a5 	strb	w5, [x21]
   15eb4:	390006a4 	strb	w4, [x21, #1]
   15eb8:	39000aa0 	strb	w0, [x21, #2]
   15ebc:	b9400060 	ldr	w0, [x3]
   15ec0:	b9400023 	ldr	w3, [x1]
   15ec4:	13836000 	extr	w0, w0, w3, #24
   15ec8:	540007e0 	b.eq	15fc4 <emmc_exec_cmd+0xbdc>  // b.none
   15ecc:	d2800603 	mov	x3, #0x30                  	// #48
   15ed0:	53187c06 	lsr	w6, w0, #24
   15ed4:	53107c05 	lsr	w5, w0, #16
   15ed8:	53087c04 	lsr	w4, w0, #8
   15edc:	f2a23803 	movk	x3, #0x11c0, lsl #16
   15ee0:	390012a6 	strb	w6, [x21, #4]
   15ee4:	390016a5 	strb	w5, [x21, #5]
   15ee8:	b10022bf 	cmn	x21, #0x8
   15eec:	39001aa4 	strb	w4, [x21, #6]
   15ef0:	39001ea0 	strb	w0, [x21, #7]
   15ef4:	b9400020 	ldr	w0, [x1]
   15ef8:	b9400061 	ldr	w1, [x3]
   15efc:	13816000 	extr	w0, w0, w1, #24
   15f00:	540007a0 	b.eq	15ff4 <emmc_exec_cmd+0xc0c>  // b.none
   15f04:	53087c01 	lsr	w1, w0, #8
   15f08:	53187c05 	lsr	w5, w0, #24
   15f0c:	53107c04 	lsr	w4, w0, #16
   15f10:	390022a5 	strb	w5, [x21, #8]
   15f14:	390026a4 	strb	w4, [x21, #9]
   15f18:	b10032bf 	cmn	x21, #0xc
   15f1c:	39002aa1 	strb	w1, [x21, #10]
   15f20:	39002ea0 	strb	w0, [x21, #11]
   15f24:	b9400061 	ldr	w1, [x3]
   15f28:	53185c20 	lsl	w0, w1, #8
   15f2c:	54ffcf40 	b.eq	15914 <emmc_exec_cmd+0x52c>  // b.none
   15f30:	53187c03 	lsr	w3, w0, #24
   15f34:	53107c00 	lsr	w0, w0, #16
   15f38:	390032a3 	strb	w3, [x21, #12]
   15f3c:	390036a0 	strb	w0, [x21, #13]
   15f40:	39003aa1 	strb	w1, [x21, #14]
   15f44:	39003ebf 	strb	wzr, [x21, #15]
   15f48:	17fffe73 	b	15914 <emmc_exec_cmd+0x52c>
   15f4c:	7114001f 	cmp	w0, #0x500
   15f50:	54ffcf81 	b.ne	15940 <emmc_exec_cmd+0x558>  // b.any
   15f54:	b94002a0 	ldr	w0, [x21]
   15f58:	367fcf40 	tbz	w0, #15, 15940 <emmc_exec_cmd+0x558>
   15f5c:	b9409f80 	ldr	w0, [x28, #156]
   15f60:	7100041f 	cmp	w0, #0x1
   15f64:	54ffca80 	b.eq	158b4 <emmc_exec_cmd+0x4cc>  // b.none
   15f68:	94000074 	bl	16138 <emmc_interrupt>
   15f6c:	b940a380 	ldr	w0, [x28, #160]
   15f70:	7100041f 	cmp	w0, #0x1
   15f74:	54000060 	b.eq	15f80 <emmc_exec_cmd+0xb98>  // b.none
   15f78:	52800093 	mov	w19, #0x4                   	// #4
   15f7c:	17fffd6a 	b	15524 <emmc_exec_cmd+0x13c>
   15f80:	b9409f80 	ldr	w0, [x28, #156]
   15f84:	7100041f 	cmp	w0, #0x1
   15f88:	54ffc960 	b.eq	158b4 <emmc_exec_cmd+0x4cc>  // b.none
   15f8c:	9400006b 	bl	16138 <emmc_interrupt>
   15f90:	b940a380 	ldr	w0, [x28, #160]
   15f94:	7100041f 	cmp	w0, #0x1
   15f98:	54ffff01 	b.ne	15f78 <emmc_exec_cmd+0xb90>  // b.any
   15f9c:	b9409f80 	ldr	w0, [x28, #156]
   15fa0:	7100041f 	cmp	w0, #0x1
   15fa4:	54ffc880 	b.eq	158b4 <emmc_exec_cmd+0x4cc>  // b.none
   15fa8:	94000064 	bl	16138 <emmc_interrupt>
   15fac:	b940a380 	ldr	w0, [x28, #160]
   15fb0:	7100041f 	cmp	w0, #0x1
   15fb4:	54fffe21 	b.ne	15f78 <emmc_exec_cmd+0xb90>  // b.any
   15fb8:	5280015a 	mov	w26, #0xa                   	// #10
   15fbc:	52800093 	mov	w19, #0x4                   	// #4
   15fc0:	17fffd27 	b	1545c <emmc_exec_cmd+0x74>
   15fc4:	d2800603 	mov	x3, #0x30                  	// #48
   15fc8:	b9400020 	ldr	w0, [x1]
   15fcc:	f2a23803 	movk	x3, #0x11c0, lsl #16
   15fd0:	b9400061 	ldr	w1, [x3]
   15fd4:	13816000 	extr	w0, w0, w1, #24
   15fd8:	39002ea0 	strb	w0, [x21, #11]
   15fdc:	53187c04 	lsr	w4, w0, #24
   15fe0:	53107c01 	lsr	w1, w0, #16
   15fe4:	53087c00 	lsr	w0, w0, #8
   15fe8:	390022a4 	strb	w4, [x21, #8]
   15fec:	390026a1 	strb	w1, [x21, #9]
   15ff0:	39002aa0 	strb	w0, [x21, #10]
   15ff4:	b9400061 	ldr	w1, [x3]
   15ff8:	53185c20 	lsl	w0, w1, #8
   15ffc:	17ffffcd 	b	15f30 <emmc_exec_cmd+0xb48>
   16000:	52910fe0 	mov	w0, #0x887f                	// #34943
   16004:	b90002c0 	str	w0, [x22]
   16008:	b9409f80 	ldr	w0, [x28, #156]
   1600c:	7100041f 	cmp	w0, #0x1
   16010:	54ffc520 	b.eq	158b4 <emmc_exec_cmd+0x4cc>  // b.none
   16014:	94000049 	bl	16138 <emmc_interrupt>
   16018:	b940a383 	ldr	w3, [x28, #160]
   1601c:	7100047f 	cmp	w3, #0x1
   16020:	54ffb501 	b.ne	156c0 <emmc_exec_cmd+0x2d8>  // b.any
   16024:	b9409f80 	ldr	w0, [x28, #156]
   16028:	b9006fe3 	str	w3, [sp, #108]
   1602c:	7100041f 	cmp	w0, #0x1
   16030:	54ffc420 	b.eq	158b4 <emmc_exec_cmd+0x4cc>  // b.none
   16034:	94000041 	bl	16138 <emmc_interrupt>
   16038:	b940a39a 	ldr	w26, [x28, #160]
   1603c:	b9406fe3 	ldr	w3, [sp, #108]
   16040:	7100075f 	cmp	w26, #0x1
   16044:	54000100 	b.eq	16064 <emmc_exec_cmd+0xc7c>  // b.none
   16048:	2a0303f3 	mov	w19, w3
   1604c:	17fffd9d 	b	156c0 <emmc_exec_cmd+0x2d8>
   16050:	363ff860 	tbz	w0, #7, 15f5c <emmc_exec_cmd+0xb74>
   16054:	d0000020 	adrp	x0, 1c000 <vprintf+0x418>
   16058:	9116a000 	add	x0, x0, #0x5a8
   1605c:	94001381 	bl	1ae60 <tf_log>
   16060:	17ffffbf 	b	15f5c <emmc_exec_cmd+0xb74>
   16064:	b9409f80 	ldr	w0, [x28, #156]
   16068:	7100041f 	cmp	w0, #0x1
   1606c:	54ffc240 	b.eq	158b4 <emmc_exec_cmd+0x4cc>  // b.none
   16070:	94000032 	bl	16138 <emmc_interrupt>
   16074:	b940a393 	ldr	w19, [x28, #160]
   16078:	7100067f 	cmp	w19, #0x1
   1607c:	54ffd200 	b.eq	15abc <emmc_exec_cmd+0x6d4>  // b.none
   16080:	2a1a03f3 	mov	w19, w26
   16084:	17fffd8f 	b	156c0 <emmc_exec_cmd+0x2d8>

0000000000016088 <emmc_memcard_power>:
   16088:	12001c00 	and	w0, w0, #0xff
   1608c:	7100041f 	cmp	w0, #0x1
   16090:	540000e0 	b.eq	160ac <emmc_memcard_power+0x24>  // b.none
   16094:	d0000040 	adrp	x0, 20000 <__STACKS_START__+0x700>
   16098:	9128c000 	add	x0, x0, #0xa30
   1609c:	b900681f 	str	wzr, [x0, #104]
   160a0:	f9003c1f 	str	xzr, [x0, #120]
   160a4:	52800020 	mov	w0, #0x1                   	// #1
   160a8:	d65f03c0 	ret
   160ac:	d0000041 	adrp	x1, 20000 <__STACKS_START__+0x700>
   160b0:	b90a9820 	str	w0, [x1, #2712]
   160b4:	52800020 	mov	w0, #0x1                   	// #1
   160b8:	d65f03c0 	ret
   160bc:	00000000 	.inst	0x00000000 ; undefined

00000000000160c0 <emmc_init>:
   160c0:	d0000041 	adrp	x1, 20000 <__STACKS_START__+0x700>
   160c4:	9128c021 	add	x1, x1, #0xa30
   160c8:	aa0103e0 	mov	x0, x1
   160cc:	910cc022 	add	x2, x1, #0x330
   160d0:	3800141f 	strb	wzr, [x0], #1
   160d4:	eb02001f 	cmp	x0, x2
   160d8:	54ffffc1 	b.ne	160d0 <emmc_init+0x10>  // b.any
   160dc:	d2800e04 	mov	x4, #0x70                  	// #112
   160e0:	d2800f03 	mov	x3, #0x78                  	// #120
   160e4:	f2a23804 	movk	x4, #0x11c0, lsl #16
   160e8:	f2a23803 	movk	x3, #0x11c0, lsl #16
   160ec:	d2801002 	mov	x2, #0x80                  	// #128
   160f0:	52810000 	mov	w0, #0x800                 	// #2048
   160f4:	f2a23802 	movk	x2, #0x11c0, lsl #16
   160f8:	b900009f 	str	wzr, [x4]
   160fc:	b9000060 	str	w0, [x3]
   16100:	b900005f 	str	wzr, [x2]
   16104:	b9001880 	str	w0, [x4, #24]
   16108:	52981dc0 	mov	w0, #0xc0ee                	// #49390
   1610c:	b903187f 	str	wzr, [x3, #792]
   16110:	52800803 	mov	w3, #0x40                  	// #64
   16114:	b9002040 	str	w0, [x2, #32]
   16118:	52800022 	mov	w2, #0x1                   	// #1
   1611c:	b900209f 	str	wzr, [x4, #32]
   16120:	2a0203e0 	mov	w0, w2
   16124:	b900403f 	str	wzr, [x1, #64]
   16128:	b900643f 	str	wzr, [x1, #100]
   1612c:	b9007022 	str	w2, [x1, #112]
   16130:	2916fc23 	stp	w3, wzr, [x1, #180]
   16134:	d65f03c0 	ret

0000000000016138 <emmc_interrupt>:
   16138:	a9be7bfd 	stp	x29, x30, [sp, #-32]!
   1613c:	d2800e02 	mov	x2, #0x70                  	// #112
   16140:	f2a23802 	movk	x2, #0x11c0, lsl #16
   16144:	910003fd 	mov	x29, sp
   16148:	b9400040 	ldr	w0, [x2]
   1614c:	d2800f01 	mov	x1, #0x78                  	// #120
   16150:	f9000bf3 	str	x19, [sp, #16]
   16154:	d0000053 	adrp	x19, 20000 <__STACKS_START__+0x700>
   16158:	9128c273 	add	x19, x19, #0xa30
   1615c:	f2a23801 	movk	x1, #0x11c0, lsl #16
   16160:	d2801004 	mov	x4, #0x80                  	// #128
   16164:	d2801103 	mov	x3, #0x88                  	// #136
   16168:	f2a23804 	movk	x4, #0x11c0, lsl #16
   1616c:	f2a23803 	movk	x3, #0x11c0, lsl #16
   16170:	b9000660 	str	w0, [x19, #4]
   16174:	d280160b 	mov	x11, #0xb0                  	// #176
   16178:	f2a2380b 	movk	x11, #0x11c0, lsl #16
   1617c:	d280170a 	mov	x10, #0xb8                  	// #184
   16180:	b9400020 	ldr	w0, [x1]
   16184:	f2a2380a 	movk	x10, #0x11c0, lsl #16
   16188:	b9000a60 	str	w0, [x19, #8]
   1618c:	d2810806 	mov	x6, #0x840                 	// #2112
   16190:	f2a23806 	movk	x6, #0x11c0, lsl #16
   16194:	d2810a05 	mov	x5, #0x850                 	// #2128
   16198:	b9400660 	ldr	w0, [x19, #4]
   1619c:	f2a23805 	movk	x5, #0x11c0, lsl #16
   161a0:	b940008c 	ldr	w12, [x4]
   161a4:	d2810909 	mov	x9, #0x848                 	// #2120
   161a8:	f2a23809 	movk	x9, #0x11c0, lsl #16
   161ac:	d2810b08 	mov	x8, #0x858                 	// #2136
   161b0:	0a0c0000 	and	w0, w0, w12
   161b4:	b900be60 	str	w0, [x19, #188]
   161b8:	f2a23808 	movk	x8, #0x11c0, lsl #16
   161bc:	52900fe7 	mov	w7, #0x807f                	// #32895
   161c0:	b9400a60 	ldr	w0, [x19, #8]
   161c4:	b940006c 	ldr	w12, [x3]
   161c8:	0a0c0000 	and	w0, w0, w12
   161cc:	b900c260 	str	w0, [x19, #192]
   161d0:	b9400160 	ldr	w0, [x11]
   161d4:	b9000e60 	str	w0, [x19, #12]
   161d8:	b9400140 	ldr	w0, [x10]
   161dc:	b9001260 	str	w0, [x19, #16]
   161e0:	b94000c0 	ldr	w0, [x6]
   161e4:	b9001660 	str	w0, [x19, #20]
   161e8:	b94000a0 	ldr	w0, [x5]
   161ec:	b9001a60 	str	w0, [x19, #24]
   161f0:	b9401660 	ldr	w0, [x19, #20]
   161f4:	b9400129 	ldr	w9, [x9]
   161f8:	0a090000 	and	w0, w0, w9
   161fc:	b900c660 	str	w0, [x19, #196]
   16200:	b9401a60 	ldr	w0, [x19, #24]
   16204:	b9400108 	ldr	w8, [x8]
   16208:	0a080000 	and	w0, w0, w8
   1620c:	b900ca60 	str	w0, [x19, #200]
   16210:	b940c260 	ldr	w0, [x19, #192]
   16214:	6a07001f 	tst	w0, w7
   16218:	54000160 	b.eq	16244 <emmc_interrupt+0x10c>  // b.none
   1621c:	b900009f 	str	wzr, [x4]
   16220:	52810000 	mov	w0, #0x800                 	// #2048
   16224:	b9000060 	str	w0, [x3]
   16228:	b900005f 	str	wzr, [x2]
   1622c:	b9000020 	str	w0, [x1]
   16230:	b900a27f 	str	wzr, [x19, #160]
   16234:	52800000 	mov	w0, #0x0                   	// #0
   16238:	f9400bf3 	ldr	x19, [sp, #16]
   1623c:	a8c27bfd 	ldp	x29, x30, [sp], #32
   16240:	d65f03c0 	ret
   16244:	b940c260 	ldr	w0, [x19, #192]
   16248:	7218041f 	tst	w0, #0x300
   1624c:	540004a0 	b.eq	162e0 <emmc_interrupt+0x1a8>  // b.none
   16250:	b940c260 	ldr	w0, [x19, #192]
   16254:	37480920 	tbnz	w0, #9, 16378 <emmc_interrupt+0x240>
   16258:	b9400020 	ldr	w0, [x1]
   1625c:	12177800 	and	w0, w0, #0xfffffeff
   16260:	b9000020 	str	w0, [x1]
   16264:	f9401a63 	ldr	x3, [x19, #48]
   16268:	b9404a60 	ldr	w0, [x19, #72]
   1626c:	b4000f03 	cbz	x3, 1644c <emmc_interrupt+0x314>
   16270:	b9409261 	ldr	w1, [x19, #144]
   16274:	91200068 	add	x8, x3, #0x800
   16278:	7100043f 	cmp	w1, #0x1
   1627c:	54000941 	b.ne	163a4 <emmc_interrupt+0x26c>  // b.any
   16280:	34000dc0 	cbz	w0, 16438 <emmc_interrupt+0x300>
   16284:	53037c04 	lsr	w4, w0, #3
   16288:	34000824 	cbz	w4, 1638c <emmc_interrupt+0x254>
   1628c:	d2800f01 	mov	x1, #0x78                  	// #120
   16290:	d2801805 	mov	x5, #0xc0                  	// #192
   16294:	d2800000 	mov	x0, #0x0                   	// #0
   16298:	f2a23801 	movk	x1, #0x11c0, lsl #16
   1629c:	52900fe7 	mov	w7, #0x807f                	// #32895
   162a0:	f2a23805 	movk	x5, #0x11c0, lsl #16
   162a4:	b9402666 	ldr	w6, [x19, #36]
   162a8:	14000009 	b	162cc <emmc_interrupt+0x194>
   162ac:	f240141f 	tst	x0, #0x3f
   162b0:	7a400804 	ccmp	w0, #0x0, #0x4, eq  // eq = none
   162b4:	540003c1 	b.ne	1632c <emmc_interrupt+0x1f4>  // b.any
   162b8:	f94000a2 	ldr	x2, [x5]
   162bc:	f8207862 	str	x2, [x3, x0, lsl #3]
   162c0:	91000400 	add	x0, x0, #0x1
   162c4:	6b00009f 	cmp	w4, w0
   162c8:	54000609 	b.ls	16388 <emmc_interrupt+0x250>  // b.plast
   162cc:	710004df 	cmp	w6, #0x1
   162d0:	54fffee1 	b.ne	162ac <emmc_interrupt+0x174>  // b.any
   162d4:	f8607862 	ldr	x2, [x3, x0, lsl #3]
   162d8:	f90000a2 	str	x2, [x5]
   162dc:	17fffff9 	b	162c0 <emmc_interrupt+0x188>
   162e0:	b940c660 	ldr	w0, [x19, #196]
   162e4:	36800300 	tbz	w0, #16, 16344 <emmc_interrupt+0x20c>
   162e8:	b90000df 	str	wzr, [x6]
   162ec:	b90000bf 	str	wzr, [x5]
   162f0:	b9400020 	ldr	w0, [x1]
   162f4:	12167800 	and	w0, w0, #0xfffffdff
   162f8:	b9000020 	str	w0, [x1]
   162fc:	b940ca60 	ldr	w0, [x19, #200]
   16300:	36800340 	tbz	w0, #16, 16368 <emmc_interrupt+0x230>
   16304:	52800020 	mov	w0, #0x1                   	// #1
   16308:	b9009a60 	str	w0, [x19, #152]
   1630c:	b900a27f 	str	wzr, [x19, #160]
   16310:	52800000 	mov	w0, #0x0                   	// #0
   16314:	f9400bf3 	ldr	x19, [sp, #16]
   16318:	a8c27bfd 	ldp	x29, x30, [sp], #32
   1631c:	d65f03c0 	ret
   16320:	b9400022 	ldr	w2, [x1]
   16324:	6a07005f 	tst	w2, w7
   16328:	540009e1 	b.ne	16464 <emmc_interrupt+0x32c>  // b.any
   1632c:	b9400022 	ldr	w2, [x1]
   16330:	3647ff82 	tbz	w2, #8, 16320 <emmc_interrupt+0x1e8>
   16334:	b9400022 	ldr	w2, [x1]
   16338:	12177842 	and	w2, w2, #0xfffffeff
   1633c:	b9000022 	str	w2, [x1]
   16340:	17ffffde 	b	162b8 <emmc_interrupt+0x180>
   16344:	b940c660 	ldr	w0, [x19, #196]
   16348:	36a005c0 	tbz	w0, #20, 16400 <emmc_interrupt+0x2c8>
   1634c:	b90000df 	str	wzr, [x6]
   16350:	b90000bf 	str	wzr, [x5]
   16354:	b9400020 	ldr	w0, [x1]
   16358:	12177800 	and	w0, w0, #0xfffffeff
   1635c:	b9000020 	str	w0, [x1]
   16360:	b940ca60 	ldr	w0, [x19, #200]
   16364:	378ffd00 	tbnz	w0, #17, 16304 <emmc_interrupt+0x1cc>
   16368:	b900967f 	str	wzr, [x19, #148]
   1636c:	b900927f 	str	wzr, [x19, #144]
   16370:	b900a27f 	str	wzr, [x19, #160]
   16374:	17ffffe7 	b	16310 <emmc_interrupt+0x1d8>
   16378:	b9400020 	ldr	w0, [x1]
   1637c:	12167800 	and	w0, w0, #0xfffffdff
   16380:	b9000020 	str	w0, [x1]
   16384:	17ffffb8 	b	16264 <emmc_interrupt+0x12c>
   16388:	b9404a60 	ldr	w0, [x19, #72]
   1638c:	b900927f 	str	wzr, [x19, #144]
   16390:	51080000 	sub	w0, w0, #0x200
   16394:	f9001a68 	str	x8, [x19, #48]
   16398:	b9004a60 	str	w0, [x19, #72]
   1639c:	b900a27f 	str	wzr, [x19, #160]
   163a0:	17ffffdc 	b	16310 <emmc_interrupt+0x1d8>
   163a4:	51080000 	sub	w0, w0, #0x200
   163a8:	528001e1 	mov	w1, #0xf                   	// #15
   163ac:	f9001a68 	str	x8, [x19, #48]
   163b0:	b9004a60 	str	w0, [x19, #72]
   163b4:	52800000 	mov	w0, #0x0                   	// #0
   163b8:	9400038a 	bl	171e0 <emmc_write_error_info>
   163bc:	d2801000 	mov	x0, #0x80                  	// #128
   163c0:	d2801103 	mov	x3, #0x88                  	// #136
   163c4:	f2a23800 	movk	x0, #0x11c0, lsl #16
   163c8:	f2a23803 	movk	x3, #0x11c0, lsl #16
   163cc:	d2800e01 	mov	x1, #0x70                  	// #112
   163d0:	d2800f02 	mov	x2, #0x78                  	// #120
   163d4:	f2a23801 	movk	x1, #0x11c0, lsl #16
   163d8:	b900001f 	str	wzr, [x0]
   163dc:	f2a23802 	movk	x2, #0x11c0, lsl #16
   163e0:	52810000 	mov	w0, #0x800                 	// #2048
   163e4:	b9000060 	str	w0, [x3]
   163e8:	b900003f 	str	wzr, [x1]
   163ec:	52800021 	mov	w1, #0x1                   	// #1
   163f0:	b9000040 	str	w0, [x2]
   163f4:	b9009e61 	str	w1, [x19, #156]
   163f8:	b900a27f 	str	wzr, [x19, #160]
   163fc:	17ffffc5 	b	16310 <emmc_interrupt+0x1d8>
   16400:	b940be60 	ldr	w0, [x19, #188]
   16404:	37000100 	tbnz	w0, #0, 16424 <emmc_interrupt+0x2ec>
   16408:	b940be60 	ldr	w0, [x19, #188]
   1640c:	3617f140 	tbz	w0, #2, 16234 <emmc_interrupt+0xfc>
   16410:	b9400040 	ldr	w0, [x2]
   16414:	121d7800 	and	w0, w0, #0xfffffffb
   16418:	b9000040 	str	w0, [x2]
   1641c:	b900a27f 	str	wzr, [x19, #160]
   16420:	17ffff85 	b	16234 <emmc_interrupt+0xfc>
   16424:	b9400040 	ldr	w0, [x2]
   16428:	121f7800 	and	w0, w0, #0xfffffffe
   1642c:	b9000040 	str	w0, [x2]
   16430:	b900a27f 	str	wzr, [x19, #160]
   16434:	17ffffb7 	b	16310 <emmc_interrupt+0x1d8>
   16438:	12803fe0 	mov	w0, #0xfffffe00            	// #-512
   1643c:	528001e1 	mov	w1, #0xf                   	// #15
   16440:	f9001a68 	str	x8, [x19, #48]
   16444:	b9004a60 	str	w0, [x19, #72]
   16448:	17ffffdb 	b	163b4 <emmc_interrupt+0x27c>
   1644c:	51080000 	sub	w0, w0, #0x200
   16450:	d2810002 	mov	x2, #0x800                 	// #2048
   16454:	52800121 	mov	w1, #0x9                   	// #9
   16458:	f9001a62 	str	x2, [x19, #48]
   1645c:	b9004a60 	str	w0, [x19, #72]
   16460:	17ffffd5 	b	163b4 <emmc_interrupt+0x27c>
   16464:	b9404a60 	ldr	w0, [x19, #72]
   16468:	52800181 	mov	w1, #0xc                   	// #12
   1646c:	f9001a68 	str	x8, [x19, #48]
   16470:	51080000 	sub	w0, w0, #0x200
   16474:	b9004a60 	str	w0, [x19, #72]
   16478:	17ffffcf 	b	163b4 <emmc_interrupt+0x27c>
   1647c:	00000000 	.inst	0x00000000 ; undefined

0000000000016480 <emmc_set_timeout_register_value>:
   16480:	7100801f 	cmp	w0, #0x20
   16484:	540003e0 	b.eq	16500 <emmc_set_timeout_register_value+0x80>  // b.none
   16488:	540001a9 	b.ls	164bc <emmc_set_timeout_register_value+0x3c>  // b.plast
   1648c:	7102001f 	cmp	w0, #0x80
   16490:	52801001 	mov	w1, #0x80                  	// #128
   16494:	54000100 	b.eq	164b4 <emmc_set_timeout_register_value+0x34>  // b.none
   16498:	540002a9 	b.ls	164ec <emmc_set_timeout_register_value+0x6c>  // b.plast
   1649c:	7104001f 	cmp	w0, #0x100
   164a0:	52800e01 	mov	w1, #0x70                  	// #112
   164a4:	54000080 	b.eq	164b4 <emmc_set_timeout_register_value+0x34>  // b.none
   164a8:	7108001f 	cmp	w0, #0x200
   164ac:	52801c00 	mov	w0, #0xe0                  	// #224
   164b0:	1a800021 	csel	w1, w1, w0, eq  // eq = none
   164b4:	2a0103e0 	mov	w0, w1
   164b8:	d65f03c0 	ret
   164bc:	7100201f 	cmp	w0, #0x8
   164c0:	52801801 	mov	w1, #0xc0                  	// #192
   164c4:	54ffff80 	b.eq	164b4 <emmc_set_timeout_register_value+0x34>  // b.none
   164c8:	7100401f 	cmp	w0, #0x10
   164cc:	52801601 	mov	w1, #0xb0                  	// #176
   164d0:	54ffff20 	b.eq	164b4 <emmc_set_timeout_register_value+0x34>  // b.none
   164d4:	7100101f 	cmp	w0, #0x4
   164d8:	52801a01 	mov	w1, #0xd0                  	// #208
   164dc:	52801c00 	mov	w0, #0xe0                  	// #224
   164e0:	1a800021 	csel	w1, w1, w0, eq  // eq = none
   164e4:	2a0103e0 	mov	w0, w1
   164e8:	d65f03c0 	ret
   164ec:	7101001f 	cmp	w0, #0x40
   164f0:	52801201 	mov	w1, #0x90                  	// #144
   164f4:	52801c00 	mov	w0, #0xe0                  	// #224
   164f8:	1a800021 	csel	w1, w1, w0, eq  // eq = none
   164fc:	17ffffee 	b	164b4 <emmc_set_timeout_register_value+0x34>
   16500:	52801401 	mov	w1, #0xa0                  	// #160
   16504:	17ffffec 	b	164b4 <emmc_set_timeout_register_value+0x34>

0000000000016508 <emmc_clock_ctrl.part.0>:
   16508:	a9bf7bfd 	stp	x29, x30, [sp, #-16]!
   1650c:	52800241 	mov	w1, #0x12                  	// #18
   16510:	52800180 	mov	w0, #0xc                   	// #12
   16514:	910003fd 	mov	x29, sp
   16518:	94000332 	bl	171e0 <emmc_write_error_info>
   1651c:	52800000 	mov	w0, #0x0                   	// #0
   16520:	a8c17bfd 	ldp	x29, x30, [sp], #16
   16524:	d65f03c0 	ret

0000000000016528 <emmc_set_ext_csd>:
   16528:	a9be7bfd 	stp	x29, x30, [sp, #-32]!
   1652c:	2a0003e1 	mov	w1, w0
   16530:	529440c0 	mov	w0, #0xa206                	// #41478
   16534:	910003fd 	mov	x29, sp
   16538:	f9000bf3 	str	x19, [sp, #16]
   1653c:	d0000053 	adrp	x19, 20000 <__STACKS_START__+0x700>
   16540:	9128c273 	add	x19, x19, #0xa30
   16544:	9400033b 	bl	17230 <emmc_make_nontrans_cmd>
   16548:	529c1000 	mov	w0, #0xe080                	// #57472
   1654c:	72bfb7e0 	movk	w0, #0xfdbf, lsl #16
   16550:	f9406a61 	ldr	x1, [x19, #208]
   16554:	97fffba5 	bl	153e8 <emmc_exec_cmd>
   16558:	7100041f 	cmp	w0, #0x1
   1655c:	54000080 	b.eq	1656c <emmc_set_ext_csd+0x44>  // b.none
   16560:	f9400bf3 	ldr	x19, [sp, #16]
   16564:	a8c27bfd 	ldp	x29, x30, [sp], #32
   16568:	d65f03c0 	ret
   1656c:	52a00021 	mov	w1, #0x10000               	// #65536
   16570:	528421a0 	mov	w0, #0x210d                	// #8461
   16574:	9400032f 	bl	17230 <emmc_make_nontrans_cmd>
   16578:	f9406a61 	ldr	x1, [x19, #208]
   1657c:	529c1000 	mov	w0, #0xe080                	// #57472
   16580:	72bfb7e0 	movk	w0, #0xfdbf, lsl #16
   16584:	97fffb99 	bl	153e8 <emmc_exec_cmd>
   16588:	7100041f 	cmp	w0, #0x1
   1658c:	54fffea1 	b.ne	16560 <emmc_set_ext_csd+0x38>  // b.any
   16590:	2a0003e5 	mov	w5, w0
   16594:	52800004 	mov	w4, #0x0                   	// #0
   16598:	52804003 	mov	w3, #0x200                 	// #512
   1659c:	52800001 	mov	w1, #0x0                   	// #0
   165a0:	52982100 	mov	w0, #0xc108                	// #49416
   165a4:	d0000042 	adrp	x2, 20000 <__STACKS_START__+0x700>
   165a8:	912d2042 	add	x2, x2, #0xb48
   165ac:	94000361 	bl	17330 <emmc_make_trans_cmd>
   165b0:	f9406a61 	ldr	x1, [x19, #208]
   165b4:	529c1000 	mov	w0, #0xe080                	// #57472
   165b8:	f9400bf3 	ldr	x19, [sp, #16]
   165bc:	72bfb7e0 	movk	w0, #0xfdbf, lsl #16
   165c0:	a8c27bfd 	ldp	x29, x30, [sp], #32
   165c4:	17fffb89 	b	153e8 <emmc_exec_cmd>

00000000000165c8 <emmc_select_partition>:
   165c8:	d0000041 	adrp	x1, 20000 <__STACKS_START__+0x700>
   165cc:	9128c021 	add	x1, x1, #0xa30
   165d0:	a9bf7bfd 	stp	x29, x30, [sp, #-16]!
   165d4:	910003fd 	mov	x29, sp
   165d8:	b9407822 	ldr	w2, [x1, #120]
   165dc:	7100045f 	cmp	w2, #0x1
   165e0:	54000201 	b.ne	16620 <emmc_select_partition+0x58>  // b.any
   165e4:	721d701f 	tst	w0, #0xfffffff8
   165e8:	540002a1 	b.ne	1663c <emmc_select_partition+0x74>  // b.any
   165ec:	39472c21 	ldrb	w1, [x1, #459]
   165f0:	12000823 	and	w3, w1, #0x7
   165f4:	6b00007f 	cmp	w3, w0
   165f8:	54000081 	b.ne	16608 <emmc_select_partition+0x40>  // b.any
   165fc:	2a0203e0 	mov	w0, w2
   16600:	a8c17bfd 	ldp	x29, x30, [sp], #16
   16604:	d65f03c0 	ret
   16608:	a8c17bfd 	ldp	x29, x30, [sp], #16
   1660c:	121d7021 	and	w1, w1, #0xfffffff8
   16610:	2a000020 	orr	w0, w1, w0
   16614:	52a07662 	mov	w2, #0x3b30000             	// #62062592
   16618:	2a002040 	orr	w0, w2, w0, lsl #8
   1661c:	17ffffc3 	b	16528 <emmc_set_ext_csd>
   16620:	528001e1 	mov	w1, #0xf                   	// #15
   16624:	52800000 	mov	w0, #0x0                   	// #0
   16628:	940002ee 	bl	171e0 <emmc_write_error_info>
   1662c:	528001e2 	mov	w2, #0xf                   	// #15
   16630:	2a0203e0 	mov	w0, w2
   16634:	a8c17bfd 	ldp	x29, x30, [sp], #16
   16638:	d65f03c0 	ret
   1663c:	52800121 	mov	w1, #0x9                   	// #9
   16640:	52800000 	mov	w0, #0x0                   	// #0
   16644:	940002e7 	bl	171e0 <emmc_write_error_info>
   16648:	52800122 	mov	w2, #0x9                   	// #9
   1664c:	17ffffec 	b	165fc <emmc_select_partition+0x34>

0000000000016650 <emmc_set_request_mmc_clock>:
   16650:	a9bf7bfd 	stp	x29, x30, [sp, #-16]!
   16654:	910003fd 	mov	x29, sp
   16658:	b4000b60 	cbz	x0, 167c4 <emmc_set_request_mmc_clock+0x174>
   1665c:	d0000041 	adrp	x1, 20000 <__STACKS_START__+0x700>
   16660:	9128c021 	add	x1, x1, #0xa30
   16664:	b9407022 	ldr	w2, [x1, #112]
   16668:	7100045f 	cmp	w2, #0x1
   1666c:	540005a1 	b.ne	16720 <emmc_set_request_mmc_clock+0xd0>  // b.any
   16670:	b9406824 	ldr	w4, [x1, #104]
   16674:	7100049f 	cmp	w4, #0x1
   16678:	54000541 	b.ne	16720 <emmc_set_request_mmc_clock+0xd0>  // b.any
   1667c:	b9406c22 	ldr	w2, [x1, #108]
   16680:	7100045f 	cmp	w2, #0x1
   16684:	540007e0 	b.eq	16780 <emmc_set_request_mmc_clock+0x130>  // b.none
   16688:	d2800f02 	mov	x2, #0x78                  	// #120
   1668c:	f2a23802 	movk	x2, #0x11c0, lsl #16
   16690:	b9400042 	ldr	w2, [x2]
   16694:	37700862 	tbnz	w2, #14, 167a0 <emmc_set_request_mmc_clock+0x150>
   16698:	d2801202 	mov	x2, #0x90                  	// #144
   1669c:	b9400003 	ldr	w3, [x0]
   166a0:	f2a23802 	movk	x2, #0x11c0, lsl #16
   166a4:	7100807f 	cmp	w3, #0x20
   166a8:	b9400042 	ldr	w2, [x2]
   166ac:	12185c42 	and	w2, w2, #0xffffff00
   166b0:	54000a40 	b.eq	167f8 <emmc_set_request_mmc_clock+0x1a8>  // b.none
   166b4:	54000449 	b.ls	1673c <emmc_set_request_mmc_clock+0xec>  // b.plast
   166b8:	7102007f 	cmp	w3, #0x80
   166bc:	54000960 	b.eq	167e8 <emmc_set_request_mmc_clock+0x198>  // b.none
   166c0:	54000589 	b.ls	16770 <emmc_set_request_mmc_clock+0x120>  // b.plast
   166c4:	7104007f 	cmp	w3, #0x100
   166c8:	540008c0 	b.eq	167e0 <emmc_set_request_mmc_clock+0x190>  // b.none
   166cc:	7108007f 	cmp	w3, #0x200
   166d0:	32190040 	orr	w0, w2, #0x80
   166d4:	1a820002 	csel	w2, w0, w2, eq  // eq = none
   166d8:	d2801205 	mov	x5, #0x90                  	// #144
   166dc:	b9006023 	str	w3, [x1, #96]
   166e0:	f2a23805 	movk	x5, #0x11c0, lsl #16
   166e4:	d2800f00 	mov	x0, #0x78                  	// #120
   166e8:	f2a23800 	movk	x0, #0x11c0, lsl #16
   166ec:	b90000a2 	str	w2, [x5]
   166f0:	b9006c3f 	str	wzr, [x1, #108]
   166f4:	b9400000 	ldr	w0, [x0]
   166f8:	37700620 	tbnz	w0, #14, 167bc <emmc_set_request_mmc_clock+0x16c>
   166fc:	b94000a0 	ldr	w0, [x5]
   16700:	52800022 	mov	w2, #0x1                   	// #1
   16704:	b9006c22 	str	w2, [x1, #108]
   16708:	12002400 	and	w0, w0, #0x3ff
   1670c:	32180000 	orr	w0, w0, #0x100
   16710:	b90000a0 	str	w0, [x5]
   16714:	2a0403e0 	mov	w0, w4
   16718:	a8c17bfd 	ldp	x29, x30, [sp], #16
   1671c:	d65f03c0 	ret
   16720:	528001e1 	mov	w1, #0xf                   	// #15
   16724:	52800180 	mov	w0, #0xc                   	// #12
   16728:	940002ae 	bl	171e0 <emmc_write_error_info>
   1672c:	528001e4 	mov	w4, #0xf                   	// #15
   16730:	2a0403e0 	mov	w0, w4
   16734:	a8c17bfd 	ldp	x29, x30, [sp], #16
   16738:	d65f03c0 	ret
   1673c:	7100107f 	cmp	w3, #0x4
   16740:	54000580 	b.eq	167f0 <emmc_set_request_mmc_clock+0x1a0>  // b.none
   16744:	540000e9 	b.ls	16760 <emmc_set_request_mmc_clock+0x110>  // b.plast
   16748:	7100207f 	cmp	w3, #0x8
   1674c:	54000460 	b.eq	167d8 <emmc_set_request_mmc_clock+0x188>  // b.none
   16750:	7100407f 	cmp	w3, #0x10
   16754:	321e0040 	orr	w0, w2, #0x4
   16758:	1a820002 	csel	w2, w0, w2, eq  // eq = none
   1675c:	17ffffdf 	b	166d8 <emmc_set_request_mmc_clock+0x88>
   16760:	7100047f 	cmp	w3, #0x1
   16764:	32001c40 	orr	w0, w2, #0xff
   16768:	1a820002 	csel	w2, w0, w2, eq  // eq = none
   1676c:	17ffffdb 	b	166d8 <emmc_set_request_mmc_clock+0x88>
   16770:	7101007f 	cmp	w3, #0x40
   16774:	321c0040 	orr	w0, w2, #0x10
   16778:	1a820002 	csel	w2, w0, w2, eq  // eq = none
   1677c:	17ffffd7 	b	166d8 <emmc_set_request_mmc_clock+0x88>
   16780:	b9400002 	ldr	w2, [x0]
   16784:	b9406023 	ldr	w3, [x1, #96]
   16788:	6b02007f 	cmp	w3, w2
   1678c:	54fffd20 	b.eq	16730 <emmc_set_request_mmc_clock+0xe0>  // b.none
   16790:	d2800f02 	mov	x2, #0x78                  	// #120
   16794:	f2a23802 	movk	x2, #0x11c0, lsl #16
   16798:	b9400042 	ldr	w2, [x2]
   1679c:	3677f7e2 	tbz	w2, #14, 16698 <emmc_set_request_mmc_clock+0x48>
   167a0:	52800241 	mov	w1, #0x12                  	// #18
   167a4:	52800180 	mov	w0, #0xc                   	// #12
   167a8:	9400028e 	bl	171e0 <emmc_write_error_info>
   167ac:	52800004 	mov	w4, #0x0                   	// #0
   167b0:	2a0403e0 	mov	w0, w4
   167b4:	a8c17bfd 	ldp	x29, x30, [sp], #16
   167b8:	d65f03c0 	ret
   167bc:	a8c17bfd 	ldp	x29, x30, [sp], #16
   167c0:	17ffff52 	b	16508 <emmc_clock_ctrl.part.0>
   167c4:	52800121 	mov	w1, #0x9                   	// #9
   167c8:	52800180 	mov	w0, #0xc                   	// #12
   167cc:	94000285 	bl	171e0 <emmc_write_error_info>
   167d0:	52800124 	mov	w4, #0x9                   	// #9
   167d4:	17ffffd7 	b	16730 <emmc_set_request_mmc_clock+0xe0>
   167d8:	321f0042 	orr	w2, w2, #0x2
   167dc:	17ffffbf 	b	166d8 <emmc_set_request_mmc_clock+0x88>
   167e0:	321a0042 	orr	w2, w2, #0x40
   167e4:	17ffffbd 	b	166d8 <emmc_set_request_mmc_clock+0x88>
   167e8:	321b0042 	orr	w2, w2, #0x20
   167ec:	17ffffbb 	b	166d8 <emmc_set_request_mmc_clock+0x88>
   167f0:	32000042 	orr	w2, w2, #0x1
   167f4:	17ffffb9 	b	166d8 <emmc_set_request_mmc_clock+0x88>
   167f8:	321d0042 	orr	w2, w2, #0x8
   167fc:	17ffffb7 	b	166d8 <emmc_set_request_mmc_clock+0x88>

0000000000016800 <emmc_mount>:
   16800:	a9b57bfd 	stp	x29, x30, [sp, #-176]!
   16804:	910003fd 	mov	x29, sp
   16808:	a90153f3 	stp	x19, x20, [sp, #16]
   1680c:	d0000053 	adrp	x19, 20000 <__STACKS_START__+0x700>
   16810:	9128c273 	add	x19, x19, #0xa30
   16814:	b9407260 	ldr	w0, [x19, #112]
   16818:	7100041f 	cmp	w0, #0x1
   1681c:	54000321 	b.ne	16880 <emmc_mount+0x80>  // b.any
   16820:	b9406a60 	ldr	w0, [x19, #104]
   16824:	7100041f 	cmp	w0, #0x1
   16828:	540002c1 	b.ne	16880 <emmc_mount+0x80>  // b.any
   1682c:	d2800f00 	mov	x0, #0x78                  	// #120
   16830:	f2a23800 	movk	x0, #0x11c0, lsl #16
   16834:	b9400001 	ldr	w1, [x0]
   16838:	37700241 	tbnz	w1, #14, 16880 <emmc_mount+0x80>
   1683c:	a9025bf5 	stp	x21, x22, [sp, #32]
   16840:	52804015 	mov	w21, #0x200                 	// #512
   16844:	b9004ff5 	str	w21, [sp, #76]
   16848:	b9400000 	ldr	w0, [x0]
   1684c:	12120014 	and	w20, w0, #0x4000
   16850:	37700280 	tbnz	w0, #14, 168a0 <emmc_mount+0xa0>
   16854:	52800101 	mov	w1, #0x8                   	// #8
   16858:	910133e0 	add	x0, sp, #0x4c
   1685c:	b9005a61 	str	w1, [x19, #88]
   16860:	b900627f 	str	wzr, [x19, #96]
   16864:	97ffff7b 	bl	16650 <emmc_set_request_mmc_clock>
   16868:	2a0003f6 	mov	w22, w0
   1686c:	7100041f 	cmp	w0, #0x1
   16870:	54000440 	b.eq	168f8 <emmc_mount+0xf8>  // b.none
   16874:	52800080 	mov	w0, #0x4                   	// #4
   16878:	94000266 	bl	17210 <emmc_write_error_info_func_no>
   1687c:	1400000d 	b	168b0 <emmc_mount+0xb0>
   16880:	528001e1 	mov	w1, #0xf                   	// #15
   16884:	52800060 	mov	w0, #0x3                   	// #3
   16888:	2a0103f4 	mov	w20, w1
   1688c:	94000255 	bl	171e0 <emmc_write_error_info>
   16890:	2a1403e0 	mov	w0, w20
   16894:	a94153f3 	ldp	x19, x20, [sp, #16]
   16898:	a8cb7bfd 	ldp	x29, x30, [sp], #176
   1689c:	d65f03c0 	ret
   168a0:	528001e1 	mov	w1, #0xf                   	// #15
   168a4:	52800080 	mov	w0, #0x4                   	// #4
   168a8:	2a0103f4 	mov	w20, w1
   168ac:	9400024d 	bl	171e0 <emmc_write_error_info>
   168b0:	52800080 	mov	w0, #0x4                   	// #4
   168b4:	94000257 	bl	17210 <emmc_write_error_info_func_no>
   168b8:	d2800f00 	mov	x0, #0x78                  	// #120
   168bc:	f2a23800 	movk	x0, #0x11c0, lsl #16
   168c0:	b9400000 	ldr	w0, [x0]
   168c4:	37700960 	tbnz	w0, #14, 169f0 <emmc_mount+0x1f0>
   168c8:	d2801201 	mov	x1, #0x90                  	// #144
   168cc:	b9006e7f 	str	wzr, [x19, #108]
   168d0:	f2a23801 	movk	x1, #0x11c0, lsl #16
   168d4:	52805fe2 	mov	w2, #0x2ff                 	// #767
   168d8:	a9425bf5 	ldp	x21, x22, [sp, #32]
   168dc:	b9400020 	ldr	w0, [x1]
   168e0:	0a020000 	and	w0, w0, w2
   168e4:	b9000020 	str	w0, [x1]
   168e8:	2a1403e0 	mov	w0, w20
   168ec:	a94153f3 	ldp	x19, x20, [sp, #16]
   168f0:	a8cb7bfd 	ldp	x29, x30, [sp], #176
   168f4:	d65f03c0 	ret
   168f8:	52807d00 	mov	w0, #0x3e8                 	// #1000
   168fc:	a90363f7 	stp	x23, x24, [sp, #48]
   16900:	97fff086 	bl	12b18 <udelay>
   16904:	d2801400 	mov	x0, #0xa0                  	// #160
   16908:	528c1dc1 	mov	w1, #0x60ee                	// #24814
   1690c:	f2a23800 	movk	x0, #0x11c0, lsl #16
   16910:	2a1503e3 	mov	w3, w21
