
/home/calixto/anzal/rz_atf/rzg_trusted-firmware-a/build/g2l/release/bl2/bl2.elf:     file format elf64-littleaarch64
/home/calixto/anzal/rz_atf/rzg_trusted-firmware-a/build/g2l/release/bl2/bl2.elf
architecture: aarch64, flags 0x00000112:
EXEC_P, HAS_SYMS, D_PAGED
start address 0x0000000000012000

Program Header:
    LOAD off    0x0000000000000000 vaddr 0x0000000000010000 paddr 0x0000000000010000 align 2**16
         filesz 0x000000000000f8c9 memsz 0x0000000000018000 flags rwx
   STACK off    0x0000000000000000 vaddr 0x0000000000000000 paddr 0x0000000000000000 align 2**4
         filesz 0x0000000000000000 memsz 0x0000000000000000 flags rw-
private flags = 0:

Sections:
Idx Name          Size      VMA               LMA               File off  Algn
  0 ro            0000d000  0000000000012000  0000000000012000  00002000  2**11
                  CONTENTS, ALLOC, LOAD, READONLY, CODE
  1 .data         000008c9  000000000001f000  000000000001f000  0000f000  2**3
                  CONTENTS, ALLOC, LOAD, DATA
  2 stacks        00001000  000000000001f900  000000000001f900  0000f8c9  2**6
                  ALLOC
  3 .bss          00000ba0  0000000000020900  0000000000020900  0000f8c9  2**5
                  ALLOC
  4 xlat_table    00006000  0000000000022000  0000000000022000  0000f8c9  2**12
                  ALLOC
  5 .debug_info   0002715a  0000000000000000  0000000000000000  0000f8c9  2**0
                  CONTENTS, READONLY, DEBUGGING
  6 .debug_abbrev 00007041  0000000000000000  0000000000000000  00036a23  2**0
                  CONTENTS, READONLY, DEBUGGING
  7 .debug_aranges 00001710  0000000000000000  0000000000000000  0003da64  2**0
                  CONTENTS, READONLY, DEBUGGING
  8 .debug_line   00010cfc  0000000000000000  0000000000000000  0003f174  2**0
                  CONTENTS, READONLY, DEBUGGING
  9 .debug_str    000054db  0000000000000000  0000000000000000  0004fe70  2**0
                  CONTENTS, READONLY, DEBUGGING
 10 .comment      00000011  0000000000000000  0000000000000000  0005534b  2**0
                  CONTENTS, READONLY
 11 .debug_loc    00024e8d  0000000000000000  0000000000000000  0005535c  2**0
                  CONTENTS, READONLY, DEBUGGING
 12 .debug_ranges 0000f6f0  0000000000000000  0000000000000000  0007a1e9  2**0
                  CONTENTS, READONLY, DEBUGGING
 13 .debug_frame  00000958  0000000000000000  0000000000000000  000898e0  2**3
                  CONTENTS, READONLY, DEBUGGING
SYMBOL TABLE:
0000000000012000 l    d  ro	0000000000000000 ro
000000000001f000 l    d  .data	0000000000000000 .data
000000000001f900 l    d  stacks	0000000000000000 stacks
0000000000020900 l    d  .bss	0000000000000000 .bss
0000000000022000 l    d  xlat_table	0000000000000000 xlat_table
0000000000000000 l    d  .debug_info	0000000000000000 .debug_info
0000000000000000 l    d  .debug_abbrev	0000000000000000 .debug_abbrev
0000000000000000 l    d  .debug_aranges	0000000000000000 .debug_aranges
0000000000000000 l    d  .debug_line	0000000000000000 .debug_line
0000000000000000 l    d  .debug_str	0000000000000000 .debug_str
0000000000000000 l    d  .comment	0000000000000000 .comment
0000000000000000 l    d  .debug_loc	0000000000000000 .debug_loc
0000000000000000 l    d  .debug_ranges	0000000000000000 .debug_ranges
0000000000000000 l    d  .debug_frame	0000000000000000 .debug_frame
0000000000000000 l    df *ABS*	0000000000000000 /home/calixto/anzal/rz_atf/rzg_trusted-firmware-a/build/g2l/release/bl2/bl2_el3_entrypoint.o
0000000000000000 l    df *ABS*	0000000000000000 /home/calixto/anzal/rz_atf/rzg_trusted-firmware-a/build/g2l/release/bl2/bl2_run_next_image.o
0000000000000000 l    df *ABS*	0000000000000000 /home/calixto/anzal/rz_atf/rzg_trusted-firmware-a/build/g2l/release/bl2/cortex_a55.o
0000000000000008 l       *ABS*	0000000000000000 CPU_MIDR_SIZE
0000000000000008 l       *ABS*	0000000000000000 CPU_EXTRA1_FUNC_SIZE
0000000000000008 l       *ABS*	0000000000000000 CPU_EXTRA2_FUNC_SIZE
0000000000000008 l       *ABS*	0000000000000000 CPU_EXTRA3_FUNC_SIZE
0000000000000008 l       *ABS*	0000000000000000 CPU_E_HANDLER_FUNC_SIZE
0000000000000008 l       *ABS*	0000000000000000 CPU_RESET_FUNC_SIZE
0000000000000000 l       *ABS*	0000000000000000 CPU_PWR_DWN_OPS_SIZE
0000000000000000 l       *ABS*	0000000000000000 CPU_ERRATA_FUNC_SIZE
0000000000000000 l       *ABS*	0000000000000000 CPU_ERRATA_LOCK_SIZE
0000000000000000 l       *ABS*	0000000000000000 CPU_ERRATA_PRINTED_SIZE
0000000000000000 l       *ABS*	0000000000000000 CPU_REG_DUMP_SIZE
0000000000000000 l       *ABS*	0000000000000000 CPU_MIDR
0000000000000008 l       *ABS*	0000000000000000 CPU_RESET_FUNC
0000000000000010 l       *ABS*	0000000000000000 CPU_EXTRA1_FUNC
0000000000000018 l       *ABS*	0000000000000000 CPU_EXTRA2_FUNC
0000000000000020 l       *ABS*	0000000000000000 CPU_EXTRA3_FUNC
0000000000000028 l       *ABS*	0000000000000000 CPU_E_HANDLER_FUNC
0000000000000030 l       *ABS*	0000000000000000 CPU_PWR_DWN_OPS
0000000000000030 l       *ABS*	0000000000000000 CPU_ERRATA_FUNC
0000000000000030 l       *ABS*	0000000000000000 CPU_ERRATA_LOCK
0000000000000030 l       *ABS*	0000000000000000 CPU_ERRATA_PRINTED
0000000000000030 l       *ABS*	0000000000000000 CPU_REG_DUMP
0000000000000030 l       *ABS*	0000000000000000 CPU_OPS_SIZE
0000000000012120 l     F ro	0000000000000010 cortex_a55_reset_func
0000000000000000 l    df *ABS*	0000000000000000 /home/calixto/anzal/rz_atf/rzg_trusted-firmware-a/build/g2l/release/bl2/cpu_helpers.o
0000000000000008 l       *ABS*	0000000000000000 CPU_MIDR_SIZE
0000000000000008 l       *ABS*	0000000000000000 CPU_EXTRA1_FUNC_SIZE
0000000000000008 l       *ABS*	0000000000000000 CPU_EXTRA2_FUNC_SIZE
0000000000000008 l       *ABS*	0000000000000000 CPU_EXTRA3_FUNC_SIZE
0000000000000008 l       *ABS*	0000000000000000 CPU_E_HANDLER_FUNC_SIZE
0000000000000008 l       *ABS*	0000000000000000 CPU_RESET_FUNC_SIZE
0000000000000000 l       *ABS*	0000000000000000 CPU_PWR_DWN_OPS_SIZE
0000000000000000 l       *ABS*	0000000000000000 CPU_ERRATA_FUNC_SIZE
0000000000000000 l       *ABS*	0000000000000000 CPU_ERRATA_LOCK_SIZE
0000000000000000 l       *ABS*	0000000000000000 CPU_ERRATA_PRINTED_SIZE
0000000000000000 l       *ABS*	0000000000000000 CPU_REG_DUMP_SIZE
0000000000000000 l       *ABS*	0000000000000000 CPU_MIDR
0000000000000008 l       *ABS*	0000000000000000 CPU_RESET_FUNC
0000000000000010 l       *ABS*	0000000000000000 CPU_EXTRA1_FUNC
0000000000000018 l       *ABS*	0000000000000000 CPU_EXTRA2_FUNC
0000000000000020 l       *ABS*	0000000000000000 CPU_EXTRA3_FUNC
0000000000000028 l       *ABS*	0000000000000000 CPU_E_HANDLER_FUNC
0000000000000030 l       *ABS*	0000000000000000 CPU_PWR_DWN_OPS
0000000000000030 l       *ABS*	0000000000000000 CPU_ERRATA_FUNC
0000000000000030 l       *ABS*	0000000000000000 CPU_ERRATA_LOCK
0000000000000030 l       *ABS*	0000000000000000 CPU_ERRATA_PRINTED
0000000000000030 l       *ABS*	0000000000000000 CPU_REG_DUMP
0000000000000030 l       *ABS*	0000000000000000 CPU_OPS_SIZE
000000000001218c l       ro	0000000000000000 search_def_ptr
0000000000000000 l    df *ABS*	0000000000000000 /home/calixto/anzal/rz_atf/rzg_trusted-firmware-a/build/g2l/release/bl2/platform_up_stack.o
000000000001f900 l       stacks	0000000000000000 platform_normal_stacks
0000000000000006 l       *ABS*	0000000000000000 TZ_COUNT
0000000000000000 l    df *ABS*	0000000000000000 /home/calixto/anzal/rz_atf/rzg_trusted-firmware-a/build/g2l/release/bl2/plat_helpers.o
0000000000000000 l    df *ABS*	0000000000000000 /home/calixto/anzal/rz_atf/rzg_trusted-firmware-a/build/g2l/release/bl2/debug.o
000000000001dfb8 l       ro	0000000000000000 panic_msg
0000000000012218 l       ro	0000000000000000 panic_common
0000000000012240 l       ro	0000000000000000 _panic_handler
0000000000000000 l    df *ABS*	0000000000000000 /home/calixto/anzal/rz_atf/rzg_trusted-firmware-a/build/g2l/release/bl2/cache_helpers.o
000000000001227c l       ro	0000000000000000 exit_loop_civac
0000000000012268 l       ro	0000000000000000 loop_civac
00000000000122b4 l       ro	0000000000000000 exit_loop_ivac
00000000000122a0 l       ro	0000000000000000 loop_ivac
0000000000000000 l    df *ABS*	0000000000000000 /home/calixto/anzal/rz_atf/rzg_trusted-firmware-a/build/g2l/release/bl2/misc_helpers.o
00000000000122c0 l     F ro	00000000000000e8 zeromem_dczva
00000000000123ac l       ro	0000000000000000 do_disable_mmu_el3
0000000000000000 l    df *ABS*	0000000000000000 /home/calixto/anzal/rz_atf/rzg_trusted-firmware-a/build/g2l/release/bl2/platform_helpers.o
0000000000000000 l    df *ABS*	0000000000000000 /home/calixto/anzal/rz_atf/rzg_trusted-firmware-a/build/g2l/release/bl2/enable_mmu.o
0000000000000000 l    df *ABS*	0000000000000000 /home/calixto/anzal/rz_atf/rzg_trusted-firmware-a/build/g2l/release/bl2/scifa.o
000000000001247c l       ro	0000000000000000 register_fail
0000000000012480 l       ro	0000000000000000 l_ret
0000000000000000 l    df *ABS*	0000000000000000 bl2_arch_setup.c
0000000000000000 l    df *ABS*	0000000000000000 bl2_image_load_v2.c
0000000000000000 l    df *ABS*	0000000000000000 bl2_main.c
0000000000000000 l    df *ABS*	0000000000000000 desc_image_load.c
0000000000020900 l     O .bss	0000000000000010 bl_load_info
0000000000020910 l     O .bss	0000000000000010 next_bl_params
0000000000000000 l    df *ABS*	0000000000000000 tzc400.c
0000000000020920 l     O .bss	0000000000000010 tzc400
0000000000000000 l    df *ABS*	0000000000000000 delay_timer.c
0000000000020930 l     O .bss	0000000000000008 timer_ops
0000000000000000 l    df *ABS*	0000000000000000 generic_delay_timer.c
0000000000012b98 l     F ro	000000000000000c get_timer_value
0000000000020938 l     O .bss	0000000000000010 ops
0000000000000000 l    df *ABS*	0000000000000000 io_fip.c
0000000000012c38 l     F ro	0000000000000008 device_type_fip
0000000000012c40 l     F ro	000000000000007c fip_dev_open
0000000000012cc0 l     F ro	0000000000000014 fip_file_len
0000000000012cd8 l     F ro	000000000000005c fip_dev_close
0000000000012d38 l     F ro	0000000000000054 fip_file_close
0000000000012d90 l     F ro	00000000000000b4 fip_dev_init
0000000000012e48 l     F ro	00000000000000b8 fip_file_read
0000000000012f00 l     F ro	0000000000000114 fip_file_open
0000000000020948 l     O .bss	0000000000000008 backend_dev_handle
0000000000020950 l     O .bss	0000000000000008 backend_image_spec
0000000000020958 l     O .bss	0000000000000030 current_fip_file
0000000000020988 l     O .bss	0000000000000010 dev_info_pool
0000000000021440 l     O .bss	0000000000000004 fip_dev_count
0000000000020998 l     O .bss	0000000000000010 state_pool
000000000001c270 l     O ro	0000000000000008 fip_dev_connector
000000000001c278 l     O ro	0000000000000048 fip_dev_funcs
000000000001c2c0 l     O ro	0000000000000010 uuid_null.2068
0000000000000000 l    df *ABS*	0000000000000000 io_memmap.c
0000000000013050 l     F ro	0000000000000008 device_type_memmap
0000000000013058 l     F ro	0000000000000014 memmap_dev_open
0000000000013070 l     F ro	0000000000000008 memmap_dev_close
0000000000013078 l     F ro	0000000000000034 memmap_block_open
00000000000130b0 l     F ro	0000000000000020 memmap_block_seek
00000000000130d0 l     F ro	0000000000000014 memmap_block_len
00000000000130e8 l     F ro	0000000000000028 memmap_block_close
0000000000013110 l     F ro	0000000000000048 memmap_block_write
0000000000013158 l     F ro	000000000000004c memmap_block_read
00000000000209a8 l     O .bss	0000000000000020 current_memmap_file
000000000001f000 l     O .data	0000000000000010 memmap_dev_info
000000000001c2d8 l     O ro	0000000000000048 memmap_dev_funcs
000000000001c2d0 l     O ro	0000000000000008 memmap_dev_connector
0000000000000000 l    df *ABS*	0000000000000000 io_storage.c
00000000000131e0 l     F ro	0000000000000058 free_entity
0000000000021444 l     O .bss	0000000000000004 dev_count
0000000000021448 l     O .bss	0000000000000004 entity_count
00000000000209c8 l     O .bss	0000000000000010 entity_map
00000000000209d8 l     O .bss	0000000000000020 entity_pool
0000000000000000 l    df *ABS*	0000000000000000 bl2_plat_setup.c
00000000000209f8 l     O .bss	0000000000000008 params.2708
0000000000020a00 l     O .bss	0000000000000030 rzg2l_bl31_console
000000000001c320 l     O ro	00000000000000f0 rzg2l_mmap
0000000000000000 l    df *ABS*	0000000000000000 cpg.c
00000000000136f8 l     F ro	0000000000000050 cpg_ctrl_clkrst
000000000001f188 l     O .data	00000000000002e8 cpg_clk_on_tbl
000000000001f470 l     O .data	0000000000000020 cpg_dynamic_select_tbl
000000000001f490 l     O .data	00000000000002e8 cpg_reset_tbl
000000000001f778 l     O .data	0000000000000020 cpg_sel_pll3_3_on_off
000000000001f798 l     O .data	0000000000000020 cpg_static_select_tbl
000000000001c410 l     O ro	0000000000000030 early_setup_tbl
0000000000000000 l    df *ABS*	0000000000000000 ddr.c
0000000000013b00 l     F ro	0000000000000024 disable_phy_clk
0000000000013b28 l     F ro	00000000000001f8 program_mc1
0000000000013d20 l     F ro	00000000000000e4 setup_vref_training_registers
0000000000013e08 l     F ro	000000000000062c exec_trainingVREF
000000000001c440 l     O ro	000000000000000c CSWTCH.42
000000000001c450 l     O ro	000000000000000c CSWTCH.43
000000000001c460 l     O ro	000000000000000c CSWTCH.44
0000000000000000 l    df *ABS*	0000000000000000 emmc_cmd.c
0000000000015278 l     F ro	0000000000000090 emmc_WaitCmd2Cmd_8Cycle
0000000000015308 l     F ro	00000000000000e0 emmc_softreset
0000000000000000 l    df *ABS*	0000000000000000 emmc_init.c
0000000000000000 l    df *ABS*	0000000000000000 emmc_interrupt.c
0000000000000000 l    df *ABS*	0000000000000000 emmc_mount.c
0000000000016480 l     F ro	0000000000000088 emmc_set_timeout_register_value
0000000000016508 l     F ro	0000000000000020 emmc_clock_ctrl.part.0
0000000000000000 l    df *ABS*	0000000000000000 emmc_read.c
0000000000000000 l    df *ABS*	0000000000000000 emmc_utility.c
000000000001c658 l     O ro	00000000000000f4 cmd_reg_hw
0000000000000000 l    df *ABS*	0000000000000000 io_emmcdrv.c
00000000000173f0 l     F ro	0000000000000008 device_type_emmcdrv
00000000000173f8 l     F ro	0000000000000020 emmcdrv_block_seek
0000000000017418 l     F ro	0000000000000014 emmcdrv_dev_open
0000000000017430 l     F ro	0000000000000008 emmcdrv_dev_close
0000000000017438 l     F ro	0000000000000038 emmcdrv_block_close
0000000000017470 l     F ro	00000000000001b0 emmcdrv_block_read
0000000000017620 l     F ro	0000000000000080 emmcdrv_block_open
0000000000020d60 l     O .bss	0000000000000020 current_file
000000000001c800 l     O ro	0000000000000008 emmcdrv_dev_connector
000000000001c808 l     O ro	0000000000000048 emmcdrv_dev_funcs
000000000001c850 l     O ro	0000000000000010 emmcdrv_dev_info
0000000000000000 l    df *ABS*	0000000000000000 io_sddrv.c
00000000000176d8 l     F ro	0000000000000008 device_type_sddrv
00000000000176e0 l     F ro	0000000000000020 sddrv_block_seek
0000000000017700 l     F ro	0000000000000014 sddrv_dev_open
0000000000017718 l     F ro	0000000000000008 sddrv_dev_close
0000000000017720 l     F ro	0000000000000038 sddrv_block_close
0000000000017758 l     F ro	0000000000000068 sddrv_block_open
00000000000177c0 l     F ro	0000000000000198 sddrv_block_read
0000000000020d80 l     O .bss	0000000000000020 current_file
000000000001c888 l     O ro	0000000000000008 sddrv_dev_connector
000000000001c890 l     O ro	0000000000000048 sddrv_dev_funcs
000000000001c8d8 l     O ro	0000000000000010 sddrv_dev_info
0000000000000000 l    df *ABS*	0000000000000000 pfc.c
000000000001c8e8 l     O ro	0000000000000240 pfc_mux_reg_tbl
000000000001cb28 l     O ro	0000000000000240 pfc_sd_reg_tbl
0000000000000000 l    df *ABS*	0000000000000000 boot_esddev.c
000000000001cd68 l     O ro	000000000000001c CSWTCH.6
0000000000000000 l    df *ABS*	0000000000000000 sd_cd.c
0000000000000000 l    df *ABS*	0000000000000000 sd_cmd.c
000000000001cd88 l     O ro	0000000000000040 IOErrTbl
000000000001cdc8 l     O ro	000000000000001c Info2ErrTbl
000000000001cde8 l     O ro	0000000000000040 RespErrTbl
000000000001ce28 l     O ro	0000000000000010 TimeValue
000000000001ce38 l     O ro	0000000000000010 TranSpeed
0000000000000000 l    df *ABS*	0000000000000000 sd_init.c
0000000000000000 l    df *ABS*	0000000000000000 sd_int.c
0000000000000000 l    df *ABS*	0000000000000000 sd_main.c
0000000000020da8 l     O .bss	0000000000000200 sd_drv_rw_buffer
0000000000020fa8 l     O .bss	0000000000000280 sd_drv_work_area
0000000000000000 l    df *ABS*	0000000000000000 sd_mount.c
0000000000018e28 l     F ro	0000000000000044 _sd_calc_erase_sector.part.2
0000000000019518 l     F ro	0000000000000080 _sd_card_query_partitions.constprop.3
0000000000021228 l     O .bss	0000000000000040 stat_buff
0000000000000000 l    df *ABS*	0000000000000000 sd_read.c
0000000000000000 l    df *ABS*	0000000000000000 sd_trns.c
0000000000000000 l    df *ABS*	0000000000000000 sd_util.c
0000000000000000 l    df *ABS*	0000000000000000 spi_multi_device.c
0000000000000000 l    df *ABS*	0000000000000000 spi_multi.c
0000000000000000 l    df *ABS*	0000000000000000 syc.c
0000000000000000 l    df *ABS*	0000000000000000 plat_image_load.c
0000000000000000 l    df *ABS*	0000000000000000 plat_security.c
000000000001cf20 l     O ro	0000000000000108 sys_acctl
0000000000000000 l    df *ABS*	0000000000000000 plat_storage.c
000000000001aa38 l     F ro	0000000000000010 open_emmcdrv
000000000001aa48 l     F ro	0000000000000014 open_fipdrv
000000000001aa60 l     F ro	0000000000000010 open_sddrv
000000000001aa70 l     F ro	0000000000000074 open_memmap
0000000000021268 l     O .bss	0000000000000008 boot_io_drv_id
0000000000021270 l     O .bss	0000000000000008 emmcdrv_dev_handle
0000000000021278 l     O .bss	0000000000000008 fip_dev_handle
0000000000021280 l     O .bss	0000000000000008 memdrv_dev_handle
0000000000021288 l     O .bss	0000000000000008 sddrv_dev_handle
000000000001f7b8 l     O .data	00000000000000a8 policies
000000000001d028 l     O ro	0000000000000010 bl31_file_spec
000000000001d038 l     O ro	0000000000000010 bl32_file_spec
000000000001d048 l     O ro	0000000000000010 bl33_file_spec
000000000001d058 l     O ro	0000000000000018 emmc_block_spec
000000000001d0f0 l     O ro	0000000000000018 sd_block_spec
000000000001d108 l     O ro	0000000000000010 spirom_block_spec
0000000000000000 l    df *ABS*	0000000000000000 ddr_g2l.c
0000000000000000 l    df *ABS*	0000000000000000 bl_common.c
0000000000000000 l    df *ABS*	0000000000000000 tf_log.c
000000000001f8c4 l     O .data	0000000000000004 max_log_level
0000000000000000 l    df *ABS*	0000000000000000 multi_console.c
0000000000000000 l    df *ABS*	0000000000000000 plat_bl_common.c
0000000000000000 l    df *ABS*	0000000000000000 plat_log_common.c
000000000001deb8 l     O ro	0000000000000028 plat_prefix_str
0000000000000000 l    df *ABS*	0000000000000000 xlat_tables_arch.c
0000000000000000 l    df *ABS*	0000000000000000 xlat_tables_context.c
00000000000212b0 l     O .bss	0000000000000190 tf_mmap
000000000001f860 l     O .data	0000000000000060 tf_xlat_ctx
0000000000022000 l     O xlat_table	0000000000006000 tf_xlat_tables
0000000000021480 l     O .bss	0000000000000020 tf_base_xlat_table
0000000000000000 l    df *ABS*	0000000000000000 xlat_tables_core.c
000000000001b398 l     F ro	0000000000000250 xlat_tables_map_region
0000000000000000 l    df *ABS*	0000000000000000 xlat_tables_utils.c
0000000000000000 l    df *ABS*	0000000000000000 plat_rz_common.c
0000000000000000 l    df *ABS*	0000000000000000 memcmp.c
0000000000000000 l    df *ABS*	0000000000000000 memcpy.c
0000000000000000 l    df *ABS*	0000000000000000 memmove.c
0000000000000000 l    df *ABS*	0000000000000000 memset.c
0000000000000000 l    df *ABS*	0000000000000000 printf.c
000000000001bb08 l     F ro	00000000000000dc unsigned_num_print
0000000000000000 l    df *ABS*	0000000000000000 putchar.c
0000000000000000 l    df *ABS*	0000000000000000 
0000000000000000 l    df *ABS*	0000000000000000 param_swizzle_T1bc.c
0000000000000000 l    df *ABS*	0000000000000000 param_mc_C-011_D4-01-1.c
0000000000000000 l    df *ABS*	0000000000000000 /home/calixto/anzal/rz_atf/rzg_trusted-firmware-a/build/g2l/release/bl2/bl2_el3_exceptions.o
000000000001e000 l     F ro	0000000000000000 SynchronousExceptionSP0
000000000001e080 l     F ro	0000000000000000 IrqSP0
000000000001e100 l     F ro	0000000000000000 FiqSP0
000000000001e180 l     F ro	0000000000000000 SErrorSP0
000000000001e200 l     F ro	0000000000000000 SynchronousExceptionSPx
000000000001e280 l     F ro	0000000000000000 IrqSPx
000000000001e300 l     F ro	0000000000000000 FiqSPx
000000000001e380 l     F ro	0000000000000000 SErrorSPx
000000000001e400 l     F ro	0000000000000000 SynchronousExceptionA64
000000000001e480 l     F ro	0000000000000000 IrqA64
000000000001e500 l     F ro	0000000000000000 FiqA64
000000000001e580 l     F ro	0000000000000000 SErrorA64
000000000001e600 l     F ro	0000000000000000 SynchronousExceptionA32
000000000001e680 l     F ro	0000000000000000 IrqA32
000000000001e700 l     F ro	0000000000000000 FiqA32
000000000001e780 l     F ro	0000000000000000 SErrorA32
0000000000000000 l    df *ABS*	0000000000000000 bl2_plat_mem_params_desc.c
000000000001f010 l     O .data	0000000000000170 bl2_mem_params_descs
00000000000192a0 g     F ro	000000000000009c _sd_card_switch_func
000000000001c100 g     F ro	000000000000002c putchar
0000000000013938 g     F ro	00000000000001c4 cpg_setup
000000000001af40 g     F ro	0000000000000018 console_set_scope
0000000000018cd0 g     F ro	000000000000004c esd_check_int
0000000000016528 g     F ro	00000000000000a0 emmc_set_ext_csd
0000000000021480 g       .bss	0000000000000000 __PMF_TIMESTAMP_START__
0000000000017c58 g     F ro	0000000000000008 esddev_init_dma
000000000001af00 g     F ro	000000000000003c console_register
0000000000017958 g     F ro	0000000000000038 register_io_dev_sddrv
0000000000012130 g     F ro	0000000000000020 reset_handler
00000000000122b8 g     F ro	0000000000000008 zeromem
000000000001c150 g     O ro	0000000000000034 version_string
0000000000012210 g     F ro	0000000000000008 asm_print_newline
00000000000138f8 g     F ro	0000000000000040 cpg_early_setup
000000000001b868 g     F ro	0000000000000044 mmap_add_ctx
000000000001ae58 g     F ro	0000000000000004 print_entry_point_info
000000000001a788 g     F ro	0000000000000130 spi_multi_setup
0000000000021298 g     O .bss	0000000000000018 mmu_cfg_params
000000000001b9b8 g     F ro	0000000000000004 xlat_tables_print
000000000001aae8 g     F ro	00000000000001ac rz_io_setup
000000000001f000 g       ro	0000000000000000 __RW_START__
0000000000022000 g       xlat_table	0000000000000000 __XLAT_TABLE_START__
00000000000134f0 g     F ro	0000000000000154 bl2_el3_early_platform_setup
0000000000012218 g     F ro	0000000000000030 do_panic
0000000000013748 g     F ro	0000000000000104 cpg_active_ddr
000000000001c4a0 g     O ro	0000000000000020 mc_phy_settings_tbl
000000000001ba20 g     F ro	0000000000000050 memmove
000000000001b170 g     F ro	0000000000000080 setup_mmu_cfg
0000000000012ab8 g     F ro	0000000000000060 tzc400_disable_filters
0000000000018898 g     F ro	0000000000000148 esd_init
00000000000193d0 g     F ro	00000000000000b4 _sd_card_get_status
000000000001c478 g     O ro	0000000000000008 mc_mr2_tbl
000000000001b0b0  w    F ro	000000000000003c plat_log_get_prefix
00000000000123cc  w    F ro	0000000000000004 plat_report_exception
0000000000018b48 g     F ro	0000000000000080 _sd_clear_int_mask
000000000001c130 g     O ro	000000000000001e build_message
000000000001a8d8 g     F ro	0000000000000010 syc_get_freq
000000000001c470 g     O ro	0000000000000008 mc_mr1_tbl
000000000001b200 g     F ro	0000000000000044 init_xlat_tables
000000000001b088 g     F ro	0000000000000028 setup_page_tables
000000000001f000 g       .data	0000000000000000 __DATA_START__
0000000000012730 g     F ro	0000000000000064 get_bl_mem_params_node
00000000000153e8 g     F ro	0000000000000ca0 emmc_exec_cmd
000000000001b148 g     F ro	0000000000000014 xlat_arch_regime_get_xn_desc
0000000000019618 g     F ro	0000000000000124 _sd_mem_mount
00000000000136e0 g     F ro	0000000000000018 bl2_platform_setup
0000000000018540 g     F ro	000000000000005c _sd_card_send_cmd_arg
000000000001258c g       ro	0000000000000000 __TEXT_RESIDENT_END__
000000000001ba00 g     F ro	0000000000000020 memcpy
000000000001a780 g     F ro	0000000000000004 spi_multi_setup_device
0000000000013850 g     F ro	00000000000000a4 cpg_reset_ddr_mc
0000000000019340 g     F ro	000000000000008c _sd_set_mem_speed
0000000000014438 g     F ro	0000000000000e40 ddr_setup
00000000000122c0 g     F ro	00000000000000e8 zero_normalmem
0000000000017138 g     F ro	00000000000000a4 emmc_bit_field
00000000000121b0 g     F ro	0000000000000004 platform_mem_init
000000000001a618 g     F ro	0000000000000060 esd_get_type
0000000000017c48 g     F ro	0000000000000008 esddev_loc_cpu
00000000000176a0 g     F ro	0000000000000038 register_io_dev_emmcdrv
000000000001b1f0 g     F ro	0000000000000010 mmap_add
000000000001b9c0 g     F ro	0000000000000004 plat_get_syscnt_freq2
000000000001a678 g     F ro	00000000000000c4 _sd_get_size
00000000000123d4  w    F ro	0000000000000008 plat_panic_handler
000000000001a8f8 g     F ro	0000000000000004 plat_flush_next_bl_params
000000000001dfd0 g       ro	0000000000000000 __RT_SVC_DESCS_START__
0000000000020900 g       stacks	0000000000000000 __STACKS_END__
00000000000187b0 g     F ro	00000000000000e8 _sd_send_mcmd
0000000000021480 g       .bss	0000000000000000 __PERCPU_BAKERY_LOCK_END__
000000000001f180 g     O .data	0000000000000008 bl_mem_params_desc_ptr
00000000000133b8 g     F ro	000000000000001c io_size
000000000001a600 g     F ro	0000000000000014 _sd_set_err
000000000001a4e8 g     F ro	00000000000000b8 _sd_set_port
00000000000171e0 g     F ro	000000000000002c emmc_write_error_info
0000000000013260 g     F ro	0000000000000010 io_dev_open
0000000000017ba0 g     F ro	0000000000000008 esddev_power_on
00000000000121a0  w    F ro	0000000000000010 plat_set_my_stack
000000000001dfd0 g       ro	0000000000000000 __RT_SVC_DESCS_END__
0000000000020da0 g     O .bss	0000000000000008 SDHandle
00000000000121e0 g     F ro	0000000000000030 asm_print_hex
0000000000000ba0 g       *ABS*	0000000000000000 __BSS_SIZE__
00000000000121c8 g     F ro	0000000000000018 asm_print_str
0000000000012570 g     F ro	000000000000001c console_rzg2l_flush
00000000000123a8 g     F ro	000000000000001c disable_mmu_el3
00000000000121c0 g     F ro	0000000000000008 plat_crash_console_flush
000000000001b070  w    F ro	0000000000000008 plat_error_handler
0000000000019910 g     F ro	0000000000000038 esd_get_partition_id
0000000000017ba8 g     F ro	0000000000000008 esddev_write_data
0000000000017b98 g     F ro	0000000000000008 esddev_init
0000000000016800 g     F ro	000000000000074c emmc_mount
000000000001c488 g     O ro	0000000000000008 mc_mr6_tbl
0000000000013448 g     F ro	00000000000000a4 bl2_plat_handle_post_image_load
000000000001e800 g       ro	0000000000000000 __RO_END_UNALIGNED__
000000000001af58 g     F ro	00000000000000b8 console_putc
0000000000017d10 g     F ro	0000000000000008 _sd_check_media
00000000000121b4 g     F ro	0000000000000008 plat_crash_console_init
0000000000012248 g     F ro	0000000000000038 flush_dcache_range
0000000000012b88 g     F ro	000000000000000c timer_init
0000000000012830 g     F ro	0000000000000144 get_next_bl_params_from_mem_params_desc
000000000001dfd0 g       ro	0000000000000000 __PMF_SVC_DESCS_END__
000000000001f8d0 g       .data	0000000000000000 __RELA_END__
000000000001f8d0 g       .data	0000000000000000 __RELA_START__
0000000000018ad0 g     F ro	0000000000000078 _sd_set_int_mask
0000000000019948 g     F ro	0000000000000988 esd_read_sect
0000000000017c60 g     F ro	0000000000000008 esddev_wait_dma_end
000000000001c4c0 g     O ro	0000000000000048 swizzle_mc_tbl
000000000001a3e8 g     F ro	0000000000000070 _sd_dma_trans
000000000001bbe8 g     F ro	0000000000000514 vprintf
0000000000012528 g     F ro	0000000000000048 console_rzg2l_putc
00000000000182e0 g     F ro	0000000000000088 _sd_check_info2_err
00000000000123d0  w    F ro	0000000000000004 plat_reset_handler
00000000000123dc g     F ro	0000000000000058 enable_mmu_direct_el3
0000000000017ec8 g     F ro	00000000000002a4 _sd_get_resp
0000000000017cf0 g     F ro	0000000000000020 esd_check_media
0000000000012150 g     F ro	0000000000000040 get_cpu_ops_ptr
000000000001a8e8 g     F ro	0000000000000004 plat_get_bl_image_load_info
000000000001ad48 g     F ro	000000000000010c load_auth_image
00000000000165c8 g     F ro	0000000000000088 emmc_select_partition
0000000000016138 g     F ro	0000000000000344 emmc_interrupt
0000000000028000 g       xlat_table	0000000000000000 __BL2_END__
000000000001b160 g     F ro	000000000000000c xlat_arch_current_el
0000000000017bd8 g     F ro	0000000000000070 esddev_int_wait
0000000000000000 g       *ABS*	0000000000000000 __PERCPU_BAKERY_LOCK_SIZE__
0000000000018d20 g     F ro	0000000000000108 esd_main
000000000001b0f0 g     F ro	0000000000000014 xlat_arch_get_pas
00000000000184a0 g     F ro	00000000000000a0 _sd_send_acmd
000000000001f8c9 g       .data	0000000000000000 __DATA_RAM_END__
0000000000019598 g     F ro	000000000000007c _sd_card_select_partition
000000000001ad00 g     F ro	0000000000000048 ddr_ctrl_reten_en_n
0000000000021480 g       .bss	0000000000000000 __PMF_PERCPU_TIMESTAMP_END__
00000000000126c0 g     F ro	000000000000006c bl2_main
000000000001f8c9 g       .data	0000000000000000 __DATA_END__
0000000000017c70 g     F ro	000000000000007c esddev_read_data
0000000000017330 g     F ro	000000000000003c emmc_make_trans_cmd
00000000000121e4 g       ro	0000000000000000 asm_print_hex_bits
0000000000021480 g       .bss	0000000000000000 __BASE_XLAT_TABLE_START__
000000000001dfd0 g       ro	0000000000000000 __CPU_OPS_START__
0000000000012b18 g     F ro	000000000000006c udelay
000000000001b108 g     F ro	0000000000000040 tcr_physical_addr_size_bits
0000000000012280 g     F ro	0000000000000038 inv_dcache_range
000000000001f8c8 g     O .data	0000000000000001 console_state
0000000000012000 g     F ro	00000000000000e8 bl2_entrypoint
0000000000017bb0 g     F ro	0000000000000020 esddev_get_clockdiv
00000000000189e0 g     F ro	00000000000000f0 _sd_init_hndl
0000000000012ba8 g     F ro	0000000000000090 generic_delay_timer_init
000000000001b068  w    F ro	0000000000000004 bl2_el3_plat_prepare_exit
0000000000019488 g     F ro	0000000000000090 _sd_card_get_scr
000000000001c480 g     O ro	0000000000000008 mc_mr5_tbl
0000000000021480 g       .bss	0000000000000000 __BAKERY_LOCK_END__
000000000001b9c8 g     F ro	0000000000000038 memcmp
0000000000012190 g     F ro	0000000000000010 cpu_get_rev_var
000000000001b290 g     F ro	0000000000000108 xlat_desc
0000000000017c50 g     F ro	0000000000000008 esddev_unl_cpu
00000000000214a0 g       .bss	0000000000000000 __BSS_END__
000000000001e000 g       ro	0000000000000000 __CPU_OPS_END__
0000000000012a30 g     F ro	0000000000000088 tzc400_enable_filters
0000000000013398 g     F ro	000000000000001c io_seek
00000000000133f8 g     F ro	0000000000000044 io_close
0000000000018e70 g     F ro	0000000000000270 _sd_card_init
00000000000129d8 g     F ro	0000000000000054 tzc400_configure_region
00000000000185a0 g     F ro	000000000000020c _sd_card_send_ocr
000000000001e000 g       ro	0000000000000000 __GOT_END__
000000000001ba70 g     F ro	0000000000000094 memset
000000000001dfd0 g       ro	0000000000000000 __PARSER_LIB_DESCS_END__
0000000000021480 g       .bss	0000000000000000 __BAKERY_LOCK_START__
0000000000017df0 g     F ro	0000000000000024 _sd_set_arg
0000000000013648 g     F ro	0000000000000094 bl2_el3_plat_arch_setup
0000000000017990 g     F ro	0000000000000208 pfc_setup
00000000000120e8 g     F ro	0000000000000038 bl2_run_next_image
00000000000123c4 g     F ro	0000000000000008 disable_mmu_icache_el3
000000000001f8c0 g     O .data	0000000000000004 bl_mem_params_desc_num
000000000001b078  w    F ro	0000000000000004 bl2_plat_preload_setup
0000000000017370 g     F ro	0000000000000080 emmc_send_idle_cmd
000000000001d118 g     O ro	0000000000000da0 mc_init_tbl
000000000001a5e0 g     F ro	0000000000000020 _sd_bit_search
00000000000125a0 g     F ro	0000000000000108 bl2_load_images
000000000001e000 g       ro	0000000000000000 bl2_el3_exceptions
0000000000020a30 g     O .bss	0000000000000330 mmc_drv_obj
0000000000012590 g     F ro	000000000000000c bl2_arch_setup
000000000001e000 g       ro	0000000000000000 __GOT_START__
0000000000012434 g     F ro	0000000000000050 console_rzg2l_register
0000000000012484 g     F ro	00000000000000a4 console_rzg2l_init
0000000000019740 g     F ro	00000000000001cc esd_mount
000000000002144c g     O .bss	0000000000000004 SDSelectPort
0000000000000000 g       *ABS*	0000000000000000 __PERCPU_TIMESTAMP_SIZE__
0000000000012978 g     F ro	0000000000000010 tzc400_set_action
000000000001dfd0 g       ro	0000000000000000 __FCONF_POPULATOR_END__
0000000000018368 g     F ro	0000000000000134 _sd_send_cmd
000000000001a2d0 g     F ro	0000000000000114 _sd_software_trans
00000000000160c0 g     F ro	0000000000000078 emmc_init
000000000001a740 g     F ro	000000000000003c esd_set_buffer
0000000000017210 g     F ro	000000000000001c emmc_write_error_info_func_no
00000000000214a0 g       .bss	0000000000000000 __BASE_XLAT_TABLE_END__
000000000001a8b8 g     F ro	000000000000001c syc_init
000000000001b010 g     F ro	0000000000000054 console_flush
000000000001f000 g       ro	0000000000000000 __RO_END__
0000000000013270 g     F ro	0000000000000018 io_dev_init
00000000000133d8 g     F ro	000000000000001c io_read
0000000000016650 g     F ro	00000000000001b0 emmc_set_request_mmc_clock
000000000001a9b0 g     F ro	0000000000000084 plat_security_setup
0000000000020900 g       .bss	0000000000000000 __BSS_START__
0000000000018bc8 g     F ro	0000000000000050 _sd_clear_info
000000000001f000 g       .data	0000000000000000 __DATA_RAM_START__
0000000000012000 g       ro	0000000000000000 __RO_START__
0000000000017bd0 g     F ro	0000000000000008 esddev_set_port
000000000001b5e8 g     F ro	000000000000027c mmap_add_region_ctx
000000000001b080  w    F ro	0000000000000008 plat_try_next_boot_source
0000000000018170 g     F ro	0000000000000170 _sd_check_csd
000000000001dfd0 g       ro	0000000000000000 __PMF_SVC_DESCS_START__
00000000000121bc g     F ro	0000000000000004 plat_crash_console_putc
00000000000132a0 g     F ro	00000000000000f8 io_open
00000000000126a8 g     F ro	0000000000000014 bl2_el3_setup
000000000001ac98 g     F ro	0000000000000068 plat_get_image_source
0000000000012988 g     F ro	0000000000000038 tzc400_init
000000000001ae60 g     F ro	00000000000000a0 tf_log
0000000000013238 g     F ro	0000000000000028 io_register_device
000000000001dfd0 g       ro	0000000000000000 __FCONF_POPULATOR_START__
0000000000016f50 g     F ro	00000000000001e4 emmc_read_sector
000000000001a458 g     F ro	0000000000000090 _sd_set_clock
0000000000028000 g       xlat_table	0000000000000000 __RW_END__
0000000000012798 g     F ro	0000000000000098 get_bl_load_info_from_mem_params_desc
000000000001f900 g       stacks	0000000000000000 __STACKS_START__
00000000000190e0 g     F ro	00000000000001bc _sd_read_byte
000000000001b248 g     F ro	0000000000000048 enable_mmu_el3
0000000000021480 g       .bss	0000000000000000 __PMF_TIMESTAMP_END__
0000000000012000 g       ro	0000000000000000 __TEXT_RESIDENT_START__
000000000001c490 g     O ro	0000000000000010 mc_odt_pins_tbl
000000000001b8b0 g     F ro	00000000000000fc init_xlat_tables_ctx
0000000000018c18 g     F ro	00000000000000b8 _sd_get_int
0000000000028000 g       xlat_table	0000000000000000 __XLAT_TABLE_END__
0000000000017e18 g     F ro	00000000000000b0 _sd_check_resp_error
0000000000013440 g     F ro	0000000000000008 bl2_plat_handle_pre_image_load
000000000001a5a0 g     F ro	0000000000000040 _sd_iswp
0000000000016088 g     F ro	0000000000000034 emmc_memcard_power
0000000000017c68 g     F ro	0000000000000008 esddev_disable_dma
00000000000131a8 g     F ro	0000000000000038 register_io_dev_memmap
000000000001a900 g     F ro	00000000000000b0 plat_tzc400_setup
000000000001c508 g     O ro	0000000000000080 swizzle_phy_tbl
0000000000013288 g     F ro	0000000000000018 io_dev_close
0000000000012218  w      ro	0000000000000000 el3_panic
000000000001b9b0 g     F ro	0000000000000004 xlat_mmap_print
0000000000013018 g     F ro	0000000000000038 register_io_dev_fip
00000000000129c0 g     F ro	0000000000000018 tzc400_configure_region0
0000000000017230 g     F ro	0000000000000100 emmc_make_nontrans_cmd
0000000000021290 g     O .bss	0000000000000008 console_list
0000000000017d18 g     F ro	00000000000000d8 _sd_get_ext_cd_int
000000000001a8f0 g     F ro	0000000000000004 plat_get_next_bl_params
0000000000021480 g       .bss	0000000000000000 __PERCPU_BAKERY_LOCK_START__
000000000001dfd0 g       ro	0000000000000000 __PARSER_LIB_DESCS_START__



Disassembly of section ro:

0000000000012000 <bl2_entrypoint>:
   12000:	aa0003f4 	mov	x20, x0
   12004:	aa0103f5 	mov	x21, x1
   12008:	aa0203f6 	mov	x22, x2
   1200c:	aa0303f7 	mov	x23, x3
   12010:	d2810600 	mov	x0, #0x830                 	// #2096
   12014:	f2a618a0 	movk	x0, #0x30c5, lsl #16
   12018:	d51e1000 	msr	sctlr_el3, x0
   1201c:	d5033fdf 	isb
   12020:	1005ff00 	adr	x0, 1e000 <SynchronousExceptionSP0>
   12024:	d51ec000 	msr	vbar_el3, x0
   12028:	d5033fdf 	isb
   1202c:	94000041 	bl	12130 <reset_handler>
   12030:	d2820141 	mov	x1, #0x100a                	// #4106
   12034:	d53e1000 	mrs	x0, sctlr_el3
   12038:	aa010000 	orr	x0, x0, x1
   1203c:	d51e1000 	msr	sctlr_el3, x0
   12040:	d5033fdf 	isb
   12044:	d2804700 	mov	x0, #0x238                 	// #568
   12048:	d51e1100 	msr	scr_el3, x0
   1204c:	d2900000 	mov	x0, #0x8000                	// #32768
   12050:	f2a01020 	movk	x0, #0x81, lsl #16
   12054:	f2c00080 	movk	x0, #0x4, lsl #32
   12058:	d5380501 	mrs	x1, id_aa64dfr0_el1
   1205c:	d368ac21 	ubfx	x1, x1, #40, #4
   12060:	b4000041 	cbz	x1, 12068 <bl2_entrypoint+0x68>
   12064:	b26d0000 	orr	x0, x0, #0x80000
   12068:	d51e1320 	msr	mdcr_el3, x0
   1206c:	d2801c00 	mov	x0, #0xe0                  	// #224
   12070:	d51b9c00 	msr	pmcr_el0, x0
   12074:	d50344ff 	msr	daifclr, #0x4
   12078:	d2a80000 	mov	x0, #0x40000000            	// #1073741824
   1207c:	d5380501 	mrs	x1, id_aa64dfr0_el1
   12080:	d3441c21 	ubfx	x1, x1, #4, #4
   12084:	b4000041 	cbz	x1, 1208c <bl2_entrypoint+0x8c>
   12088:	b26c0000 	orr	x0, x0, #0x100000
   1208c:	d51e1140 	msr	cptr_el3, x0
   12090:	94000048 	bl	121b0 <platform_mem_init>
   12094:	b0000060 	adrp	x0, 1f000 <__RO_END__>
   12098:	91000000 	add	x0, x0, #0x0
   1209c:	d00000a1 	adrp	x1, 28000 <__BL2_END__>
   120a0:	91000021 	add	x1, x1, #0x0
   120a4:	cb000021 	sub	x1, x1, x0
   120a8:	94000076 	bl	12280 <inv_dcache_range>
   120ac:	d0000060 	adrp	x0, 20000 <__STACKS_START__+0x700>
   120b0:	91240000 	add	x0, x0, #0x900
   120b4:	f0000061 	adrp	x1, 21000 <sd_drv_work_area+0x58>
   120b8:	91128021 	add	x1, x1, #0x4a0
   120bc:	cb000021 	sub	x1, x1, x0
   120c0:	9400007e 	bl	122b8 <zeromem>
   120c4:	d50040bf 	msr	spsel, #0x0
   120c8:	94000036 	bl	121a0 <plat_set_my_stack>
   120cc:	aa1403e0 	mov	x0, x20
   120d0:	aa1503e1 	mov	x1, x21
   120d4:	aa1603e2 	mov	x2, x22
   120d8:	aa1703e3 	mov	x3, x23
   120dc:	94000173 	bl	126a8 <bl2_el3_setup>
   120e0:	94000178 	bl	126c0 <bl2_main>
   120e4:	940000bc 	bl	123d4 <plat_panic_handler>

00000000000120e8 <bl2_run_next_image>:
   120e8:	aa0003f4 	mov	x20, x0
   120ec:	940000b6 	bl	123c4 <disable_mmu_icache_el3>
   120f0:	d50e871f 	tlbi	alle3
   120f4:	940023dd 	bl	1b068 <bl2_el3_plat_prepare_exit>
   120f8:	a9408680 	ldp	x0, x1, [x20, #8]
   120fc:	d51e4020 	msr	elr_el3, x0
   12100:	d51e4001 	msr	spsr_el3, x1
   12104:	a9449e86 	ldp	x6, x7, [x20, #72]
   12108:	a9439684 	ldp	x4, x5, [x20, #56]
   1210c:	a9428e82 	ldp	x2, x3, [x20, #40]
   12110:	a9418680 	ldp	x0, x1, [x20, #24]
   12114:	d69f03e0 	eret
   12118:	d503379f 	dsb	nsh
   1211c:	d5033fdf 	isb

0000000000012120 <cortex_a55_reset_func>:
   12120:	aa1e03f3 	mov	x19, x30
   12124:	9400001b 	bl	12190 <cpu_get_rev_var>
   12128:	aa0003f2 	mov	x18, x0
   1212c:	d65f0260 	ret	x19

0000000000012130 <reset_handler>:
   12130:	aa1e03f3 	mov	x19, x30
   12134:	940000a7 	bl	123d0 <plat_reset_handler>
   12138:	94000006 	bl	12150 <get_cpu_ops_ptr>
   1213c:	f9400402 	ldr	x2, [x0, #8]
   12140:	aa1303fe 	mov	x30, x19
   12144:	b4000042 	cbz	x2, 1214c <reset_handler+0x1c>
   12148:	d61f0040 	br	x2
   1214c:	d65f03c0 	ret

0000000000012150 <get_cpu_ops_ptr>:
   12150:	d5380002 	mrs	x2, midr_el1
   12154:	d29ffe03 	mov	x3, #0xfff0                	// #65520
   12158:	f2bfe003 	movk	x3, #0xff00, lsl #16
   1215c:	0a030042 	and	w2, w2, w3
   12160:	1005f505 	adr	x5, 1e000 <SynchronousExceptionSP0>
   12164:	d2800000 	mov	x0, #0x0                   	// #0
   12168:	1005f344 	adr	x4, 1dfd0 <__CPU_OPS_START__>
   1216c:	eb05009f 	cmp	x4, x5
   12170:	540000e0 	b.eq	1218c <search_def_ptr>  // b.none
   12174:	f8430481 	ldr	x1, [x4], #48
   12178:	0a030021 	and	w1, w1, w3
   1217c:	6b02003f 	cmp	w1, w2
   12180:	54ffff61 	b.ne	1216c <get_cpu_ops_ptr+0x1c>  // b.any
   12184:	d100c080 	sub	x0, x4, #0x30
   12188:	d65f03c0 	ret

000000000001218c <search_def_ptr>:
   1218c:	d65f03c0 	ret

0000000000012190 <cpu_get_rev_var>:
   12190:	d5380001 	mrs	x1, midr_el1
   12194:	d3505c20 	ubfx	x0, x1, #16, #8
   12198:	b3400c20 	bfxil	x0, x1, #0, #4
   1219c:	d65f03c0 	ret

00000000000121a0 <plat_set_my_stack>:
   121a0:	d0000060 	adrp	x0, 20000 <__STACKS_START__+0x700>
   121a4:	91240000 	add	x0, x0, #0x900
   121a8:	9100001f 	mov	sp, x0
   121ac:	d65f03c0 	ret

00000000000121b0 <platform_mem_init>:
   121b0:	d65f03c0 	ret

00000000000121b4 <plat_crash_console_init>:
   121b4:	d2800020 	mov	x0, #0x1                   	// #1
   121b8:	d65f03c0 	ret

00000000000121bc <plat_crash_console_putc>:
   121bc:	d65f03c0 	ret

00000000000121c0 <plat_crash_console_flush>:
   121c0:	d2800000 	mov	x0, #0x0                   	// #0
   121c4:	d65f03c0 	ret

00000000000121c8 <asm_print_str>:
   121c8:	aa1e03e3 	mov	x3, x30
   121cc:	38401480 	ldrb	w0, [x4], #1
   121d0:	b4000060 	cbz	x0, 121dc <asm_print_str+0x14>
   121d4:	97fffffa 	bl	121bc <plat_crash_console_putc>
   121d8:	17fffffd 	b	121cc <asm_print_str+0x4>
   121dc:	d65f0060 	ret	x3

00000000000121e0 <asm_print_hex>:
   121e0:	d2800805 	mov	x5, #0x40                  	// #64

00000000000121e4 <asm_print_hex_bits>:
   121e4:	aa1e03e3 	mov	x3, x30
   121e8:	d10010a5 	sub	x5, x5, #0x4
   121ec:	9ac52480 	lsr	x0, x4, x5
   121f0:	92400c00 	and	x0, x0, #0xf
   121f4:	f100281f 	cmp	x0, #0xa
   121f8:	54000043 	b.cc	12200 <asm_print_hex_bits+0x1c>  // b.lo, b.ul, b.last
   121fc:	91009c00 	add	x0, x0, #0x27
   12200:	9100c000 	add	x0, x0, #0x30
   12204:	97ffffee 	bl	121bc <plat_crash_console_putc>
   12208:	b5ffff05 	cbnz	x5, 121e8 <asm_print_hex_bits+0x4>
   1220c:	d65f0060 	ret	x3

0000000000012210 <asm_print_newline>:
   12210:	d2800140 	mov	x0, #0xa                   	// #10
   12214:	17ffffea 	b	121bc <plat_crash_console_putc>

0000000000012218 <do_panic>:
   12218:	aa1e03e6 	mov	x6, x30
   1221c:	97ffffe6 	bl	121b4 <plat_crash_console_init>
   12220:	b4000100 	cbz	x0, 12240 <_panic_handler>
   12224:	1005eca4 	adr	x4, 1dfb8 <panic_msg>
   12228:	97ffffe8 	bl	121c8 <asm_print_str>
   1222c:	aa0603e4 	mov	x4, x6
   12230:	d1001084 	sub	x4, x4, #0x4
   12234:	97ffffeb 	bl	121e0 <asm_print_hex>
   12238:	97fffff6 	bl	12210 <asm_print_newline>
   1223c:	97ffffe1 	bl	121c0 <plat_crash_console_flush>

0000000000012240 <_panic_handler>:
   12240:	aa0603fe 	mov	x30, x6
   12244:	14000064 	b	123d4 <plat_panic_handler>

0000000000012248 <flush_dcache_range>:
   12248:	b40001a1 	cbz	x1, 1227c <exit_loop_civac>
   1224c:	d53b0023 	mrs	x3, ctr_el0
   12250:	d3504c63 	ubfx	x3, x3, #16, #4
   12254:	d2800082 	mov	x2, #0x4                   	// #4
   12258:	9ac32042 	lsl	x2, x2, x3
   1225c:	8b010001 	add	x1, x0, x1
   12260:	d1000443 	sub	x3, x2, #0x1
   12264:	8a230000 	bic	x0, x0, x3

0000000000012268 <loop_civac>:
   12268:	d50b7e20 	dc	civac, x0
   1226c:	8b020000 	add	x0, x0, x2
   12270:	eb01001f 	cmp	x0, x1
   12274:	54ffffa3 	b.cc	12268 <loop_civac>  // b.lo, b.ul, b.last
   12278:	d5033f9f 	dsb	sy

000000000001227c <exit_loop_civac>:
   1227c:	d65f03c0 	ret

0000000000012280 <inv_dcache_range>:
   12280:	b40001a1 	cbz	x1, 122b4 <exit_loop_ivac>
   12284:	d53b0023 	mrs	x3, ctr_el0
   12288:	d3504c63 	ubfx	x3, x3, #16, #4
   1228c:	d2800082 	mov	x2, #0x4                   	// #4
   12290:	9ac32042 	lsl	x2, x2, x3
   12294:	8b010001 	add	x1, x0, x1
   12298:	d1000443 	sub	x3, x2, #0x1
   1229c:	8a230000 	bic	x0, x0, x3

00000000000122a0 <loop_ivac>:
   122a0:	d5087620 	dc	ivac, x0
   122a4:	8b020000 	add	x0, x0, x2
   122a8:	eb01001f 	cmp	x0, x1
   122ac:	54ffffa3 	b.cc	122a0 <loop_ivac>  // b.lo, b.ul, b.last
   122b0:	d5033f9f 	dsb	sy

00000000000122b4 <exit_loop_ivac>:
   122b4:	d65f03c0 	ret

00000000000122b8 <zeromem>:
   122b8:	8b010002 	add	x2, x0, x1
   122bc:	14000030 	b	1237c <zero_normalmem+0xbc>

00000000000122c0 <zero_normalmem>:
   122c0:	8b010002 	add	x2, x0, x1
   122c4:	d53b00e3 	mrs	x3, dczid_el0
   122c8:	d3400c63 	ubfx	x3, x3, #0, #4
   122cc:	d2800085 	mov	x5, #0x4                   	// #4
   122d0:	9ac320a3 	lsl	x3, x5, x3
   122d4:	eb03003f 	cmp	x1, x3
   122d8:	54000523 	b.cc	1237c <zero_normalmem+0xbc>  // b.lo, b.ul, b.last
   122dc:	d1000461 	sub	x1, x3, #0x1
   122e0:	ea01001f 	tst	x0, x1
   122e4:	54000260 	b.eq	12330 <zero_normalmem+0x70>  // b.none
   122e8:	aa010004 	orr	x4, x0, x1
   122ec:	91000484 	add	x4, x4, #0x1
   122f0:	b4000464 	cbz	x4, 1237c <zero_normalmem+0xbc>
   122f4:	eb02009f 	cmp	x4, x2
   122f8:	54000428 	b.hi	1237c <zero_normalmem+0xbc>  // b.pmore
   122fc:	f2400c1f 	tst	x0, #0xf
   12300:	540000e0 	b.eq	1231c <zero_normalmem+0x5c>  // b.none
   12304:	b2400c05 	orr	x5, x0, #0xf
   12308:	910004a5 	add	x5, x5, #0x1
   1230c:	b4000385 	cbz	x5, 1237c <zero_normalmem+0xbc>
   12310:	3800141f 	strb	wzr, [x0], #1
   12314:	eb05001f 	cmp	x0, x5
   12318:	54ffffc1 	b.ne	12310 <zero_normalmem+0x50>  // b.any
   1231c:	eb04001f 	cmp	x0, x4
   12320:	54000082 	b.cs	12330 <zero_normalmem+0x70>  // b.hs, b.nlast
   12324:	a8817c1f 	stp	xzr, xzr, [x0], #16
   12328:	eb04001f 	cmp	x0, x4
   1232c:	54ffffc3 	b.cc	12324 <zero_normalmem+0x64>  // b.lo, b.ul, b.last
   12330:	8a210044 	bic	x4, x2, x1
   12334:	eb04001f 	cmp	x0, x4
   12338:	540000a2 	b.cs	1234c <zero_normalmem+0x8c>  // b.hs, b.nlast
   1233c:	d50b7420 	dc	zva, x0
   12340:	8b030000 	add	x0, x0, x3
   12344:	eb04001f 	cmp	x0, x4
   12348:	54ffffa3 	b.cc	1233c <zero_normalmem+0x7c>  // b.lo, b.ul, b.last
   1234c:	927cec44 	and	x4, x2, #0xfffffffffffffff0
   12350:	eb04001f 	cmp	x0, x4
   12354:	54000082 	b.cs	12364 <zero_normalmem+0xa4>  // b.hs, b.nlast
   12358:	a8817c1f 	stp	xzr, xzr, [x0], #16
   1235c:	eb04001f 	cmp	x0, x4
   12360:	54ffffc3 	b.cc	12358 <zero_normalmem+0x98>  // b.lo, b.ul, b.last
   12364:	eb02001f 	cmp	x0, x2
   12368:	54000080 	b.eq	12378 <zero_normalmem+0xb8>  // b.none
   1236c:	3800141f 	strb	wzr, [x0], #1
   12370:	eb02001f 	cmp	x0, x2
   12374:	54ffffc1 	b.ne	1236c <zero_normalmem+0xac>  // b.any
   12378:	d65f03c0 	ret
   1237c:	f2400c1f 	tst	x0, #0xf
   12380:	54fffe60 	b.eq	1234c <zero_normalmem+0x8c>  // b.none
   12384:	b2400c04 	orr	x4, x0, #0xf
   12388:	91000484 	add	x4, x4, #0x1
   1238c:	b4fffec4 	cbz	x4, 12364 <zero_normalmem+0xa4>
   12390:	eb02009f 	cmp	x4, x2
   12394:	54fffe82 	b.cs	12364 <zero_normalmem+0xa4>  // b.hs, b.nlast
   12398:	3800141f 	strb	wzr, [x0], #1
   1239c:	eb04001f 	cmp	x0, x4
   123a0:	54ffffc1 	b.ne	12398 <zero_normalmem+0xd8>  // b.any
   123a4:	17ffffea 	b	1234c <zero_normalmem+0x8c>

00000000000123a8 <disable_mmu_el3>:
   123a8:	d28000a1 	mov	x1, #0x5                   	// #5

00000000000123ac <do_disable_mmu_el3>:
   123ac:	d53e1000 	mrs	x0, sctlr_el3
   123b0:	8a210000 	bic	x0, x0, x1
   123b4:	d51e1000 	msr	sctlr_el3, x0
   123b8:	d5033fdf 	isb
   123bc:	d5033f9f 	dsb	sy
   123c0:	d65f03c0 	ret

00000000000123c4 <disable_mmu_icache_el3>:
   123c4:	d28200a1 	mov	x1, #0x1005                	// #4101
   123c8:	17fffff9 	b	123ac <do_disable_mmu_el3>

00000000000123cc <plat_report_exception>:
   123cc:	d65f03c0 	ret

00000000000123d0 <plat_reset_handler>:
   123d0:	d65f03c0 	ret

00000000000123d4 <plat_panic_handler>:
   123d4:	d503207f 	wfi
   123d8:	17ffffff 	b	123d4 <plat_panic_handler>

00000000000123dc <enable_mmu_direct_el3>:
   123dc:	d50e871f 	tlbi	alle3
   123e0:	aa0003e7 	mov	x7, x0
   123e4:	f0000060 	adrp	x0, 21000 <sd_drv_work_area+0x58>
   123e8:	910a6000 	add	x0, x0, #0x298
   123ec:	f9400001 	ldr	x1, [x0]
   123f0:	d51ea201 	msr	mair_el3, x1
   123f4:	f9400402 	ldr	x2, [x0, #8]
   123f8:	d51e2042 	msr	tcr_el3, x2
   123fc:	f9400803 	ldr	x3, [x0, #16]
   12400:	d51e2003 	msr	ttbr0_el3, x3
   12404:	d5033b9f 	dsb	ish
   12408:	d5033fdf 	isb
   1240c:	d53e1004 	mrs	x4, sctlr_el3
   12410:	d28000a5 	mov	x5, #0x5                   	// #5
   12414:	f2a00105 	movk	x5, #0x8, lsl #16
   12418:	aa050084 	orr	x4, x4, x5
   1241c:	927df885 	and	x5, x4, #0xfffffffffffffffb
   12420:	f24000ff 	tst	x7, #0x1
   12424:	9a8410a4 	csel	x4, x5, x4, ne  // ne = any
   12428:	d51e1004 	msr	sctlr_el3, x4
   1242c:	d5033fdf 	isb
   12430:	d65f03c0 	ret

0000000000012434 <console_rzg2l_register>:
   12434:	aa1e03e7 	mov	x7, x30
   12438:	aa0303e6 	mov	x6, x3
   1243c:	b4000206 	cbz	x6, 1247c <register_fail>
   12440:	f90014c0 	str	x0, [x6, #40]
   12444:	94000010 	bl	12484 <console_rzg2l_init>
   12448:	aa0603e0 	mov	x0, x6
   1244c:	aa0703fe 	mov	x30, x7
   12450:	90000001 	adrp	x1, 12000 <bl2_entrypoint>
   12454:	9114a021 	add	x1, x1, #0x528
   12458:	f9000801 	str	x1, [x0, #16]
   1245c:	f9000c1f 	str	xzr, [x0, #24]
   12460:	90000001 	adrp	x1, 12000 <bl2_entrypoint>
   12464:	9115c021 	add	x1, x1, #0x570
   12468:	f9001001 	str	x1, [x0, #32]
   1246c:	d28000a1 	mov	x1, #0x5                   	// #5
   12470:	f9000401 	str	x1, [x0, #8]
   12474:	140022a3 	b	1af00 <console_register>
   12478:	14000002 	b	12480 <l_ret>

000000000001247c <register_fail>:
   1247c:	d2800000 	mov	x0, #0x0                   	// #0

0000000000012480 <l_ret>:
   12480:	d65f00e0 	ret	x7

0000000000012484 <console_rzg2l_init>:
   12484:	52800003 	mov	w3, #0x0                   	// #0
   12488:	79000803 	strh	w3, [x0, #4]
   1248c:	528000c3 	mov	w3, #0x6                   	// #6
   12490:	79001803 	strh	w3, [x0, #12]
   12494:	79401003 	ldrh	w3, [x0, #8]
   12498:	79402403 	ldrh	w3, [x0, #18]
   1249c:	52800003 	mov	w3, #0x0                   	// #0
   124a0:	79001003 	strh	w3, [x0, #8]
   124a4:	79002403 	strh	w3, [x0, #18]
   124a8:	79400803 	ldrh	w3, [x0, #4]
   124ac:	121e7463 	and	w3, w3, #0xfffffffc
   124b0:	79000803 	strh	w3, [x0, #4]
   124b4:	52800003 	mov	w3, #0x0                   	// #0
   124b8:	79000003 	strh	w3, [x0]
   124bc:	52800003 	mov	w3, #0x0                   	// #0
   124c0:	39005003 	strb	w3, [x0, #20]
   124c4:	1ac20823 	udiv	w3, w1, w2
   124c8:	53057c63 	lsr	w3, w3, #5
   124cc:	51000463 	sub	w3, w3, #0x1
   124d0:	39000803 	strb	w3, [x0, #2]
   124d4:	91000463 	add	x3, x3, #0x1
   124d8:	d373c863 	lsl	x3, x3, #13
   124dc:	9b027c63 	mul	x3, x3, x2
   124e0:	9ac10863 	udiv	x3, x3, x1
   124e4:	52800601 	mov	w1, #0x30                  	// #48
   124e8:	39005001 	strb	w1, [x0, #20]
   124ec:	39000803 	strb	w3, [x0, #2]
   124f0:	52800003 	mov	w3, #0x0                   	// #0
   124f4:	11000463 	add	w3, w3, #0x1
   124f8:	7104007f 	cmp	w3, #0x100
   124fc:	54ffffc1 	b.ne	124f4 <console_rzg2l_init+0x70>  // b.any
   12500:	79402c03 	ldrh	w3, [x0, #22]
   12504:	12187863 	and	w3, w3, #0xffffff7f
   12508:	12107863 	and	w3, w3, #0xffff7fff
   1250c:	79002c03 	strh	w3, [x0, #22]
   12510:	52800003 	mov	w3, #0x0                   	// #0
   12514:	79001803 	strh	w3, [x0, #12]
   12518:	52800603 	mov	w3, #0x30                  	// #48
   1251c:	79000803 	strh	w3, [x0, #4]
   12520:	d2800020 	mov	x0, #0x1                   	// #1
   12524:	d65f03c0 	ret

0000000000012528 <console_rzg2l_putc>:
   12528:	f9401421 	ldr	x1, [x1, #40]
   1252c:	7100281f 	cmp	w0, #0xa
   12530:	540000e1 	b.ne	1254c <console_rzg2l_putc+0x24>  // b.any
   12534:	79401c22 	ldrh	w2, [x1, #14]
   12538:	53083042 	ubfx	w2, w2, #8, #5
   1253c:	7100405f 	cmp	w2, #0x10
   12540:	54ffffaa 	b.ge	12534 <console_rzg2l_putc+0xc>  // b.tcont
   12544:	528001a2 	mov	w2, #0xd                   	// #13
   12548:	39001822 	strb	w2, [x1, #6]
   1254c:	79401c22 	ldrh	w2, [x1, #14]
   12550:	53083042 	ubfx	w2, w2, #8, #5
   12554:	7100405f 	cmp	w2, #0x10
   12558:	54ffffaa 	b.ge	1254c <console_rzg2l_putc+0x24>  // b.tcont
   1255c:	39001820 	strb	w0, [x1, #6]
   12560:	79401022 	ldrh	w2, [x1, #8]
   12564:	12197842 	and	w2, w2, #0xffffffbf
   12568:	79001022 	strh	w2, [x1, #8]
   1256c:	d65f03c0 	ret

0000000000012570 <console_rzg2l_flush>:
   12570:	f9401400 	ldr	x0, [x0, #40]
   12574:	79401001 	ldrh	w1, [x0, #8]
   12578:	121a0021 	and	w1, w1, #0x40
   1257c:	7101003f 	cmp	w1, #0x40
   12580:	54ffffa1 	b.ne	12574 <console_rzg2l_flush+0x4>  // b.any
   12584:	52800000 	mov	w0, #0x0                   	// #0
   12588:	d65f03c0 	ret

000000000001258c <__TEXT_RESIDENT_END__>:
   1258c:	00000000 	.inst	0x00000000 ; undefined

0000000000012590 <bl2_arch_setup>:
   12590:	d2a00600 	mov	x0, #0x300000              	// #3145728
   12594:	d5181040 	msr	cpacr_el1, x0
   12598:	d65f03c0 	ret
   1259c:	00000000 	.inst	0x00000000 ; undefined

00000000000125a0 <bl2_load_images>:
   125a0:	a9bd7bfd 	stp	x29, x30, [sp, #-48]!
   125a4:	910003fd 	mov	x29, sp
   125a8:	a90153f3 	stp	x19, x20, [sp, #16]
   125ac:	940020cf 	bl	1a8e8 <plat_get_bl_image_load_info>
   125b0:	f9400413 	ldr	x19, [x0, #8]
   125b4:	b40003b3 	cbz	x19, 12628 <bl2_load_images+0x88>
   125b8:	f90013f5 	str	x21, [sp, #32]
   125bc:	52800015 	mov	w21, #0x0                   	// #0
   125c0:	14000012 	b	12608 <bl2_load_images+0x68>
   125c4:	b9400260 	ldr	w0, [x19]
   125c8:	9400039e 	bl	13440 <bl2_plat_handle_pre_image_load>
   125cc:	2a0003f4 	mov	w20, w0
   125d0:	35000520 	cbnz	w0, 12674 <bl2_load_images+0xd4>
   125d4:	f9400661 	ldr	x1, [x19, #8]
   125d8:	b9400260 	ldr	w0, [x19]
   125dc:	b9400422 	ldr	w2, [x1, #4]
   125e0:	370800a2 	tbnz	w2, #1, 125f4 <bl2_load_images+0x54>
   125e4:	940021d9 	bl	1ad48 <load_auth_image>
   125e8:	2a0003f4 	mov	w20, w0
   125ec:	35000500 	cbnz	w0, 1268c <bl2_load_images+0xec>
   125f0:	b9400260 	ldr	w0, [x19]
   125f4:	94000395 	bl	13448 <bl2_plat_handle_post_image_load>
   125f8:	2a0003f4 	mov	w20, w0
   125fc:	35000300 	cbnz	w0, 1265c <bl2_load_images+0xbc>
   12600:	f9400a73 	ldr	x19, [x19, #16]
   12604:	b4000113 	cbz	x19, 12624 <bl2_load_images+0x84>
   12608:	f9400660 	ldr	x0, [x19, #8]
   1260c:	b9400400 	ldr	w0, [x0, #4]
   12610:	3617fda0 	tbz	w0, #2, 125c4 <bl2_load_images+0x24>
   12614:	35fffd95 	cbnz	w21, 125c4 <bl2_load_images+0x24>
   12618:	52800035 	mov	w21, #0x1                   	// #1
   1261c:	94000431 	bl	136e0 <bl2_platform_setup>
   12620:	17ffffe9 	b	125c4 <bl2_load_images+0x24>
   12624:	f94013f5 	ldr	x21, [sp, #32]
   12628:	940020b2 	bl	1a8f0 <plat_get_next_bl_params>
   1262c:	aa0003f3 	mov	x19, x0
   12630:	f9400400 	ldr	x0, [x0, #8]
   12634:	f9400800 	ldr	x0, [x0, #16]
   12638:	f9400c01 	ldr	x1, [x0, #24]
   1263c:	b5000041 	cbnz	x1, 12644 <bl2_load_images+0xa4>
   12640:	f9000c13 	str	x19, [x0, #24]
   12644:	940020ad 	bl	1a8f8 <plat_flush_next_bl_params>
   12648:	f9400660 	ldr	x0, [x19, #8]
   1264c:	a94153f3 	ldp	x19, x20, [sp, #16]
   12650:	a8c37bfd 	ldp	x29, x30, [sp], #48
   12654:	f9400800 	ldr	x0, [x0, #16]
   12658:	d65f03c0 	ret
   1265c:	2a0003e1 	mov	w1, w0
   12660:	d0000040 	adrp	x0, 1c000 <vprintf+0x418>
   12664:	91078000 	add	x0, x0, #0x1e0
   12668:	940021fe 	bl	1ae60 <tf_log>
   1266c:	2a1403e0 	mov	w0, w20
   12670:	94002280 	bl	1b070 <plat_error_handler>
   12674:	2a0003e1 	mov	w1, w0
   12678:	d0000040 	adrp	x0, 1c000 <vprintf+0x418>
   1267c:	91062000 	add	x0, x0, #0x188
   12680:	940021f8 	bl	1ae60 <tf_log>
   12684:	2a1403e0 	mov	w0, w20
   12688:	9400227a 	bl	1b070 <plat_error_handler>
   1268c:	b9400261 	ldr	w1, [x19]
   12690:	2a0003e2 	mov	w2, w0
   12694:	d0000040 	adrp	x0, 1c000 <vprintf+0x418>
   12698:	9106e000 	add	x0, x0, #0x1b8
   1269c:	940021f1 	bl	1ae60 <tf_log>
   126a0:	2a1403e0 	mov	w0, w20
   126a4:	94002273 	bl	1b070 <plat_error_handler>

00000000000126a8 <bl2_el3_setup>:
   126a8:	a9bf7bfd 	stp	x29, x30, [sp, #-16]!
   126ac:	910003fd 	mov	x29, sp
   126b0:	94000390 	bl	134f0 <bl2_el3_early_platform_setup>
   126b4:	a8c17bfd 	ldp	x29, x30, [sp], #16
   126b8:	140003e4 	b	13648 <bl2_el3_plat_arch_setup>
   126bc:	00000000 	.inst	0x00000000 ; undefined

00000000000126c0 <bl2_main>:
   126c0:	a9be7bfd 	stp	x29, x30, [sp, #-32]!
   126c4:	d0000041 	adrp	x1, 1c000 <vprintf+0x418>
   126c8:	91054021 	add	x1, x1, #0x150
   126cc:	910003fd 	mov	x29, sp
   126d0:	f9000bf3 	str	x19, [sp, #16]
   126d4:	d0000053 	adrp	x19, 1c000 <vprintf+0x418>
   126d8:	91084273 	add	x19, x19, #0x210
   126dc:	aa1303e0 	mov	x0, x19
   126e0:	940021e0 	bl	1ae60 <tf_log>
   126e4:	aa1303e0 	mov	x0, x19
   126e8:	d0000041 	adrp	x1, 1c000 <vprintf+0x418>
   126ec:	9104c021 	add	x1, x1, #0x130
   126f0:	940021dc 	bl	1ae60 <tf_log>
   126f4:	97ffffa7 	bl	12590 <bl2_arch_setup>
   126f8:	94002260 	bl	1b078 <bl2_plat_preload_setup>
   126fc:	97ffffa9 	bl	125a0 <bl2_load_images>
   12700:	aa0003f3 	mov	x19, x0
   12704:	d0000040 	adrp	x0, 1c000 <vprintf+0x418>
   12708:	91088000 	add	x0, x0, #0x220
   1270c:	940021d5 	bl	1ae60 <tf_log>
   12710:	aa1303e0 	mov	x0, x19
   12714:	940021d1 	bl	1ae58 <print_entry_point_info>
   12718:	9400223e 	bl	1b010 <console_flush>
   1271c:	aa1303e0 	mov	x0, x19
   12720:	f9400bf3 	ldr	x19, [sp, #16]
   12724:	a8c27bfd 	ldp	x29, x30, [sp], #32
   12728:	17fffe70 	b	120e8 <bl2_run_next_image>
   1272c:	00000000 	.inst	0x00000000 ; undefined

0000000000012730 <get_bl_mem_params_node>:
   12730:	b0000061 	adrp	x1, 1f000 <__RO_END__>
   12734:	b948c024 	ldr	w4, [x1, #2240]
   12738:	340001e4 	cbz	w4, 12774 <get_bl_mem_params_node+0x44>
   1273c:	b0000061 	adrp	x1, 1f000 <__RO_END__>
   12740:	f940c025 	ldr	x5, [x1, #384]
   12744:	b94000a1 	ldr	w1, [x5]
   12748:	6b01001f 	cmp	w0, w1
   1274c:	54000160 	b.eq	12778 <get_bl_mem_params_node+0x48>  // b.none
   12750:	9102e0a2 	add	x2, x5, #0xb8
   12754:	52800001 	mov	w1, #0x0                   	// #0
   12758:	14000004 	b	12768 <get_bl_mem_params_node+0x38>
   1275c:	b84b8443 	ldr	w3, [x2], #184
   12760:	6b03001f 	cmp	w0, w3
   12764:	540000e0 	b.eq	12780 <get_bl_mem_params_node+0x50>  // b.none
   12768:	11000421 	add	w1, w1, #0x1
   1276c:	6b04003f 	cmp	w1, w4
   12770:	54ffff61 	b.ne	1275c <get_bl_mem_params_node+0x2c>  // b.any
   12774:	d2800005 	mov	x5, #0x0                   	// #0
   12778:	aa0503e0 	mov	x0, x5
   1277c:	d65f03c0 	ret
   12780:	37ffffa1 	tbnz	w1, #31, 12774 <get_bl_mem_params_node+0x44>
   12784:	52801700 	mov	w0, #0xb8                  	// #184
   12788:	9b201425 	smaddl	x5, w1, w0, x5
   1278c:	aa0503e0 	mov	x0, x5
   12790:	d65f03c0 	ret
   12794:	00000000 	.inst	0x00000000 ; undefined

0000000000012798 <get_bl_load_info_from_mem_params_desc>:
   12798:	b0000060 	adrp	x0, 1f000 <__RO_END__>
   1279c:	b948c004 	ldr	w4, [x0, #2240]
   127a0:	34000444 	cbz	w4, 12828 <get_bl_load_info_from_mem_params_desc+0x90>
   127a4:	b0000060 	adrp	x0, 1f000 <__RO_END__>
   127a8:	d0000061 	adrp	x1, 20000 <__STACKS_START__+0x700>
   127ac:	d2804083 	mov	x3, #0x204                 	// #516
   127b0:	51000484 	sub	w4, w4, #0x1
   127b4:	f940c002 	ldr	x2, [x0, #384]
   127b8:	f2a00203 	movk	x3, #0x10, lsl #16
   127bc:	91240020 	add	x0, x1, #0x900
   127c0:	f9048023 	str	x3, [x1, #2304]
   127c4:	91002041 	add	x1, x2, #0x8
   127c8:	91030043 	add	x3, x2, #0xc0
   127cc:	52801705 	mov	w5, #0xb8                  	// #184
   127d0:	91020042 	add	x2, x2, #0x80
   127d4:	f9000402 	str	x2, [x0, #8]
   127d8:	9102e022 	add	x2, x1, #0xb8
   127dc:	9ba50c84 	umaddl	x4, w4, w5, x3
   127e0:	b85f8023 	ldur	w3, [x1, #-8]
   127e4:	b9007823 	str	w3, [x1, #120]
   127e8:	9104c023 	add	x3, x1, #0x130
   127ec:	f9004021 	str	x1, [x1, #128]
   127f0:	eb04005f 	cmp	x2, x4
   127f4:	aa0203e1 	mov	x1, x2
   127f8:	54000160 	b.eq	12824 <get_bl_load_info_from_mem_params_desc+0x8c>  // b.none
   127fc:	d503201f 	nop
   12800:	f81d0043 	stur	x3, [x2, #-48]
   12804:	9102e022 	add	x2, x1, #0xb8
   12808:	b85f8023 	ldur	w3, [x1, #-8]
   1280c:	eb04005f 	cmp	x2, x4
   12810:	b9007823 	str	w3, [x1, #120]
   12814:	9104c023 	add	x3, x1, #0x130
   12818:	f9004021 	str	x1, [x1, #128]
   1281c:	aa0203e1 	mov	x1, x2
   12820:	54ffff01 	b.ne	12800 <get_bl_load_info_from_mem_params_desc+0x68>  // b.any
   12824:	d65f03c0 	ret
   12828:	d2800000 	mov	x0, #0x0                   	// #0
   1282c:	d65f03c0 	ret

0000000000012830 <get_next_bl_params_from_mem_params_desc>:
   12830:	b0000060 	adrp	x0, 1f000 <__RO_END__>
   12834:	b948c005 	ldr	w5, [x0, #2240]
   12838:	340009a5 	cbz	w5, 1296c <get_next_bl_params_from_mem_params_desc+0x13c>
   1283c:	b0000060 	adrp	x0, 1f000 <__RO_END__>
   12840:	f940c006 	ldr	x6, [x0, #384]
   12844:	b94024c0 	ldr	w0, [x6, #36]
   12848:	121d0400 	and	w0, w0, #0x18
   1284c:	7100601f 	cmp	w0, #0x18
   12850:	540007e0 	b.eq	1294c <get_next_bl_params_from_mem_params_desc+0x11c>  // b.none
   12854:	9102e0c0 	add	x0, x6, #0xb8
   12858:	510004a3 	sub	w3, w5, #0x1
   1285c:	52801701 	mov	w1, #0xb8                  	// #184
   12860:	9ba10063 	umaddl	x3, w3, w1, x0
   12864:	14000006 	b	1287c <get_next_bl_params_from_mem_params_desc+0x4c>
   12868:	b9402441 	ldr	w1, [x2, #36]
   1286c:	9102e000 	add	x0, x0, #0xb8
   12870:	121d0421 	and	w1, w1, #0x18
   12874:	7100603f 	cmp	w1, #0x18
   12878:	540006c0 	b.eq	12950 <get_next_bl_params_from_mem_params_desc+0x120>  // b.none
   1287c:	aa0003e2 	mov	x2, x0
   12880:	eb03001f 	cmp	x0, x3
   12884:	54ffff21 	b.ne	12868 <get_next_bl_params_from_mem_params_desc+0x38>  // b.any
   12888:	d0000061 	adrp	x1, 20000 <__STACKS_START__+0x700>
   1288c:	aa0603e2 	mov	x2, x6
   12890:	91244020 	add	x0, x1, #0x910
   12894:	910260c7 	add	x7, x6, #0x98
   12898:	d28040a3 	mov	x3, #0x205                 	// #517
   1289c:	52800008 	mov	w8, #0x0                   	// #0
   128a0:	f2a00203 	movk	x3, #0x10, lsl #16
   128a4:	f9048823 	str	x3, [x1, #2320]
   128a8:	91002043 	add	x3, x2, #0x8
   128ac:	91008041 	add	x1, x2, #0x20
   128b0:	b9400044 	ldr	w4, [x2]
   128b4:	5280170a 	mov	w10, #0xb8                  	// #184
   128b8:	b9009844 	str	w4, [x2, #152]
   128bc:	b9407844 	ldr	w4, [x2, #120]
   128c0:	a90084e3 	stp	x3, x1, [x7, #8]
   128c4:	3100049f 	cmn	w4, #0x1
   128c8:	54000400 	b.eq	12948 <get_next_bl_params_from_mem_params_desc+0x118>  // b.none
   128cc:	d503201f 	nop
   128d0:	b94000c1 	ldr	w1, [x6]
   128d4:	6b01009f 	cmp	w4, w1
   128d8:	54000460 	b.eq	12964 <get_next_bl_params_from_mem_params_desc+0x134>  // b.none
   128dc:	9102e0c2 	add	x2, x6, #0xb8
   128e0:	52800001 	mov	w1, #0x0                   	// #0
   128e4:	14000004 	b	128f4 <get_next_bl_params_from_mem_params_desc+0xc4>
   128e8:	b84b8443 	ldr	w3, [x2], #184
   128ec:	6b03009f 	cmp	w4, w3
   128f0:	540000a0 	b.eq	12904 <get_next_bl_params_from_mem_params_desc+0xd4>  // b.none
   128f4:	11000421 	add	w1, w1, #0x1
   128f8:	6b0100bf 	cmp	w5, w1
   128fc:	54ffff61 	b.ne	128e8 <get_next_bl_params_from_mem_params_desc+0xb8>  // b.any
   12900:	12800001 	mov	w1, #0xffffffff            	// #-1
   12904:	11000508 	add	w8, w8, #0x1
   12908:	6b0800bf 	cmp	w5, w8
   1290c:	540001e0 	b.eq	12948 <get_next_bl_params_from_mem_params_desc+0x118>  // b.none
   12910:	9baa7c21 	umull	x1, w1, w10
   12914:	8b0100c2 	add	x2, x6, x1
   12918:	91026043 	add	x3, x2, #0x98
   1291c:	91002044 	add	x4, x2, #0x8
   12920:	b86168c9 	ldr	w9, [x6, x1]
   12924:	91008041 	add	x1, x2, #0x20
   12928:	b9009849 	str	w9, [x2, #152]
   1292c:	a9008464 	stp	x4, x1, [x3, #8]
   12930:	b4000047 	cbz	x7, 12938 <get_next_bl_params_from_mem_params_desc+0x108>
   12934:	f9000ce3 	str	x3, [x7, #24]
   12938:	b9407844 	ldr	w4, [x2, #120]
   1293c:	aa0303e7 	mov	x7, x3
   12940:	3100049f 	cmn	w4, #0x1
   12944:	54fffc61 	b.ne	128d0 <get_next_bl_params_from_mem_params_desc+0xa0>  // b.any
   12948:	d65f03c0 	ret
   1294c:	aa0603e2 	mov	x2, x6
   12950:	d0000061 	adrp	x1, 20000 <__STACKS_START__+0x700>
   12954:	91244020 	add	x0, x1, #0x910
   12958:	91026047 	add	x7, x2, #0x98
   1295c:	f9000407 	str	x7, [x0, #8]
   12960:	17ffffce 	b	12898 <get_next_bl_params_from_mem_params_desc+0x68>
   12964:	52800001 	mov	w1, #0x0                   	// #0
   12968:	17ffffe7 	b	12904 <get_next_bl_params_from_mem_params_desc+0xd4>
   1296c:	d2800000 	mov	x0, #0x0                   	// #0
   12970:	d65f03c0 	ret
   12974:	00000000 	.inst	0x00000000 ; undefined

0000000000012978 <tzc400_set_action>:
   12978:	d0000061 	adrp	x1, 20000 <__STACKS_START__+0x700>
   1297c:	f9449021 	ldr	x1, [x1, #2336]
   12980:	b9000420 	str	w0, [x1, #4]
   12984:	d65f03c0 	ret

0000000000012988 <tzc400_init>:
   12988:	d0000062 	adrp	x2, 20000 <__STACKS_START__+0x700>
   1298c:	91248041 	add	x1, x2, #0x920
   12990:	f9049040 	str	x0, [x2, #2336]
   12994:	b9400000 	ldr	w0, [x0]
   12998:	12001002 	and	w2, w0, #0x1f
   1299c:	d3586403 	ubfx	x3, x0, #24, #2
   129a0:	d3483400 	ubfx	x0, x0, #8, #6
   129a4:	11000463 	add	w3, w3, #0x1
   129a8:	11000400 	add	w0, w0, #0x1
   129ac:	11000442 	add	w2, w2, #0x1
   129b0:	39002020 	strb	w0, [x1, #8]
   129b4:	39002423 	strb	w3, [x1, #9]
   129b8:	39002822 	strb	w2, [x1, #10]
   129bc:	d65f03c0 	ret

00000000000129c0 <tzc400_configure_region0>:
   129c0:	d0000062 	adrp	x2, 20000 <__STACKS_START__+0x700>
   129c4:	53020400 	lsl	w0, w0, #30
   129c8:	f9449042 	ldr	x2, [x2, #2336]
   129cc:	b9011040 	str	w0, [x2, #272]
   129d0:	b9011441 	str	w1, [x2, #276]
   129d4:	d65f03c0 	ret

00000000000129d8 <tzc400_configure_region>:
   129d8:	71003c1f 	cmp	w0, #0xf
   129dc:	d0000066 	adrp	x6, 20000 <__STACKS_START__+0x700>
   129e0:	540000c1 	b.ne	129f8 <tzc400_configure_region+0x20>  // b.any
   129e4:	912480c7 	add	x7, x6, #0x920
   129e8:	52800020 	mov	w0, #0x1                   	// #1
   129ec:	394024e7 	ldrb	w7, [x7, #9]
   129f0:	1ac72000 	lsl	w0, w0, w7
   129f4:	51000400 	sub	w0, w0, #0x1
   129f8:	f94490c8 	ldr	x8, [x6, #2336]
   129fc:	52800409 	mov	w9, #0x20                  	// #32
   12a00:	d360fc47 	lsr	x7, x2, #32
   12a04:	d360fc66 	lsr	x6, x3, #32
   12a08:	2a047800 	orr	w0, w0, w4, lsl #30
   12a0c:	9ba92021 	umaddl	x1, w1, w9, x8
   12a10:	b9010022 	str	w2, [x1, #256]
   12a14:	b9010427 	str	w7, [x1, #260]
   12a18:	b9010823 	str	w3, [x1, #264]
   12a1c:	b9010c26 	str	w6, [x1, #268]
   12a20:	b9011020 	str	w0, [x1, #272]
   12a24:	b9011425 	str	w5, [x1, #276]
   12a28:	d65f03c0 	ret
   12a2c:	00000000 	.inst	0x00000000 ; undefined

0000000000012a30 <tzc400_enable_filters>:
   12a30:	d0000060 	adrp	x0, 20000 <__STACKS_START__+0x700>
   12a34:	91248001 	add	x1, x0, #0x920
   12a38:	39402424 	ldrb	w4, [x1, #9]
   12a3c:	340003c4 	cbz	w4, 12ab4 <tzc400_enable_filters+0x84>
   12a40:	f9449002 	ldr	x2, [x0, #2336]
   12a44:	52800001 	mov	w1, #0x0                   	// #0
   12a48:	d2800025 	mov	x5, #0x1                   	// #1
   12a4c:	91002042 	add	x2, x2, #0x8
   12a50:	b9400040 	ldr	w0, [x2]
   12a54:	d3504c00 	ubfx	x0, x0, #16, #4
   12a58:	1ac12400 	lsr	w0, w0, w1
   12a5c:	36000120 	tbz	w0, #0, 12a80 <tzc400_enable_filters+0x50>
   12a60:	34000241 	cbz	w1, 12aa8 <tzc400_enable_filters+0x78>
   12a64:	d0000040 	adrp	x0, 1c000 <vprintf+0x418>
   12a68:	9108e000 	add	x0, x0, #0x238
   12a6c:	a9bf7bfd 	stp	x29, x30, [sp, #-16]!
   12a70:	910003fd 	mov	x29, sp
   12a74:	940020fb 	bl	1ae60 <tf_log>
   12a78:	94002166 	bl	1b010 <console_flush>
   12a7c:	97fffde7 	bl	12218 <do_panic>
   12a80:	b9400040 	ldr	w0, [x2]
   12a84:	9ac120a3 	lsl	x3, x5, x1
   12a88:	d3504c00 	ubfx	x0, x0, #16, #4
   12a8c:	2a030003 	orr	w3, w0, w3
   12a90:	12000c60 	and	w0, w3, #0xf
   12a94:	b9000040 	str	w0, [x2]
   12a98:	b9400040 	ldr	w0, [x2]
   12a9c:	d3504c00 	ubfx	x0, x0, #16, #4
   12aa0:	6b00007f 	cmp	w3, w0
   12aa4:	54ffffa1 	b.ne	12a98 <tzc400_enable_filters+0x68>  // b.any
   12aa8:	11000421 	add	w1, w1, #0x1
   12aac:	6b04003f 	cmp	w1, w4
   12ab0:	54fffd01 	b.ne	12a50 <tzc400_enable_filters+0x20>  // b.any
   12ab4:	d65f03c0 	ret

0000000000012ab8 <tzc400_disable_filters>:
   12ab8:	d0000060 	adrp	x0, 20000 <__STACKS_START__+0x700>
   12abc:	91248001 	add	x1, x0, #0x920
   12ac0:	f9449000 	ldr	x0, [x0, #2336]
   12ac4:	39402424 	ldrb	w4, [x1, #9]
   12ac8:	91002002 	add	x2, x0, #0x8
   12acc:	b9400803 	ldr	w3, [x0, #8]
   12ad0:	d3504063 	ubfx	x3, x3, #16, #1
   12ad4:	6b04007f 	cmp	w3, w4
   12ad8:	540001e2 	b.cs	12b14 <tzc400_disable_filters+0x5c>  // b.hs, b.nlast
   12adc:	d2800025 	mov	x5, #0x1                   	// #1
   12ae0:	b9400040 	ldr	w0, [x2]
   12ae4:	9ac320a1 	lsl	x1, x5, x3
   12ae8:	53107c00 	lsr	w0, w0, #16
   12aec:	0a210001 	bic	w1, w0, w1
   12af0:	12000c21 	and	w1, w1, #0xf
   12af4:	b9000041 	str	w1, [x2]
   12af8:	b9400040 	ldr	w0, [x2]
   12afc:	d3504c00 	ubfx	x0, x0, #16, #4
   12b00:	6b00003f 	cmp	w1, w0
   12b04:	54ffffa1 	b.ne	12af8 <tzc400_disable_filters+0x40>  // b.any
   12b08:	11000463 	add	w3, w3, #0x1
   12b0c:	6b04007f 	cmp	w3, w4
   12b10:	54fffe81 	b.ne	12ae0 <tzc400_disable_filters+0x28>  // b.any
   12b14:	d65f03c0 	ret

0000000000012b18 <udelay>:
   12b18:	a9bd7bfd 	stp	x29, x30, [sp, #-48]!
   12b1c:	910003fd 	mov	x29, sp
   12b20:	a90153f3 	stp	x19, x20, [sp, #16]
   12b24:	d0000074 	adrp	x20, 20000 <__STACKS_START__+0x700>
   12b28:	2a0003f3 	mov	w19, w0
   12b2c:	f9449a80 	ldr	x0, [x20, #2352]
   12b30:	f9400000 	ldr	x0, [x0]
   12b34:	f90013f5 	str	x21, [sp, #32]
   12b38:	d63f0000 	blr	x0
   12b3c:	2a0003f5 	mov	w21, w0
   12b40:	f9449a81 	ldr	x1, [x20, #2352]
   12b44:	29410c20 	ldp	w0, w3, [x1, #8]
   12b48:	d1000402 	sub	x2, x0, #0x1
   12b4c:	9ba30a73 	umaddl	x19, w19, w3, x2
   12b50:	9ac00a73 	udiv	x19, x19, x0
   12b54:	91000673 	add	x19, x19, #0x1
   12b58:	14000002 	b	12b60 <udelay+0x48>
   12b5c:	f9449a81 	ldr	x1, [x20, #2352]
   12b60:	f9400020 	ldr	x0, [x1]
   12b64:	d63f0000 	blr	x0
   12b68:	4b0002a0 	sub	w0, w21, w0
   12b6c:	eb13001f 	cmp	x0, x19
   12b70:	54ffff63 	b.cc	12b5c <udelay+0x44>  // b.lo, b.ul, b.last
   12b74:	a94153f3 	ldp	x19, x20, [sp, #16]
   12b78:	f94013f5 	ldr	x21, [sp, #32]
   12b7c:	a8c37bfd 	ldp	x29, x30, [sp], #48
   12b80:	d65f03c0 	ret
   12b84:	00000000 	.inst	0x00000000 ; undefined

0000000000012b88 <timer_init>:
   12b88:	d0000061 	adrp	x1, 20000 <__STACKS_START__+0x700>
   12b8c:	f9049820 	str	x0, [x1, #2352]
   12b90:	d65f03c0 	ret
   12b94:	00000000 	.inst	0x00000000 ; undefined

0000000000012b98 <get_timer_value>:
   12b98:	d53be020 	mrs	x0, cntpct_el0
   12b9c:	2a2003e0 	mvn	w0, w0
   12ba0:	d65f03c0 	ret
   12ba4:	00000000 	.inst	0x00000000 ; undefined

0000000000012ba8 <generic_delay_timer_init>:
   12ba8:	a9bf7bfd 	stp	x29, x30, [sp, #-16]!
   12bac:	910003fd 	mov	x29, sp
   12bb0:	94002384 	bl	1b9c0 <plat_get_syscnt_freq2>
   12bb4:	2a0003e1 	mov	w1, w0
   12bb8:	529999a3 	mov	w3, #0xcccd                	// #52429
   12bbc:	52884804 	mov	w4, #0x4240                	// #16960
   12bc0:	72b99983 	movk	w3, #0xcccc, lsl #16
   12bc4:	72a001e4 	movk	w4, #0xf, lsl #16
   12bc8:	9ba37c00 	umull	x0, w0, w3
   12bcc:	d363fc00 	lsr	x0, x0, #35
   12bd0:	0b000802 	add	w2, w0, w0, lsl #2
   12bd4:	6b02043f 	cmp	w1, w2, lsl #1
   12bd8:	540001e1 	b.ne	12c14 <generic_delay_timer_init+0x6c>  // b.any
   12bdc:	5290d404 	mov	w4, #0x86a0                	// #34464
   12be0:	2a0003e1 	mov	w1, w0
   12be4:	528000a2 	mov	w2, #0x5                   	// #5
   12be8:	72a00024 	movk	w4, #0x1, lsl #16
   12bec:	9ba37c20 	umull	x0, w1, w3
   12bf0:	9ba37c86 	umull	x6, w4, w3
   12bf4:	d363fc00 	lsr	x0, x0, #35
   12bf8:	0b000805 	add	w5, w0, w0, lsl #2
   12bfc:	6b05043f 	cmp	w1, w5, lsl #1
   12c00:	540000a1 	b.ne	12c14 <generic_delay_timer_init+0x6c>  // b.any
   12c04:	d363fcc4 	lsr	x4, x6, #35
   12c08:	2a0003e1 	mov	w1, w0
   12c0c:	71000442 	subs	w2, w2, #0x1
   12c10:	54fffee1 	b.ne	12bec <generic_delay_timer_init+0x44>  // b.any
   12c14:	d0000065 	adrp	x5, 20000 <__STACKS_START__+0x700>
   12c18:	9124e0a2 	add	x2, x5, #0x938
   12c1c:	90000003 	adrp	x3, 12000 <bl2_entrypoint>
   12c20:	aa0203e0 	mov	x0, x2
   12c24:	912e6063 	add	x3, x3, #0xb98
   12c28:	f9049ca3 	str	x3, [x5, #2360]
   12c2c:	29010444 	stp	w4, w1, [x2, #8]
   12c30:	a8c17bfd 	ldp	x29, x30, [sp], #16
   12c34:	17ffffd5 	b	12b88 <timer_init>

0000000000012c38 <device_type_fip>:
   12c38:	52800080 	mov	w0, #0x4                   	// #4
   12c3c:	d65f03c0 	ret

0000000000012c40 <fip_dev_open>:
   12c40:	f0000063 	adrp	x3, 21000 <sd_drv_work_area+0x58>
   12c44:	b9444062 	ldr	w2, [x3, #1088]
   12c48:	35000362 	cbnz	w2, 12cb4 <fip_dev_open+0x74>
   12c4c:	d0000062 	adrp	x2, 20000 <__STACKS_START__+0x700>
   12c50:	91266046 	add	x6, x2, #0x998
   12c54:	f944cc44 	ldr	x4, [x2, #2456]
   12c58:	b50001a4 	cbnz	x4, 12c8c <fip_dev_open+0x4c>
   12c5c:	d0000065 	adrp	x5, 20000 <__STACKS_START__+0x700>
   12c60:	912620a4 	add	x4, x5, #0x988
   12c64:	f904cc40 	str	x0, [x2, #2456]
   12c68:	d0000040 	adrp	x0, 1c000 <vprintf+0x418>
   12c6c:	9109e000 	add	x0, x0, #0x278
   12c70:	f904c4a0 	str	x0, [x5, #2440]
   12c74:	f9000486 	str	x6, [x4, #8]
   12c78:	52800022 	mov	w2, #0x1                   	// #1
   12c7c:	52800000 	mov	w0, #0x0                   	// #0
   12c80:	b9044062 	str	w2, [x3, #1088]
   12c84:	f9000024 	str	x4, [x1]
   12c88:	d65f03c0 	ret
   12c8c:	d0000061 	adrp	x1, 20000 <__STACKS_START__+0x700>
   12c90:	91262022 	add	x2, x1, #0x988
   12c94:	d0000040 	adrp	x0, 1c000 <vprintf+0x418>
   12c98:	9109e000 	add	x0, x0, #0x278
   12c9c:	52800024 	mov	w4, #0x1                   	// #1
   12ca0:	f904c420 	str	x0, [x1, #2440]
   12ca4:	b9044064 	str	w4, [x3, #1088]
   12ca8:	12800160 	mov	w0, #0xfffffff4            	// #-12
   12cac:	f9000446 	str	x6, [x2, #8]
   12cb0:	d65f03c0 	ret
   12cb4:	12800160 	mov	w0, #0xfffffff4            	// #-12
   12cb8:	d65f03c0 	ret
   12cbc:	00000000 	.inst	0x00000000 ; undefined

0000000000012cc0 <fip_file_len>:
   12cc0:	f9400402 	ldr	x2, [x0, #8]
   12cc4:	52800000 	mov	w0, #0x0                   	// #0
   12cc8:	f9401042 	ldr	x2, [x2, #32]
   12ccc:	f9000022 	str	x2, [x1]
   12cd0:	d65f03c0 	ret
   12cd4:	00000000 	.inst	0x00000000 ; undefined

0000000000012cd8 <fip_dev_close>:
   12cd8:	f9400400 	ldr	x0, [x0, #8]
   12cdc:	d0000062 	adrp	x2, 20000 <__STACKS_START__+0x700>
   12ce0:	d0000061 	adrp	x1, 20000 <__STACKS_START__+0x700>
   12ce4:	d0000063 	adrp	x3, 20000 <__STACKS_START__+0x700>
   12ce8:	f904a45f 	str	xzr, [x2, #2376]
   12cec:	f944cc21 	ldr	x1, [x1, #2456]
   12cf0:	f9400002 	ldr	x2, [x0]
   12cf4:	f904a87f 	str	xzr, [x3, #2384]
   12cf8:	eb01005f 	cmp	x2, x1
   12cfc:	54000181 	b.ne	12d2c <fip_dev_close+0x54>  // b.any
   12d00:	a9bf7bfd 	stp	x29, x30, [sp, #-16]!
   12d04:	d2800201 	mov	x1, #0x10                  	// #16
   12d08:	910003fd 	mov	x29, sp
   12d0c:	97fffd6b 	bl	122b8 <zeromem>
   12d10:	f0000062 	adrp	x2, 21000 <sd_drv_work_area+0x58>
   12d14:	52800000 	mov	w0, #0x0                   	// #0
   12d18:	a8c17bfd 	ldp	x29, x30, [sp], #16
   12d1c:	b9444041 	ldr	w1, [x2, #1088]
   12d20:	51000421 	sub	w1, w1, #0x1
   12d24:	b9044041 	str	w1, [x2, #1088]
   12d28:	d65f03c0 	ret
   12d2c:	12800020 	mov	w0, #0xfffffffe            	// #-2
   12d30:	d65f03c0 	ret
   12d34:	00000000 	.inst	0x00000000 ; undefined

0000000000012d38 <fip_file_close>:
   12d38:	a9be7bfd 	stp	x29, x30, [sp, #-32]!
   12d3c:	d0000061 	adrp	x1, 20000 <__STACKS_START__+0x700>
   12d40:	91256021 	add	x1, x1, #0x958
   12d44:	910003fd 	mov	x29, sp
   12d48:	f9000bf3 	str	x19, [sp, #16]
   12d4c:	aa0003f3 	mov	x19, x0
   12d50:	f9400c20 	ldr	x0, [x1, #24]
   12d54:	b50000c0 	cbnz	x0, 12d6c <fip_file_close+0x34>
   12d58:	f900067f 	str	xzr, [x19, #8]
   12d5c:	52800000 	mov	w0, #0x0                   	// #0
   12d60:	f9400bf3 	ldr	x19, [sp, #16]
   12d64:	a8c27bfd 	ldp	x29, x30, [sp], #32
   12d68:	d65f03c0 	ret
   12d6c:	aa0103e0 	mov	x0, x1
   12d70:	d2800601 	mov	x1, #0x30                  	// #48
   12d74:	97fffd51 	bl	122b8 <zeromem>
   12d78:	f900067f 	str	xzr, [x19, #8]
   12d7c:	52800000 	mov	w0, #0x0                   	// #0
   12d80:	f9400bf3 	ldr	x19, [sp, #16]
   12d84:	a8c27bfd 	ldp	x29, x30, [sp], #32
   12d88:	d65f03c0 	ret
   12d8c:	00000000 	.inst	0x00000000 ; undefined

0000000000012d90 <fip_dev_init>:
   12d90:	a9bb7bfd 	stp	x29, x30, [sp, #-80]!
   12d94:	aa0103e3 	mov	x3, x1
   12d98:	910003fd 	mov	x29, sp
   12d9c:	a90153f3 	stp	x19, x20, [sp, #16]
   12da0:	d0000074 	adrp	x20, 20000 <__STACKS_START__+0x700>
   12da4:	d0000073 	adrp	x19, 20000 <__STACKS_START__+0x700>
   12da8:	91254282 	add	x2, x20, #0x950
   12dac:	91252261 	add	x1, x19, #0x948
   12db0:	f90013f5 	str	x21, [sp, #32]
   12db4:	f9400415 	ldr	x21, [x0, #8]
   12db8:	2a0303e0 	mov	w0, w3
   12dbc:	94001fb7 	bl	1ac98 <plat_get_image_source>
   12dc0:	350003e0 	cbnz	w0, 12e3c <fip_dev_init+0xac>
   12dc4:	f944aa81 	ldr	x1, [x20, #2384]
   12dc8:	9100c3e2 	add	x2, sp, #0x30
   12dcc:	f944a660 	ldr	x0, [x19, #2376]
   12dd0:	94000134 	bl	132a0 <io_open>
   12dd4:	35000340 	cbnz	w0, 12e3c <fip_dev_init+0xac>
   12dd8:	f9401be0 	ldr	x0, [sp, #48]
   12ddc:	9100e3e3 	add	x3, sp, #0x38
   12de0:	d2800202 	mov	x2, #0x10                  	// #16
   12de4:	910103e1 	add	x1, sp, #0x40
   12de8:	9400017c 	bl	133d8 <io_read>
   12dec:	2a0003f3 	mov	w19, w0
   12df0:	35000140 	cbnz	w0, 12e18 <fip_dev_init+0x88>
   12df4:	b94043e1 	ldr	w1, [sp, #64]
   12df8:	52800020 	mov	w0, #0x1                   	// #1
   12dfc:	72b54c80 	movk	w0, #0xaa64, lsl #16
   12e00:	6b00003f 	cmp	w1, w0
   12e04:	54000181 	b.ne	12e34 <fip_dev_init+0xa4>  // b.any
   12e08:	b94047e0 	ldr	w0, [sp, #68]
   12e0c:	34000140 	cbz	w0, 12e34 <fip_dev_init+0xa4>
   12e10:	b9404fe0 	ldr	w0, [sp, #76]
   12e14:	790012a0 	strh	w0, [x21, #8]
   12e18:	f9401be0 	ldr	x0, [sp, #48]
   12e1c:	94000177 	bl	133f8 <io_close>
   12e20:	2a1303e0 	mov	w0, w19
   12e24:	a94153f3 	ldp	x19, x20, [sp, #16]
   12e28:	f94013f5 	ldr	x21, [sp, #32]
   12e2c:	a8c57bfd 	ldp	x29, x30, [sp], #80
   12e30:	d65f03c0 	ret
   12e34:	12800033 	mov	w19, #0xfffffffe            	// #-2
   12e38:	17fffff8 	b	12e18 <fip_dev_init+0x88>
   12e3c:	12800033 	mov	w19, #0xfffffffe            	// #-2
   12e40:	17fffff8 	b	12e20 <fip_dev_init+0x90>
   12e44:	00000000 	.inst	0x00000000 ; undefined

0000000000012e48 <fip_file_read>:
   12e48:	a9bc7bfd 	stp	x29, x30, [sp, #-64]!
   12e4c:	d0000064 	adrp	x4, 20000 <__STACKS_START__+0x700>
   12e50:	d0000065 	adrp	x5, 20000 <__STACKS_START__+0x700>
   12e54:	910003fd 	mov	x29, sp
   12e58:	a90153f3 	stp	x19, x20, [sp, #16]
   12e5c:	aa0003f3 	mov	x19, x0
   12e60:	aa0103f4 	mov	x20, x1
   12e64:	f944a4a0 	ldr	x0, [x5, #2376]
   12e68:	a9025bf5 	stp	x21, x22, [sp, #32]
   12e6c:	aa0203f5 	mov	x21, x2
   12e70:	f944a881 	ldr	x1, [x4, #2384]
   12e74:	aa0303f6 	mov	x22, x3
   12e78:	9100e3e2 	add	x2, sp, #0x38
   12e7c:	94000109 	bl	132a0 <io_open>
   12e80:	350003c0 	cbnz	w0, 12ef8 <fip_file_read+0xb0>
   12e84:	f9400673 	ldr	x19, [x19, #8]
   12e88:	52800021 	mov	w1, #0x1                   	// #1
   12e8c:	f9401fe0 	ldr	x0, [sp, #56]
   12e90:	b9400263 	ldr	w3, [x19]
   12e94:	f9400e62 	ldr	x2, [x19, #24]
   12e98:	8b020062 	add	x2, x3, x2
   12e9c:	9400013f 	bl	13398 <io_seek>
   12ea0:	34000120 	cbz	w0, 12ec4 <fip_file_read+0x7c>
   12ea4:	12800034 	mov	w20, #0xfffffffe            	// #-2
   12ea8:	f9401fe0 	ldr	x0, [sp, #56]
   12eac:	94000153 	bl	133f8 <io_close>
   12eb0:	2a1403e0 	mov	w0, w20
   12eb4:	a94153f3 	ldp	x19, x20, [sp, #16]
   12eb8:	a9425bf5 	ldp	x21, x22, [sp, #32]
   12ebc:	a8c47bfd 	ldp	x29, x30, [sp], #64
   12ec0:	d65f03c0 	ret
   12ec4:	f9401fe0 	ldr	x0, [sp, #56]
   12ec8:	aa1403e1 	mov	x1, x20
   12ecc:	aa1503e2 	mov	x2, x21
   12ed0:	9100c3e3 	add	x3, sp, #0x30
   12ed4:	94000141 	bl	133d8 <io_read>
   12ed8:	2a0003f4 	mov	w20, w0
   12edc:	35fffe40 	cbnz	w0, 12ea4 <fip_file_read+0x5c>
   12ee0:	f9401be1 	ldr	x1, [sp, #48]
   12ee4:	b9400260 	ldr	w0, [x19]
   12ee8:	f90002c1 	str	x1, [x22]
   12eec:	0b010000 	add	w0, w0, w1
   12ef0:	b9000260 	str	w0, [x19]
   12ef4:	17ffffed 	b	12ea8 <fip_file_read+0x60>
   12ef8:	12800034 	mov	w20, #0xfffffffe            	// #-2
   12efc:	17ffffed 	b	12eb0 <fip_file_read+0x68>

0000000000012f00 <fip_file_open>:
   12f00:	a9ba7bfd 	stp	x29, x30, [sp, #-96]!
   12f04:	910003fd 	mov	x29, sp
   12f08:	a90363f7 	stp	x23, x24, [sp, #48]
   12f0c:	d0000078 	adrp	x24, 20000 <__STACKS_START__+0x700>
   12f10:	91256318 	add	x24, x24, #0x958
   12f14:	a90153f3 	stp	x19, x20, [sp, #16]
   12f18:	f9400f00 	ldr	x0, [x24, #24]
   12f1c:	b5000700 	cbnz	x0, 12ffc <fip_file_open+0xfc>
   12f20:	d0000060 	adrp	x0, 20000 <__STACKS_START__+0x700>
   12f24:	a9025bf5 	stp	x21, x22, [sp, #32]
   12f28:	aa0103f5 	mov	x21, x1
   12f2c:	d0000061 	adrp	x1, 20000 <__STACKS_START__+0x700>
   12f30:	f90023f9 	str	x25, [sp, #64]
   12f34:	f944a400 	ldr	x0, [x0, #2376]
   12f38:	aa0203f9 	mov	x25, x2
   12f3c:	f944a821 	ldr	x1, [x1, #2384]
   12f40:	910143e2 	add	x2, sp, #0x50
   12f44:	940000d7 	bl	132a0 <io_open>
   12f48:	350005e0 	cbnz	w0, 13004 <fip_file_open+0x104>
   12f4c:	f9402be0 	ldr	x0, [sp, #80]
   12f50:	d2800202 	mov	x2, #0x10                  	// #16
   12f54:	52800021 	mov	w1, #0x1                   	// #1
   12f58:	12800033 	mov	w19, #0xfffffffe            	// #-2
   12f5c:	9400010f 	bl	13398 <io_seek>
   12f60:	35000300 	cbnz	w0, 12fc0 <fip_file_open+0xc0>
   12f64:	91002314 	add	x20, x24, #0x8
   12f68:	d0000056 	adrp	x22, 1c000 <vprintf+0x418>
   12f6c:	aa1403f7 	mov	x23, x20
   12f70:	910b02d6 	add	x22, x22, #0x2c0
   12f74:	1400000c 	b	12fa4 <fip_file_open+0xa4>
   12f78:	d2800202 	mov	x2, #0x10                  	// #16
   12f7c:	aa1503e1 	mov	x1, x21
   12f80:	aa1703e0 	mov	x0, x23
   12f84:	94002291 	bl	1b9c8 <memcmp>
   12f88:	2a0003f3 	mov	w19, w0
   12f8c:	34000320 	cbz	w0, 12ff0 <fip_file_open+0xf0>
   12f90:	d2800202 	mov	x2, #0x10                  	// #16
   12f94:	aa1603e1 	mov	x1, x22
   12f98:	aa1403e0 	mov	x0, x20
   12f9c:	9400228b 	bl	1b9c8 <memcmp>
   12fa0:	34000220 	cbz	w0, 12fe4 <fip_file_open+0xe4>
   12fa4:	f9402be0 	ldr	x0, [sp, #80]
   12fa8:	910163e3 	add	x3, sp, #0x58
   12fac:	d2800502 	mov	x2, #0x28                  	// #40
   12fb0:	aa1403e1 	mov	x1, x20
   12fb4:	94000109 	bl	133d8 <io_read>
   12fb8:	2a0003f3 	mov	w19, w0
   12fbc:	34fffde0 	cbz	w0, 12f78 <fip_file_open+0x78>
   12fc0:	f9402be0 	ldr	x0, [sp, #80]
   12fc4:	9400010d 	bl	133f8 <io_close>
   12fc8:	a9425bf5 	ldp	x21, x22, [sp, #32]
   12fcc:	f94023f9 	ldr	x25, [sp, #64]
   12fd0:	2a1303e0 	mov	w0, w19
   12fd4:	a94153f3 	ldp	x19, x20, [sp, #16]
   12fd8:	a94363f7 	ldp	x23, x24, [sp, #48]
   12fdc:	a8c67bfd 	ldp	x29, x30, [sp], #96
   12fe0:	d65f03c0 	ret
   12fe4:	12800033 	mov	w19, #0xfffffffe            	// #-2
   12fe8:	f9000f1f 	str	xzr, [x24, #24]
   12fec:	17fffff5 	b	12fc0 <fip_file_open+0xc0>
   12ff0:	b900031f 	str	wzr, [x24]
   12ff4:	f9000738 	str	x24, [x25, #8]
   12ff8:	17fffff2 	b	12fc0 <fip_file_open+0xc0>
   12ffc:	128002d3 	mov	w19, #0xffffffe9            	// #-23
   13000:	17fffff4 	b	12fd0 <fip_file_open+0xd0>
   13004:	12800033 	mov	w19, #0xfffffffe            	// #-2
   13008:	a9425bf5 	ldp	x21, x22, [sp, #32]
   1300c:	f94023f9 	ldr	x25, [sp, #64]
   13010:	17fffff0 	b	12fd0 <fip_file_open+0xd0>
   13014:	00000000 	.inst	0x00000000 ; undefined

0000000000013018 <register_io_dev_fip>:
   13018:	a9be7bfd 	stp	x29, x30, [sp, #-32]!
   1301c:	910003fd 	mov	x29, sp
   13020:	f9000bf3 	str	x19, [sp, #16]
   13024:	aa0003f3 	mov	x19, x0
   13028:	b0000060 	adrp	x0, 20000 <__STACKS_START__+0x700>
   1302c:	91262000 	add	x0, x0, #0x988
   13030:	94000082 	bl	13238 <io_register_device>
   13034:	35000080 	cbnz	w0, 13044 <register_io_dev_fip+0x2c>
   13038:	b0000041 	adrp	x1, 1c000 <vprintf+0x418>
   1303c:	9109c021 	add	x1, x1, #0x270
   13040:	f9000261 	str	x1, [x19]
   13044:	f9400bf3 	ldr	x19, [sp, #16]
   13048:	a8c27bfd 	ldp	x29, x30, [sp], #32
   1304c:	d65f03c0 	ret

0000000000013050 <device_type_memmap>:
   13050:	52800040 	mov	w0, #0x2                   	// #2
   13054:	d65f03c0 	ret

0000000000013058 <memmap_dev_open>:
   13058:	90000062 	adrp	x2, 1f000 <__RO_END__>
   1305c:	52800000 	mov	w0, #0x0                   	// #0
   13060:	91000042 	add	x2, x2, #0x0
   13064:	f9000022 	str	x2, [x1]
   13068:	d65f03c0 	ret
   1306c:	00000000 	.inst	0x00000000 ; undefined

0000000000013070 <memmap_dev_close>:
   13070:	52800000 	mov	w0, #0x0                   	// #0
   13074:	d65f03c0 	ret

0000000000013078 <memmap_block_open>:
   13078:	b0000064 	adrp	x4, 20000 <__STACKS_START__+0x700>
   1307c:	9126a083 	add	x3, x4, #0x9a8
   13080:	b949a880 	ldr	w0, [x4, #2472]
   13084:	35000100 	cbnz	w0, 130a4 <memmap_block_open+0x2c>
   13088:	a9400425 	ldp	x5, x1, [x1]
   1308c:	a900fc65 	stp	x5, xzr, [x3, #8]
   13090:	f9000c61 	str	x1, [x3, #24]
   13094:	52800021 	mov	w1, #0x1                   	// #1
   13098:	b909a881 	str	w1, [x4, #2472]
   1309c:	f9000443 	str	x3, [x2, #8]
   130a0:	d65f03c0 	ret
   130a4:	12800160 	mov	w0, #0xfffffff4            	// #-12
   130a8:	d65f03c0 	ret
   130ac:	00000000 	.inst	0x00000000 ; undefined

00000000000130b0 <memmap_block_seek>:
   130b0:	7100043f 	cmp	w1, #0x1
   130b4:	540000a1 	b.ne	130c8 <memmap_block_seek+0x18>  // b.any
   130b8:	f9400401 	ldr	x1, [x0, #8]
   130bc:	52800000 	mov	w0, #0x0                   	// #0
   130c0:	f9000822 	str	x2, [x1, #16]
   130c4:	d65f03c0 	ret
   130c8:	12800020 	mov	w0, #0xfffffffe            	// #-2
   130cc:	d65f03c0 	ret

00000000000130d0 <memmap_block_len>:
   130d0:	f9400402 	ldr	x2, [x0, #8]
   130d4:	52800000 	mov	w0, #0x0                   	// #0
   130d8:	f9400c42 	ldr	x2, [x2, #24]
   130dc:	f9000022 	str	x2, [x1]
   130e0:	d65f03c0 	ret
   130e4:	00000000 	.inst	0x00000000 ; undefined

00000000000130e8 <memmap_block_close>:
   130e8:	a9bf7bfd 	stp	x29, x30, [sp, #-16]!
   130ec:	d2800401 	mov	x1, #0x20                  	// #32
   130f0:	910003fd 	mov	x29, sp
   130f4:	f900041f 	str	xzr, [x0, #8]
   130f8:	b0000060 	adrp	x0, 20000 <__STACKS_START__+0x700>
   130fc:	9126a000 	add	x0, x0, #0x9a8
   13100:	97fffc6e 	bl	122b8 <zeromem>
   13104:	52800000 	mov	w0, #0x0                   	// #0
   13108:	a8c17bfd 	ldp	x29, x30, [sp], #16
   1310c:	d65f03c0 	ret

0000000000013110 <memmap_block_write>:
   13110:	a9bd7bfd 	stp	x29, x30, [sp, #-48]!
   13114:	910003fd 	mov	x29, sp
   13118:	a90153f3 	stp	x19, x20, [sp, #16]
   1311c:	aa0203f4 	mov	x20, x2
   13120:	f9400413 	ldr	x19, [x0, #8]
   13124:	a9025bf5 	stp	x21, x22, [sp, #32]
   13128:	aa0303f6 	mov	x22, x3
   1312c:	a9408263 	ldp	x3, x0, [x19, #8]
   13130:	8b020015 	add	x21, x0, x2
   13134:	8b030000 	add	x0, x0, x3
   13138:	94002232 	bl	1ba00 <memcpy>
   1313c:	f90002d4 	str	x20, [x22]
   13140:	f9000a75 	str	x21, [x19, #16]
   13144:	52800000 	mov	w0, #0x0                   	// #0
   13148:	a94153f3 	ldp	x19, x20, [sp, #16]
   1314c:	a9425bf5 	ldp	x21, x22, [sp, #32]
   13150:	a8c37bfd 	ldp	x29, x30, [sp], #48
   13154:	d65f03c0 	ret

0000000000013158 <memmap_block_read>:
   13158:	a9bd7bfd 	stp	x29, x30, [sp, #-48]!
   1315c:	910003fd 	mov	x29, sp
   13160:	a90153f3 	stp	x19, x20, [sp, #16]
   13164:	aa0203f4 	mov	x20, x2
   13168:	f9400413 	ldr	x19, [x0, #8]
   1316c:	aa0103e0 	mov	x0, x1
   13170:	a9025bf5 	stp	x21, x22, [sp, #32]
   13174:	aa0303f6 	mov	x22, x3
   13178:	a9408663 	ldp	x3, x1, [x19, #8]
   1317c:	8b020035 	add	x21, x1, x2
   13180:	8b030021 	add	x1, x1, x3
   13184:	9400221f 	bl	1ba00 <memcpy>
   13188:	f90002d4 	str	x20, [x22]
   1318c:	f9000a75 	str	x21, [x19, #16]
   13190:	52800000 	mov	w0, #0x0                   	// #0
   13194:	a94153f3 	ldp	x19, x20, [sp, #16]
   13198:	a9425bf5 	ldp	x21, x22, [sp, #32]
   1319c:	a8c37bfd 	ldp	x29, x30, [sp], #48
   131a0:	d65f03c0 	ret
   131a4:	00000000 	.inst	0x00000000 ; undefined

00000000000131a8 <register_io_dev_memmap>:
   131a8:	a9be7bfd 	stp	x29, x30, [sp, #-32]!
   131ac:	910003fd 	mov	x29, sp
   131b0:	f9000bf3 	str	x19, [sp, #16]
   131b4:	aa0003f3 	mov	x19, x0
   131b8:	90000060 	adrp	x0, 1f000 <__RO_END__>
   131bc:	91000000 	add	x0, x0, #0x0
   131c0:	9400001e 	bl	13238 <io_register_device>
   131c4:	35000080 	cbnz	w0, 131d4 <register_io_dev_memmap+0x2c>
   131c8:	b0000041 	adrp	x1, 1c000 <vprintf+0x418>
   131cc:	910b4021 	add	x1, x1, #0x2d0
   131d0:	f9000261 	str	x1, [x19]
   131d4:	f9400bf3 	ldr	x19, [sp, #16]
   131d8:	a8c27bfd 	ldp	x29, x30, [sp], #32
   131dc:	d65f03c0 	ret

00000000000131e0 <free_entity>:
   131e0:	b0000061 	adrp	x1, 20000 <__STACKS_START__+0x700>
   131e4:	91272022 	add	x2, x1, #0x9c8
   131e8:	f944e421 	ldr	x1, [x1, #2504]
   131ec:	eb01001f 	cmp	x0, x1
   131f0:	540000e0 	b.eq	1320c <free_entity+0x2c>  // b.none
   131f4:	f9400443 	ldr	x3, [x2, #8]
   131f8:	12800021 	mov	w1, #0xfffffffe            	// #-2
   131fc:	eb03001f 	cmp	x0, x3
   13200:	54000180 	b.eq	13230 <free_entity+0x50>  // b.none
   13204:	2a0103e0 	mov	w0, w1
   13208:	d65f03c0 	ret
   1320c:	d2800003 	mov	x3, #0x0                   	// #0
   13210:	d0000064 	adrp	x4, 21000 <sd_drv_work_area+0x58>
   13214:	52800001 	mov	w1, #0x0                   	// #0
   13218:	f823785f 	str	xzr, [x2, x3, lsl #3]
   1321c:	b9444880 	ldr	w0, [x4, #1096]
   13220:	51000400 	sub	w0, w0, #0x1
   13224:	b9044880 	str	w0, [x4, #1096]
   13228:	2a0103e0 	mov	w0, w1
   1322c:	d65f03c0 	ret
   13230:	d2800023 	mov	x3, #0x1                   	// #1
   13234:	17fffff7 	b	13210 <free_entity+0x30>

0000000000013238 <io_register_device>:
   13238:	d0000062 	adrp	x2, 21000 <sd_drv_work_area+0x58>
   1323c:	b9444440 	ldr	w0, [x2, #1092]
   13240:	7100041f 	cmp	w0, #0x1
   13244:	540000a8 	b.hi	13258 <io_register_device+0x20>  // b.pmore
   13248:	11000401 	add	w1, w0, #0x1
   1324c:	52800000 	mov	w0, #0x0                   	// #0
   13250:	b9044441 	str	w1, [x2, #1092]
   13254:	d65f03c0 	ret
   13258:	12800160 	mov	w0, #0xfffffff4            	// #-12
   1325c:	d65f03c0 	ret

0000000000013260 <io_dev_open>:
   13260:	f9400003 	ldr	x3, [x0]
   13264:	aa0103e0 	mov	x0, x1
   13268:	aa0203e1 	mov	x1, x2
   1326c:	d61f0060 	br	x3

0000000000013270 <io_dev_init>:
   13270:	f9400002 	ldr	x2, [x0]
   13274:	f9401c42 	ldr	x2, [x2, #56]
   13278:	b4000042 	cbz	x2, 13280 <io_dev_init+0x10>
   1327c:	d61f0040 	br	x2
   13280:	52800000 	mov	w0, #0x0                   	// #0
   13284:	d65f03c0 	ret

0000000000013288 <io_dev_close>:
   13288:	f9400001 	ldr	x1, [x0]
   1328c:	f9402021 	ldr	x1, [x1, #64]
   13290:	b4000041 	cbz	x1, 13298 <io_dev_close+0x10>
   13294:	d61f0020 	br	x1
   13298:	52800000 	mov	w0, #0x0                   	// #0
   1329c:	d65f03c0 	ret

00000000000132a0 <io_open>:
   132a0:	d0000065 	adrp	x5, 21000 <sd_drv_work_area+0x58>
   132a4:	b94448a3 	ldr	w3, [x5, #1096]
   132a8:	7100047f 	cmp	w3, #0x1
   132ac:	54000248 	b.hi	132f4 <io_open+0x54>  // b.pmore
   132b0:	a9bd7bfd 	stp	x29, x30, [sp, #-48]!
   132b4:	b0000064 	adrp	x4, 20000 <__STACKS_START__+0x700>
   132b8:	11000463 	add	w3, w3, #0x1
   132bc:	910003fd 	mov	x29, sp
   132c0:	f944e487 	ldr	x7, [x4, #2504]
   132c4:	91272086 	add	x6, x4, #0x9c8
   132c8:	b4000587 	cbz	x7, 13378 <io_open+0xd8>
   132cc:	f94004c7 	ldr	x7, [x6, #8]
   132d0:	b4000187 	cbz	x7, 13300 <io_open+0x60>
   132d4:	b0000060 	adrp	x0, 20000 <__STACKS_START__+0x700>
   132d8:	91276000 	add	x0, x0, #0x9d8
   132dc:	b90448a3 	str	w3, [x5, #1096]
   132e0:	12800025 	mov	w5, #0xfffffffe            	// #-2
   132e4:	f904e480 	str	x0, [x4, #2504]
   132e8:	2a0503e0 	mov	w0, w5
   132ec:	a8c37bfd 	ldp	x29, x30, [sp], #48
   132f0:	d65f03c0 	ret
   132f4:	12800165 	mov	w5, #0xfffffff4            	// #-12
   132f8:	2a0503e0 	mov	w0, w5
   132fc:	d65f03c0 	ret
   13300:	b0000064 	adrp	x4, 20000 <__STACKS_START__+0x700>
   13304:	91276084 	add	x4, x4, #0x9d8
   13308:	91004084 	add	x4, x4, #0x10
   1330c:	a90153f3 	stp	x19, x20, [sp, #16]
   13310:	f90013f5 	str	x21, [sp, #32]
   13314:	aa0403f5 	mov	x21, x4
   13318:	b90448a3 	str	w3, [x5, #1096]
   1331c:	f90004c4 	str	x4, [x6, #8]
   13320:	f9400003 	ldr	x3, [x0]
   13324:	aa0203f4 	mov	x20, x2
   13328:	aa0003f3 	mov	x19, x0
   1332c:	aa1503e2 	mov	x2, x21
   13330:	f9400463 	ldr	x3, [x3, #8]
   13334:	d63f0060 	blr	x3
   13338:	2a0003e5 	mov	w5, w0
   1333c:	35000100 	cbnz	w0, 1335c <io_open+0xbc>
   13340:	f90002b3 	str	x19, [x21]
   13344:	2a0503e0 	mov	w0, w5
   13348:	f9000295 	str	x21, [x20]
   1334c:	a94153f3 	ldp	x19, x20, [sp, #16]
   13350:	f94013f5 	ldr	x21, [sp, #32]
   13354:	a8c37bfd 	ldp	x29, x30, [sp], #48
   13358:	d65f03c0 	ret
   1335c:	aa1503e0 	mov	x0, x21
   13360:	97ffffa0 	bl	131e0 <free_entity>
   13364:	2a0503e0 	mov	w0, w5
   13368:	a94153f3 	ldp	x19, x20, [sp, #16]
   1336c:	f94013f5 	ldr	x21, [sp, #32]
   13370:	a8c37bfd 	ldp	x29, x30, [sp], #48
   13374:	d65f03c0 	ret
   13378:	b0000066 	adrp	x6, 20000 <__STACKS_START__+0x700>
   1337c:	912760c6 	add	x6, x6, #0x9d8
   13380:	b90448a3 	str	w3, [x5, #1096]
   13384:	f904e486 	str	x6, [x4, #2504]
   13388:	a90153f3 	stp	x19, x20, [sp, #16]
   1338c:	f90013f5 	str	x21, [sp, #32]
   13390:	aa0603f5 	mov	x21, x6
   13394:	17ffffe3 	b	13320 <io_open+0x80>

0000000000013398 <io_seek>:
   13398:	f9400003 	ldr	x3, [x0]
   1339c:	f9400063 	ldr	x3, [x3]
   133a0:	f9400863 	ldr	x3, [x3, #16]
   133a4:	b4000043 	cbz	x3, 133ac <io_seek+0x14>
   133a8:	d61f0060 	br	x3
   133ac:	12800240 	mov	w0, #0xffffffed            	// #-19
   133b0:	d65f03c0 	ret
   133b4:	00000000 	.inst	0x00000000 ; undefined

00000000000133b8 <io_size>:
   133b8:	f9400002 	ldr	x2, [x0]
   133bc:	f9400042 	ldr	x2, [x2]
   133c0:	f9400c42 	ldr	x2, [x2, #24]
   133c4:	b4000042 	cbz	x2, 133cc <io_size+0x14>
   133c8:	d61f0040 	br	x2
   133cc:	12800240 	mov	w0, #0xffffffed            	// #-19
   133d0:	d65f03c0 	ret
   133d4:	00000000 	.inst	0x00000000 ; undefined

00000000000133d8 <io_read>:
   133d8:	f9400004 	ldr	x4, [x0]
   133dc:	f9400084 	ldr	x4, [x4]
   133e0:	f9401084 	ldr	x4, [x4, #32]
   133e4:	b4000044 	cbz	x4, 133ec <io_read+0x14>
   133e8:	d61f0080 	br	x4
   133ec:	12800240 	mov	w0, #0xffffffed            	// #-19
   133f0:	d65f03c0 	ret
   133f4:	00000000 	.inst	0x00000000 ; undefined

00000000000133f8 <io_close>:
   133f8:	a9be7bfd 	stp	x29, x30, [sp, #-32]!
   133fc:	52800005 	mov	w5, #0x0                   	// #0
   13400:	910003fd 	mov	x29, sp
   13404:	f9400001 	ldr	x1, [x0]
   13408:	f9400021 	ldr	x1, [x1]
   1340c:	f9401821 	ldr	x1, [x1, #48]
   13410:	f9000bf3 	str	x19, [sp, #16]
   13414:	aa0003f3 	mov	x19, x0
   13418:	b4000061 	cbz	x1, 13424 <io_close+0x2c>
   1341c:	d63f0020 	blr	x1
   13420:	2a0003e5 	mov	w5, w0
   13424:	aa1303e0 	mov	x0, x19
   13428:	97ffff6e 	bl	131e0 <free_entity>
   1342c:	2a0503e0 	mov	w0, w5
   13430:	f9400bf3 	ldr	x19, [sp, #16]
   13434:	a8c27bfd 	ldp	x29, x30, [sp], #32
   13438:	d65f03c0 	ret
   1343c:	00000000 	.inst	0x00000000 ; undefined

0000000000013440 <bl2_plat_handle_pre_image_load>:
   13440:	52800000 	mov	w0, #0x0                   	// #0
   13444:	d65f03c0 	ret

0000000000013448 <bl2_plat_handle_post_image_load>:
   13448:	a9be7bfd 	stp	x29, x30, [sp, #-32]!
   1344c:	910003fd 	mov	x29, sp
   13450:	a90153f3 	stp	x19, x20, [sp, #16]
   13454:	b0000074 	adrp	x20, 20000 <__STACKS_START__+0x700>
   13458:	2a0003f3 	mov	w19, w0
   1345c:	f944fe80 	ldr	x0, [x20, #2552]
   13460:	b40003a0 	cbz	x0, 134d4 <bl2_plat_handle_post_image_load+0x8c>
   13464:	2a1303e0 	mov	w0, w19
   13468:	97fffcb2 	bl	12730 <get_bl_mem_params_node>
   1346c:	7100127f 	cmp	w19, #0x4
   13470:	aa0003e1 	mov	x1, x0
   13474:	54000200 	b.eq	134b4 <bl2_plat_handle_post_image_load+0x6c>  // b.none
   13478:	7100167f 	cmp	w19, #0x5
   1347c:	540000a0 	b.eq	13490 <bl2_plat_handle_post_image_load+0x48>  // b.none
   13480:	52800000 	mov	w0, #0x0                   	// #0
   13484:	a94153f3 	ldp	x19, x20, [sp, #16]
   13488:	a8c27bfd 	ldp	x29, x30, [sp], #32
   1348c:	d65f03c0 	ret
   13490:	f944fe80 	ldr	x0, [x20, #2552]
   13494:	d2800b02 	mov	x2, #0x58                  	// #88
   13498:	91008021 	add	x1, x1, #0x20
   1349c:	8b020000 	add	x0, x0, x2
   134a0:	94002158 	bl	1ba00 <memcpy>
   134a4:	52800000 	mov	w0, #0x0                   	// #0
   134a8:	a94153f3 	ldp	x19, x20, [sp, #16]
   134ac:	a8c27bfd 	ldp	x29, x30, [sp], #32
   134b0:	d65f03c0 	ret
   134b4:	f944fe80 	ldr	x0, [x20, #2552]
   134b8:	91008021 	add	x1, x1, #0x20
   134bc:	d2800b02 	mov	x2, #0x58                  	// #88
   134c0:	94002150 	bl	1ba00 <memcpy>
   134c4:	52800000 	mov	w0, #0x0                   	// #0
   134c8:	a94153f3 	ldp	x19, x20, [sp, #16]
   134cc:	a8c27bfd 	ldp	x29, x30, [sp], #32
   134d0:	d65f03c0 	ret
   134d4:	9140bc00 	add	x0, x0, #0x2f, lsl #12
   134d8:	d2801602 	mov	x2, #0xb0                  	// #176
   134dc:	f904fe80 	str	x0, [x20, #2552]
   134e0:	52800001 	mov	w1, #0x0                   	// #0
   134e4:	94002163 	bl	1ba70 <memset>
   134e8:	17ffffdf 	b	13464 <bl2_plat_handle_post_image_load+0x1c>
   134ec:	00000000 	.inst	0x00000000 ; undefined

00000000000134f0 <bl2_el3_early_platform_setup>:
   134f0:	a9be7bfd 	stp	x29, x30, [sp, #-32]!
   134f4:	910003fd 	mov	x29, sp
   134f8:	f9000bf3 	str	x19, [sp, #16]
   134fc:	940000ff 	bl	138f8 <cpg_early_setup>
   13500:	5286c000 	mov	w0, #0x3600                	// #13824
   13504:	72a02dc0 	movk	w0, #0x16e, lsl #16
   13508:	94001cec 	bl	1a8b8 <syc_init>
   1350c:	97fffda7 	bl	12ba8 <generic_delay_timer_init>
   13510:	94001120 	bl	17990 <pfc_setup>
   13514:	94000109 	bl	13938 <cpg_setup>
   13518:	d2814080 	mov	x0, #0xa04                 	// #2564
   1351c:	529888e1 	mov	w1, #0xc447                	// #50247
   13520:	f2a22040 	movk	x0, #0x1102, lsl #16
   13524:	72a10821 	movk	w1, #0x841, lsl #16
   13528:	b9400000 	ldr	w0, [x0]
   1352c:	12006c00 	and	w0, w0, #0xfffffff
   13530:	6b01001f 	cmp	w0, w1
   13534:	54000220 	b.eq	13578 <bl2_el3_early_platform_setup+0x88>  // b.none
   13538:	b0000073 	adrp	x19, 20000 <__STACKS_START__+0x700>
   1353c:	52984002 	mov	w2, #0xc200                	// #49664
   13540:	91280273 	add	x19, x19, #0xa00
   13544:	529c2001 	mov	w1, #0xe100                	// #57600
   13548:	d2970000 	mov	x0, #0xb800                	// #47104
   1354c:	aa1303e3 	mov	x3, x19
   13550:	72a00022 	movk	w2, #0x1, lsl #16
   13554:	72a0bea1 	movk	w1, #0x5f5, lsl #16
   13558:	f2a20080 	movk	x0, #0x1004, lsl #16
   1355c:	97fffbb6 	bl	12434 <console_rzg2l_register>
   13560:	340006e0 	cbz	w0, 1363c <bl2_el3_early_platform_setup+0x14c>
   13564:	aa1303e0 	mov	x0, x19
   13568:	528000a1 	mov	w1, #0x5                   	// #5
   1356c:	f9400bf3 	ldr	x19, [sp, #16]
   13570:	a8c27bfd 	ldp	x29, x30, [sp], #32
   13574:	14001e73 	b	1af40 <console_set_scope>
   13578:	d2822480 	mov	x0, #0x1124                	// #4388
   1357c:	f2a230c0 	movk	x0, #0x1186, lsl #16
   13580:	b9400000 	ldr	w0, [x0]
   13584:	12180c00 	and	w0, w0, #0xf00
   13588:	711c001f 	cmp	w0, #0x700
   1358c:	54fffd61 	b.ne	13538 <bl2_el3_early_platform_setup+0x48>  // b.any
   13590:	d2822500 	mov	x0, #0x1128                	// #4392
   13594:	f2a230c0 	movk	x0, #0x1186, lsl #16
   13598:	b9400000 	ldr	w0, [x0]
   1359c:	12180c00 	and	w0, w0, #0xf00
   135a0:	711c001f 	cmp	w0, #0x700
   135a4:	54fffca1 	b.ne	13538 <bl2_el3_early_platform_setup+0x48>  // b.any
   135a8:	d280af00 	mov	x0, #0x578                 	// #1400
   135ac:	d280df01 	mov	x1, #0x6f8                 	// #1784
   135b0:	f2a22020 	movk	x0, #0x1101, lsl #16
   135b4:	32008fe2 	mov	w2, #0xf000f               	// #983055
   135b8:	f2a22021 	movk	x1, #0x1101, lsl #16
   135bc:	b9000002 	str	w2, [x0]
   135c0:	b9400020 	ldr	w0, [x1]
   135c4:	12000c00 	and	w0, w0, #0xf
   135c8:	71003c1f 	cmp	w0, #0xf
   135cc:	54ffffa1 	b.ne	135c0 <bl2_el3_early_platform_setup+0xd0>  // b.any
   135d0:	d2810f00 	mov	x0, #0x878                 	// #2168
   135d4:	d2813f01 	mov	x1, #0x9f8                 	// #2552
   135d8:	f2a22020 	movk	x0, #0x1101, lsl #16
   135dc:	32008fe2 	mov	w2, #0xf000f               	// #983055
   135e0:	f2a22021 	movk	x1, #0x1101, lsl #16
   135e4:	b9000002 	str	w2, [x0]
   135e8:	b9400020 	ldr	w0, [x1]
   135ec:	f2400c1f 	tst	x0, #0xf
   135f0:	54ffffc1 	b.ne	135e8 <bl2_el3_early_platform_setup+0xf8>  // b.any
   135f4:	d2800282 	mov	x2, #0x14                  	// #20
   135f8:	d2800200 	mov	x0, #0x10                  	// #16
   135fc:	f2a23882 	movk	x2, #0x11c4, lsl #16
   13600:	f2a23880 	movk	x0, #0x11c4, lsl #16
   13604:	5282a0c3 	mov	w3, #0x1506                	// #5382
   13608:	d280af01 	mov	x1, #0x578                 	// #1400
   1360c:	72a00043 	movk	w3, #0x2, lsl #16
   13610:	f2a22021 	movk	x1, #0x1101, lsl #16
   13614:	b9000043 	str	w3, [x2]
   13618:	5282a0c2 	mov	w2, #0x1506                	// #5382
   1361c:	72a02042 	movk	w2, #0x102, lsl #16
   13620:	b9000002 	str	w2, [x0]
   13624:	d280df00 	mov	x0, #0x6f8                 	// #1784
   13628:	52a001e2 	mov	w2, #0xf0000               	// #983040
   1362c:	f2a22020 	movk	x0, #0x1101, lsl #16
   13630:	b9000022 	str	w2, [x1]
   13634:	b9400000 	ldr	w0, [x0]
   13638:	17ffffc0 	b	13538 <bl2_el3_early_platform_setup+0x48>
   1363c:	94001e75 	bl	1b010 <console_flush>
   13640:	97fffaf6 	bl	12218 <do_panic>
   13644:	00000000 	.inst	0x00000000 ; undefined

0000000000013648 <bl2_el3_plat_arch_setup>:
   13648:	a9b57bfd 	stp	x29, x30, [sp, #-176]!
   1364c:	d2801082 	mov	x2, #0x84                  	// #132
   13650:	52800001 	mov	w1, #0x0                   	// #0
   13654:	910003fd 	mov	x29, sp
   13658:	9100b3e0 	add	x0, sp, #0x2c
   1365c:	94002105 	bl	1ba70 <memset>
   13660:	b00000a4 	adrp	x4, 28000 <__BL2_END__>
   13664:	f0ffffe3 	adrp	x3, 12000 <bl2_entrypoint>
   13668:	91000084 	add	x4, x4, #0x0
   1366c:	91000063 	add	x3, x3, #0x0
   13670:	90000062 	adrp	x2, 1f000 <__RO_END__>
   13674:	91000042 	add	x2, x2, #0x0
   13678:	d1404884 	sub	x4, x4, #0x12, lsl #12
   1367c:	cb030042 	sub	x2, x2, x3
   13680:	d2840006 	mov	x6, #0x2000                	// #8192
   13684:	d2a80005 	mov	x5, #0x40000000            	// #1073741824
   13688:	f2a00026 	movk	x6, #0x1, lsl #16
   1368c:	52800149 	mov	w9, #0xa                   	// #10
   13690:	52800048 	mov	w8, #0x2                   	// #2
   13694:	52800847 	mov	w7, #0x42                  	// #66
   13698:	b0000041 	adrp	x1, 1c000 <vprintf+0x418>
   1369c:	910c8021 	add	x1, x1, #0x320
   136a0:	910043e0 	add	x0, sp, #0x10
   136a4:	a9011be6 	stp	x6, x6, [sp, #16]
   136a8:	f90013e4 	str	x4, [sp, #32]
   136ac:	b9002be9 	str	w9, [sp, #40]
   136b0:	a9030fe5 	stp	x5, x3, [sp, #48]
   136b4:	a9040be3 	stp	x3, x2, [sp, #64]
   136b8:	b90053e8 	str	w8, [sp, #80]
   136bc:	f9002fe5 	str	x5, [sp, #88]
   136c0:	b9007be7 	str	w7, [sp, #120]
   136c4:	f90043e5 	str	x5, [sp, #128]
   136c8:	94001e70 	bl	1b088 <setup_page_tables>
   136cc:	52800000 	mov	w0, #0x0                   	// #0
   136d0:	94001ede 	bl	1b248 <enable_mmu_el3>
   136d4:	a8cb7bfd 	ldp	x29, x30, [sp], #176
   136d8:	d65f03c0 	ret
   136dc:	00000000 	.inst	0x00000000 ; undefined

00000000000136e0 <bl2_platform_setup>:
   136e0:	a9bf7bfd 	stp	x29, x30, [sp, #-16]!
   136e4:	910003fd 	mov	x29, sp
   136e8:	94001cb2 	bl	1a9b0 <plat_security_setup>
   136ec:	94000353 	bl	14438 <ddr_setup>
   136f0:	a8c17bfd 	ldp	x29, x30, [sp], #16
   136f4:	14001cfd 	b	1aae8 <rz_io_setup>

00000000000136f8 <cpg_ctrl_clkrst>:
   136f8:	51000421 	sub	w1, w1, #0x1
   136fc:	91000421 	add	x1, x1, #0x1
   13700:	8b010421 	add	x1, x1, x1, lsl #1
   13704:	8b010c05 	add	x5, x0, x1, lsl #3
   13708:	b9401002 	ldr	w2, [x0, #16]
   1370c:	a9401001 	ldp	x1, x4, [x0]
   13710:	b9000022 	str	w2, [x1]
   13714:	12003c43 	and	w3, w2, #0xffff
   13718:	53107c42 	lsr	w2, w2, #16
   1371c:	b9401401 	ldr	w1, [x0, #20]
   13720:	7100043f 	cmp	w1, #0x1
   13724:	5a831063 	cinv	w3, w3, eq  // eq = none
   13728:	b9400081 	ldr	w1, [x4]
   1372c:	4a030021 	eor	w1, w1, w3
   13730:	6a02003f 	tst	w1, w2
   13734:	54ffffa1 	b.ne	13728 <cpg_ctrl_clkrst+0x30>  // b.any
   13738:	91006000 	add	x0, x0, #0x18
   1373c:	eb0000bf 	cmp	x5, x0
   13740:	54fffe41 	b.ne	13708 <cpg_ctrl_clkrst+0x10>  // b.any
   13744:	d65f03c0 	ret

0000000000013748 <cpg_active_ddr>:
   13748:	a9be7bfd 	stp	x29, x30, [sp, #-32]!
   1374c:	d2810981 	mov	x1, #0x84c                 	// #2124
   13750:	f2a22021 	movk	x1, #0x1101, lsl #16
   13754:	910003fd 	mov	x29, sp
   13758:	d2817d83 	mov	x3, #0xbec                 	// #3052
   1375c:	f2a22023 	movk	x3, #0x1101, lsl #16
   13760:	f9000bf3 	str	x19, [sp, #16]
   13764:	d2813982 	mov	x2, #0x9cc                 	// #2508
   13768:	aa0003f3 	mov	x19, x0
   1376c:	52a00be0 	mov	w0, #0x5f0000              	// #6225920
   13770:	b9000020 	str	w0, [x1]
   13774:	f2a22022 	movk	x2, #0x1101, lsl #16
   13778:	52a00020 	mov	w0, #0x10000               	// #65536
   1377c:	52800be1 	mov	w1, #0x5f                  	// #95
   13780:	b9000060 	str	w0, [x3]
   13784:	d503201f 	nop
   13788:	b9400040 	ldr	w0, [x2]
   1378c:	0a010000 	and	w0, w0, w1
   13790:	71017c1f 	cmp	w0, #0x5f
   13794:	54ffffa1 	b.ne	13788 <cpg_active_ddr+0x40>  // b.any
   13798:	d280a980 	mov	x0, #0x54c                 	// #1356
   1379c:	d280d981 	mov	x1, #0x6cc                 	// #1740
   137a0:	f2a22020 	movk	x0, #0x1101, lsl #16
   137a4:	320087e2 	mov	w2, #0x30003               	// #196611
   137a8:	f2a22021 	movk	x1, #0x1101, lsl #16
   137ac:	b9000002 	str	w2, [x0]
   137b0:	b9400020 	ldr	w0, [x1]
   137b4:	12000400 	and	w0, w0, #0x3
   137b8:	71000c1f 	cmp	w0, #0x3
   137bc:	54ffffa1 	b.ne	137b0 <cpg_active_ddr+0x68>  // b.any
   137c0:	52800020 	mov	w0, #0x1                   	// #1
   137c4:	97fffcd5 	bl	12b18 <udelay>
   137c8:	d2817d81 	mov	x1, #0xbec                 	// #3052
   137cc:	320083e2 	mov	w2, #0x10001               	// #65537
   137d0:	f2a22021 	movk	x1, #0x1101, lsl #16
   137d4:	52800020 	mov	w0, #0x1                   	// #1
   137d8:	b9000022 	str	w2, [x1]
   137dc:	97fffccf 	bl	12b18 <udelay>
   137e0:	d2810980 	mov	x0, #0x84c                 	// #2124
   137e4:	d2813981 	mov	x1, #0x9cc                 	// #2508
   137e8:	f2a22020 	movk	x0, #0x1101, lsl #16
   137ec:	320f83e2 	mov	w2, #0x20002               	// #131074
   137f0:	f2a22021 	movk	x1, #0x1101, lsl #16
   137f4:	b9000002 	str	w2, [x0]
   137f8:	b9400020 	ldr	w0, [x1]
   137fc:	370fffe0 	tbnz	w0, #1, 137f8 <cpg_active_ddr+0xb0>
   13800:	52800020 	mov	w0, #0x1                   	// #1
   13804:	97fffcc5 	bl	12b18 <udelay>
   13808:	d63f0260 	blr	x19
   1380c:	d2810980 	mov	x0, #0x84c                 	// #2124
   13810:	52800ba3 	mov	w3, #0x5d                  	// #93
   13814:	f2a22020 	movk	x0, #0x1101, lsl #16
   13818:	d2813982 	mov	x2, #0x9cc                 	// #2508
   1381c:	72a00ba3 	movk	w3, #0x5d, lsl #16
   13820:	f2a22022 	movk	x2, #0x1101, lsl #16
   13824:	52800ba1 	mov	w1, #0x5d                  	// #93
   13828:	b9000003 	str	w3, [x0]
   1382c:	d503201f 	nop
   13830:	b9400040 	ldr	w0, [x2]
   13834:	6a01001f 	tst	w0, w1
   13838:	54ffffc1 	b.ne	13830 <cpg_active_ddr+0xe8>  // b.any
   1383c:	f9400bf3 	ldr	x19, [sp, #16]
   13840:	52800020 	mov	w0, #0x1                   	// #1
   13844:	a8c27bfd 	ldp	x29, x30, [sp], #32
   13848:	17fffcb4 	b	12b18 <udelay>
   1384c:	00000000 	.inst	0x00000000 ; undefined

0000000000013850 <cpg_reset_ddr_mc>:
   13850:	a9be7bfd 	stp	x29, x30, [sp, #-32]!
   13854:	d2810980 	mov	x0, #0x84c                 	// #2124
   13858:	f2a22020 	movk	x0, #0x1101, lsl #16
   1385c:	910003fd 	mov	x29, sp
   13860:	d2817d82 	mov	x2, #0xbec                 	// #3052
   13864:	52a00b81 	mov	w1, #0x5c0000              	// #6029312
   13868:	f2a22022 	movk	x2, #0x1101, lsl #16
   1386c:	f9000bf3 	str	x19, [sp, #16]
   13870:	b9000001 	str	w1, [x0]
   13874:	d2813981 	mov	x1, #0x9cc                 	// #2508
   13878:	52a00023 	mov	w3, #0x10000               	// #65536
   1387c:	f2a22021 	movk	x1, #0x1101, lsl #16
   13880:	52800b80 	mov	w0, #0x5c                  	// #92
   13884:	b9000043 	str	w3, [x2]
   13888:	b9400033 	ldr	w19, [x1]
   1388c:	0a000273 	and	w19, w19, w0
   13890:	7101727f 	cmp	w19, #0x5c
   13894:	54ffffa1 	b.ne	13888 <cpg_reset_ddr_mc+0x38>  // b.any
   13898:	52800020 	mov	w0, #0x1                   	// #1
   1389c:	97fffc9f 	bl	12b18 <udelay>
   138a0:	d2817d81 	mov	x1, #0xbec                 	// #3052
   138a4:	320083e2 	mov	w2, #0x10001               	// #65537
   138a8:	f2a22021 	movk	x1, #0x1101, lsl #16
   138ac:	52800020 	mov	w0, #0x1                   	// #1
   138b0:	b9000022 	str	w2, [x1]
   138b4:	97fffc99 	bl	12b18 <udelay>
   138b8:	d2810980 	mov	x0, #0x84c                 	// #2124
   138bc:	52800b82 	mov	w2, #0x5c                  	// #92
   138c0:	f2a22020 	movk	x0, #0x1101, lsl #16
   138c4:	d2813981 	mov	x1, #0x9cc                 	// #2508
   138c8:	72a00b82 	movk	w2, #0x5c, lsl #16
   138cc:	f2a22021 	movk	x1, #0x1101, lsl #16
   138d0:	b9000002 	str	w2, [x0]
   138d4:	d503201f 	nop
   138d8:	b9400020 	ldr	w0, [x1]
   138dc:	6a13001f 	tst	w0, w19
   138e0:	54ffffc1 	b.ne	138d8 <cpg_reset_ddr_mc+0x88>  // b.any
   138e4:	f9400bf3 	ldr	x19, [sp, #16]
   138e8:	52800020 	mov	w0, #0x1                   	// #1
   138ec:	a8c27bfd 	ldp	x29, x30, [sp], #32
   138f0:	17fffc8a 	b	12b18 <udelay>
   138f4:	00000000 	.inst	0x00000000 ; undefined

00000000000138f8 <cpg_early_setup>:
   138f8:	d2805001 	mov	x1, #0x280                 	// #640
   138fc:	f2a22021 	movk	x1, #0x1101, lsl #16
   13900:	b9400020 	ldr	w0, [x1]
   13904:	3707ffe0 	tbnz	w0, #0, 13900 <cpg_early_setup+0x8>
   13908:	d2804000 	mov	x0, #0x200                 	// #512
   1390c:	d2805001 	mov	x1, #0x280                 	// #640
   13910:	f2a22020 	movk	x0, #0x1101, lsl #16
   13914:	52a00022 	mov	w2, #0x10000               	// #65536
   13918:	f2a22021 	movk	x1, #0x1101, lsl #16
   1391c:	b9000002 	str	w2, [x0]
   13920:	b9400020 	ldr	w0, [x1]
   13924:	3707ffe0 	tbnz	w0, #0, 13920 <cpg_early_setup+0x28>
   13928:	b0000040 	adrp	x0, 1c000 <vprintf+0x418>
   1392c:	52800041 	mov	w1, #0x2                   	// #2
   13930:	91104000 	add	x0, x0, #0x410
   13934:	17ffff71 	b	136f8 <cpg_ctrl_clkrst>

0000000000013938 <cpg_setup>:
   13938:	a9bf7bfd 	stp	x29, x30, [sp, #-16]!
   1393c:	90000060 	adrp	x0, 1f000 <__RO_END__>
   13940:	911de003 	add	x3, x0, #0x778
   13944:	910003fd 	mov	x29, sp
   13948:	f943bc05 	ldr	x5, [x0, #1912]
   1394c:	90000066 	adrp	x6, 1f000 <__RO_END__>
   13950:	b9400860 	ldr	w0, [x3, #8]
   13954:	911e60c2 	add	x2, x6, #0x798
   13958:	f9400864 	ldr	x4, [x3, #16]
   1395c:	12103c00 	and	w0, w0, #0xffff0000
   13960:	b94000a8 	ldr	w8, [x5]
   13964:	d2805001 	mov	x1, #0x280                 	// #640
   13968:	f943ccc7 	ldr	x7, [x6, #1944]
   1396c:	2a080000 	orr	w0, w0, w8
   13970:	f9400846 	ldr	x6, [x2, #16]
   13974:	b90000a0 	str	w0, [x5]
   13978:	f2a22021 	movk	x1, #0x1101, lsl #16
   1397c:	b9401860 	ldr	w0, [x3, #24]
   13980:	b9400088 	ldr	w8, [x4]
   13984:	12103c00 	and	w0, w0, #0xffff0000
   13988:	2a080000 	orr	w0, w0, w8
   1398c:	b9000080 	str	w0, [x4]
   13990:	b9400840 	ldr	w0, [x2, #8]
   13994:	b90000e0 	str	w0, [x7]
   13998:	b9401840 	ldr	w0, [x2, #24]
   1399c:	b90000c0 	str	w0, [x6]
   139a0:	b9400020 	ldr	w0, [x1]
   139a4:	35ffffe0 	cbnz	w0, 139a0 <cpg_setup+0x68>
   139a8:	b9400866 	ldr	w6, [x3, #8]
   139ac:	d2800382 	mov	x2, #0x1c                  	// #28
   139b0:	b94000a0 	ldr	w0, [x5]
   139b4:	f2a22022 	movk	x2, #0x1101, lsl #16
   139b8:	52800221 	mov	w1, #0x11                  	// #17
   139bc:	2a060000 	orr	w0, w0, w6
   139c0:	b90000a0 	str	w0, [x5]
   139c4:	b9401863 	ldr	w3, [x3, #24]
   139c8:	b9400080 	ldr	w0, [x4]
   139cc:	2a030000 	orr	w0, w0, w3
   139d0:	b9000080 	str	w0, [x4]
   139d4:	d503201f 	nop
   139d8:	b9400040 	ldr	w0, [x2]
   139dc:	6a01001f 	tst	w0, w1
   139e0:	54ffffc1 	b.ne	139d8 <cpg_setup+0xa0>  // b.any
   139e4:	d2800582 	mov	x2, #0x2c                  	// #44
   139e8:	52800221 	mov	w1, #0x11                  	// #17
   139ec:	f2a22022 	movk	x2, #0x1101, lsl #16
   139f0:	b9400040 	ldr	w0, [x2]
   139f4:	6a01001f 	tst	w0, w1
   139f8:	54ffffc1 	b.ne	139f0 <cpg_setup+0xb8>  // b.any
   139fc:	d2800281 	mov	x1, #0x14                  	// #20
   13a00:	d2800300 	mov	x0, #0x18                  	// #24
   13a04:	f2a22021 	movk	x1, #0x1101, lsl #16
   13a08:	52864062 	mov	w2, #0x3203                	// #12803
   13a0c:	f2a22020 	movk	x0, #0x1101, lsl #16
   13a10:	72bf5c22 	movk	w2, #0xfae1, lsl #16
   13a14:	d2800203 	mov	x3, #0x10                  	// #16
   13a18:	b9000022 	str	w2, [x1]
   13a1c:	f2a22023 	movk	x3, #0x1101, lsl #16
   13a20:	52820001 	mov	w1, #0x1000                	// #4096
   13a24:	d2800482 	mov	x2, #0x24                  	// #36
   13a28:	72a00101 	movk	w1, #0x8, lsl #16
   13a2c:	f2a22022 	movk	x2, #0x1101, lsl #16
   13a30:	b9000001 	str	w1, [x0]
   13a34:	320083e0 	mov	w0, #0x10001               	// #65537
   13a38:	d2800501 	mov	x1, #0x28                  	// #40
   13a3c:	b9000060 	str	w0, [x3]
   13a40:	f2a22021 	movk	x1, #0x1101, lsl #16
   13a44:	5287d064 	mov	w4, #0x3e83                	// #16003
   13a48:	b9000044 	str	w4, [x2]
   13a4c:	5285a042 	mov	w2, #0x2d02                	// #11522
   13a50:	72a00102 	movk	w2, #0x8, lsl #16
   13a54:	b9000022 	str	w2, [x1]
   13a58:	d2800382 	mov	x2, #0x1c                  	// #28
   13a5c:	52800221 	mov	w1, #0x11                  	// #17
   13a60:	f2a22022 	movk	x2, #0x1101, lsl #16
   13a64:	b9001060 	str	w0, [x3, #16]
   13a68:	b9400040 	ldr	w0, [x2]
   13a6c:	6a01001f 	tst	w0, w1
   13a70:	54ffffc0 	b.eq	13a68 <cpg_setup+0x130>  // b.none
   13a74:	d2800582 	mov	x2, #0x2c                  	// #44
   13a78:	52800221 	mov	w1, #0x11                  	// #17
   13a7c:	f2a22022 	movk	x2, #0x1101, lsl #16
   13a80:	b9400040 	ldr	w0, [x2]
   13a84:	6a01001f 	tst	w0, w1
   13a88:	54ffffc0 	b.eq	13a80 <cpg_setup+0x148>  // b.none
   13a8c:	528003e1 	mov	w1, #0x1f                  	// #31
   13a90:	90000060 	adrp	x0, 1f000 <__RO_END__>
   13a94:	91062000 	add	x0, x0, #0x188
   13a98:	97ffff18 	bl	136f8 <cpg_ctrl_clkrst>
   13a9c:	528003e1 	mov	w1, #0x1f                  	// #31
   13aa0:	90000060 	adrp	x0, 1f000 <__RO_END__>
   13aa4:	91124000 	add	x0, x0, #0x490
   13aa8:	97ffff14 	bl	136f8 <cpg_ctrl_clkrst>
   13aac:	90000062 	adrp	x2, 1f000 <__RO_END__>
   13ab0:	9111c040 	add	x0, x2, #0x470
   13ab4:	d2805001 	mov	x1, #0x280                 	// #640
   13ab8:	f9423843 	ldr	x3, [x2, #1136]
   13abc:	f2a22021 	movk	x1, #0x1101, lsl #16
   13ac0:	b9400804 	ldr	w4, [x0, #8]
   13ac4:	f9400802 	ldr	x2, [x0, #16]
   13ac8:	b9000064 	str	w4, [x3]
   13acc:	b9401800 	ldr	w0, [x0, #24]
   13ad0:	b9000040 	str	w0, [x2]
   13ad4:	d503201f 	nop
   13ad8:	b9400020 	ldr	w0, [x1]
   13adc:	35ffffe0 	cbnz	w0, 13ad8 <cpg_setup+0x1a0>
   13ae0:	d2816281 	mov	x1, #0xb14                 	// #2836
   13ae4:	f2a22021 	movk	x1, #0x1101, lsl #16
   13ae8:	b9400020 	ldr	w0, [x1]
   13aec:	32000800 	orr	w0, w0, #0x7
   13af0:	b9000020 	str	w0, [x1]
   13af4:	a8c17bfd 	ldp	x29, x30, [sp], #16
   13af8:	d65f03c0 	ret
   13afc:	00000000 	.inst	0x00000000 ; undefined

0000000000013b00 <disable_phy_clk>:
   13b00:	d2804002 	mov	x2, #0x200                 	// #512
   13b04:	d2804080 	mov	x0, #0x204                 	// #516
   13b08:	f2a22802 	movk	x2, #0x1140, lsl #16
   13b0c:	f2a22800 	movk	x0, #0x1140, lsl #16
   13b10:	52804003 	mov	w3, #0x200                 	// #512
   13b14:	320083e1 	mov	w1, #0x10001               	// #65537
   13b18:	b9000043 	str	w3, [x2]
   13b1c:	b9000001 	str	w1, [x0]
   13b20:	d65f03c0 	ret
   13b24:	00000000 	.inst	0x00000000 ; undefined

0000000000013b28 <program_mc1>:
   13b28:	d0000041 	adrp	x1, 1d000 <sys_acctl+0xe0>
   13b2c:	d2801e07 	mov	x7, #0xf0                  	// #240
   13b30:	91046021 	add	x1, x1, #0x118
   13b34:	52a22825 	mov	w5, #0x11410000            	// #289472512
   13b38:	91368026 	add	x6, x1, #0xda0
   13b3c:	f2a22827 	movk	x7, #0x1141, lsl #16
   13b40:	14000005 	b	13b54 <program_mc1+0x2c>
   13b44:	b9000082 	str	w2, [x4]
   13b48:	91002021 	add	x1, x1, #0x8
   13b4c:	eb06003f 	cmp	x1, x6
   13b50:	54000180 	b.eq	13b80 <program_mc1+0x58>  // b.none
   13b54:	29400823 	ldp	w3, w2, [x1]
   13b58:	0b050064 	add	w4, w3, w5
   13b5c:	7103c07f 	cmp	w3, #0xf0
   13b60:	54ffff21 	b.ne	13b44 <program_mc1+0x1c>  // b.any
   13b64:	12000c43 	and	w3, w2, #0xf
   13b68:	39000003 	strb	w3, [x0]
   13b6c:	121c6c42 	and	w2, w2, #0xfffffff0
   13b70:	b90000e2 	str	w2, [x7]
   13b74:	91002021 	add	x1, x1, #0x8
   13b78:	eb06003f 	cmp	x1, x6
   13b7c:	54fffec1 	b.ne	13b54 <program_mc1+0x2c>  // b.any
   13b80:	d2805800 	mov	x0, #0x2c0                 	// #704
   13b84:	b0000042 	adrp	x2, 1c000 <vprintf+0x418>
   13b88:	f2a22820 	movk	x0, #0x1141, lsl #16
   13b8c:	91124044 	add	x4, x2, #0x490
   13b90:	b9449045 	ldr	w5, [x2, #1168]
   13b94:	d2805881 	mov	x1, #0x2c4                 	// #708
   13b98:	b9400007 	ldr	w7, [x0]
   13b9c:	f2a22821 	movk	x1, #0x1141, lsl #16
   13ba0:	29408883 	ldp	w3, w2, [x4, #4]
   13ba4:	120674e7 	and	w7, w7, #0xfcffffff
   13ba8:	2a0560e5 	orr	w5, w7, w5, lsl #24
   13bac:	b9000005 	str	w5, [x0]
   13bb0:	b9400c8d 	ldr	w13, [x4, #12]
   13bb4:	b0000048 	adrp	x8, 1c000 <vprintf+0x418>
   13bb8:	b9400025 	ldr	w5, [x1]
   13bbc:	d2802306 	mov	x6, #0x118                 	// #280
   13bc0:	f2a22826 	movk	x6, #0x1141, lsl #16
   13bc4:	9111c109 	add	x9, x8, #0x470
   13bc8:	121674a5 	and	w5, w5, #0xfffffcff
   13bcc:	b9447104 	ldr	w4, [x8, #1136]
   13bd0:	2a0320a3 	orr	w3, w5, w3, lsl #8
   13bd4:	b9000023 	str	w3, [x1]
   13bd8:	b9400531 	ldr	w17, [x9, #4]
   13bdc:	2a2403e4 	mvn	w4, w4
   13be0:	b9400005 	ldr	w5, [x0]
   13be4:	d2802490 	mov	x16, #0x124                 	// #292
   13be8:	f2a22830 	movk	x16, #0x1141, lsl #16
   13bec:	b0000047 	adrp	x7, 1c000 <vprintf+0x418>
   13bf0:	120e74a5 	and	w5, w5, #0xfffcffff
   13bf4:	d280238e 	mov	x14, #0x11c                 	// #284
   13bf8:	2a0240a2 	orr	w2, w5, w2, lsl #16
   13bfc:	b9000002 	str	w2, [x0]
   13c00:	9111e0e8 	add	x8, x7, #0x478
   13c04:	f2a2282e 	movk	x14, #0x1141, lsl #16
   13c08:	b9400020 	ldr	w0, [x1]
   13c0c:	d280250b 	mov	x11, #0x128                 	// #296
   13c10:	b94478e3 	ldr	w3, [x7, #1144]
   13c14:	f2a2282b 	movk	x11, #0x1141, lsl #16
   13c18:	121e7400 	and	w0, w0, #0xfffffffc
   13c1c:	b940050c 	ldr	w12, [x8, #4]
   13c20:	2a0d0000 	orr	w0, w0, w13
   13c24:	b9000020 	str	w0, [x1]
   13c28:	2a2303e3 	mvn	w3, w3
   13c2c:	b0000047 	adrp	x7, 1c000 <vprintf+0x418>
   13c30:	b94000c0 	ldr	w0, [x6]
   13c34:	d280288a 	mov	x10, #0x144                 	// #324
   13c38:	911200e8 	add	x8, x7, #0x480
   13c3c:	f2a2282a 	movk	x10, #0x1141, lsl #16
   13c40:	0a000080 	and	w0, w4, w0
   13c44:	b94480e2 	ldr	w2, [x7, #1152]
   13c48:	2a110000 	orr	w0, w0, w17
   13c4c:	b90000c0 	str	w0, [x6]
   13c50:	b940050f 	ldr	w15, [x8, #4]
   13c54:	2a2203e2 	mvn	w2, w2
   13c58:	b9400212 	ldr	w18, [x16]
   13c5c:	d2802909 	mov	x9, #0x148                 	// #328
   13c60:	f2a22829 	movk	x9, #0x1141, lsl #16
   13c64:	b0000045 	adrp	x5, 1c000 <vprintf+0x418>
   13c68:	0a120084 	and	w4, w4, w18
   13c6c:	d2802988 	mov	x8, #0x14c                 	// #332
   13c70:	2a110084 	orr	w4, w4, w17
   13c74:	b9000204 	str	w4, [x16]
   13c78:	f2a22828 	movk	x8, #0x1141, lsl #16
   13c7c:	911220ad 	add	x13, x5, #0x488
   13c80:	b94001c4 	ldr	w4, [x14]
   13c84:	d2802a07 	mov	x7, #0x150                 	// #336
   13c88:	b94488a1 	ldr	w1, [x5, #1160]
   13c8c:	f2a22827 	movk	x7, #0x1141, lsl #16
   13c90:	0a040064 	and	w4, w3, w4
   13c94:	b0000040 	adrp	x0, 1c000 <vprintf+0x418>
   13c98:	2a0c0084 	orr	w4, w4, w12
   13c9c:	b90001c4 	str	w4, [x14]
   13ca0:	2a2103e1 	mvn	w1, w1
   13ca4:	91128000 	add	x0, x0, #0x4a0
   13ca8:	b9400164 	ldr	w4, [x11]
   13cac:	91008006 	add	x6, x0, #0x20
   13cb0:	52a22825 	mov	w5, #0x11410000            	// #289472512
   13cb4:	0a040063 	and	w3, w3, w4
   13cb8:	2a0c0063 	orr	w3, w3, w12
   13cbc:	b9000163 	str	w3, [x11]
   13cc0:	b9400143 	ldr	w3, [x10]
   13cc4:	0a030043 	and	w3, w2, w3
   13cc8:	2a0f0063 	orr	w3, w3, w15
   13ccc:	b9000143 	str	w3, [x10]
   13cd0:	b9400123 	ldr	w3, [x9]
   13cd4:	0a030042 	and	w2, w2, w3
   13cd8:	2a0f0042 	orr	w2, w2, w15
   13cdc:	b9000122 	str	w2, [x9]
   13ce0:	b9400102 	ldr	w2, [x8]
   13ce4:	b94005a3 	ldr	w3, [x13, #4]
   13ce8:	0a020022 	and	w2, w1, w2
   13cec:	2a030042 	orr	w2, w2, w3
   13cf0:	b9000102 	str	w2, [x8]
   13cf4:	b94000e2 	ldr	w2, [x7]
   13cf8:	0a020021 	and	w1, w1, w2
   13cfc:	2a030021 	orr	w1, w1, w3
   13d00:	b90000e1 	str	w1, [x7]
   13d04:	b9400402 	ldr	w2, [x0, #4]
   13d08:	b8408401 	ldr	w1, [x0], #8
   13d0c:	0b050021 	add	w1, w1, w5
   13d10:	eb0000df 	cmp	x6, x0
   13d14:	b9000022 	str	w2, [x1]
   13d18:	54ffff61 	b.ne	13d04 <program_mc1+0x1dc>  // b.any
   13d1c:	d65f03c0 	ret

0000000000013d20 <setup_vref_training_registers>:
   13d20:	d2802985 	mov	x5, #0x14c                 	// #332
   13d24:	12001c00 	and	w0, w0, #0xff
   13d28:	f2a22825 	movk	x5, #0x1141, lsl #16
   13d2c:	51005c03 	sub	w3, w0, #0x17
   13d30:	7100cc1f 	cmp	w0, #0x33
   13d34:	12001c42 	and	w2, w2, #0xff
   13d38:	12001c64 	and	w4, w3, #0xff
   13d3c:	321a0000 	orr	w0, w0, #0x40
   13d40:	b94000a3 	ldr	w3, [x5]
   13d44:	1a843000 	csel	w0, w0, w4, cc  // cc = lo, ul, last
   13d48:	7100085f 	cmp	w2, #0x2
   13d4c:	12001c21 	and	w1, w1, #0xff
   13d50:	1a9f07e2 	cset	w2, ne  // ne = any
   13d54:	12181c63 	and	w3, w3, #0xff00
   13d58:	2a000060 	orr	w0, w3, w0
   13d5c:	2a021c00 	orr	w0, w0, w2, lsl #7
   13d60:	360000e1 	tbz	w1, #0, 13d7c <setup_vref_training_registers+0x5c>
   13d64:	d2802583 	mov	x3, #0x12c                 	// #300
   13d68:	f2a22823 	movk	x3, #0x1141, lsl #16
   13d6c:	b9400062 	ldr	w2, [x3]
   13d70:	12103c42 	and	w2, w2, #0xffff0000
   13d74:	2a000042 	orr	w2, w2, w0
   13d78:	b9000062 	str	w2, [x3]
   13d7c:	52800003 	mov	w3, #0x0                   	// #0
   13d80:	36080101 	tbz	w1, #1, 13da0 <setup_vref_training_registers+0x80>
   13d84:	d2802604 	mov	x4, #0x130                 	// #304
   13d88:	52802003 	mov	w3, #0x100                 	// #256
   13d8c:	f2a22824 	movk	x4, #0x1141, lsl #16
   13d90:	b9400082 	ldr	w2, [x4]
   13d94:	12103c42 	and	w2, w2, #0xffff0000
   13d98:	2a000040 	orr	w0, w2, w0
   13d9c:	b9000080 	str	w0, [x4]
   13da0:	12000421 	and	w1, w1, #0x3
   13da4:	d2802182 	mov	x2, #0x10c                 	// #268
   13da8:	f2a22822 	movk	x2, #0x1141, lsl #16
   13dac:	71000c3f 	cmp	w1, #0x3
   13db0:	1a9f17e0 	cset	w0, eq  // eq = none
   13db4:	528000c4 	mov	w4, #0x6                   	// #6
   13db8:	b9400041 	ldr	w1, [x2]
   13dbc:	72a05004 	movk	w4, #0x280, lsl #16
   13dc0:	2a006060 	orr	w0, w3, w0, lsl #24
   13dc4:	d2804985 	mov	x5, #0x24c                 	// #588
   13dc8:	2a040000 	orr	w0, w0, w4
   13dcc:	12061421 	and	w1, w1, #0xfc000000
   13dd0:	2a010000 	orr	w0, w0, w1
   13dd4:	f2a22825 	movk	x5, #0x1141, lsl #16
   13dd8:	b9000040 	str	w0, [x2]
   13ddc:	d503201f 	nop
   13de0:	b94000a0 	ldr	w0, [x5]
   13de4:	361fffe0 	tbz	w0, #3, 13de0 <setup_vref_training_registers+0xc0>
   13de8:	d2804d82 	mov	x2, #0x26c                 	// #620
   13dec:	52800020 	mov	w0, #0x1                   	// #1
   13df0:	f2a22822 	movk	x2, #0x1141, lsl #16
   13df4:	b9400041 	ldr	w1, [x2]
   13df8:	321d0021 	orr	w1, w1, #0x8
   13dfc:	b9000041 	str	w1, [x2]
   13e00:	17fffb46 	b	12b18 <udelay>
   13e04:	00000000 	.inst	0x00000000 ; undefined

0000000000013e08 <exec_trainingVREF>:
   13e08:	a9a87bfd 	stp	x29, x30, [sp, #-384]!
   13e0c:	d2802583 	mov	x3, #0x12c                 	// #300
   13e10:	f2a22803 	movk	x3, #0x1140, lsl #16
   13e14:	910003fd 	mov	x29, sp
   13e18:	d2800c02 	mov	x2, #0x60                  	// #96
   13e1c:	a90153f3 	stp	x19, x20, [sp, #16]
   13e20:	f2a22802 	movk	x2, #0x1140, lsl #16
   13e24:	a9025bf5 	stp	x21, x22, [sp, #32]
   13e28:	7100083f 	cmp	w1, #0x2
   13e2c:	a90363f7 	stp	x23, x24, [sp, #48]
   13e30:	a9046bf9 	stp	x25, x26, [sp, #64]
   13e34:	a90573fb 	stp	x27, x28, [sp, #80]
   13e38:	2a0103fc 	mov	w28, w1
   13e3c:	b9006fe0 	str	w0, [sp, #108]
   13e40:	b900007f 	str	wzr, [x3]
   13e44:	b9400040 	ldr	w0, [x2]
   13e48:	121a7400 	and	w0, w0, #0xffffffcf
   13e4c:	321c0000 	orr	w0, w0, #0x10
   13e50:	b9000040 	str	w0, [x2]
   13e54:	54002d41 	b.ne	143fc <exec_trainingVREF+0x5f4>  // b.any
   13e58:	52800020 	mov	w0, #0x1                   	// #1
   13e5c:	b9000060 	str	w0, [x3]
   13e60:	d280cf04 	mov	x4, #0x678                 	// #1656
   13e64:	d280d083 	mov	x3, #0x684                 	// #1668
   13e68:	b9400040 	ldr	w0, [x2]
   13e6c:	f2a22824 	movk	x4, #0x1141, lsl #16
   13e70:	f2a22823 	movk	x3, #0x1141, lsl #16
   13e74:	b2001fe1 	mov	x1, #0xff000000ff          	// #1095216660735
   13e78:	121a7400 	and	w0, w0, #0xffffffcf
   13e7c:	321c0000 	orr	w0, w0, #0x10
   13e80:	b9000040 	str	w0, [x2]
   13e84:	b9400088 	ldr	w8, [x4]
   13e88:	b940006e 	ldr	w14, [x3]
   13e8c:	a9087fe1 	stp	x1, xzr, [sp, #128]
   13e90:	d3505d08 	ubfx	x8, x8, #16, #8
   13e94:	12001dce 	and	w14, w14, #0xff
   13e98:	531f79cb 	lsl	w11, w14, #1
   13e9c:	d2802586 	mov	x6, #0x12c                 	// #300
   13ea0:	d280390c 	mov	x12, #0x1c8                 	// #456
   13ea4:	d2802001 	mov	x1, #0x100                 	// #256
   13ea8:	d280358a 	mov	x10, #0x1ac                 	// #428
   13eac:	d2803a89 	mov	x9, #0x1d4                 	// #468
   13eb0:	110005c7 	add	w7, w14, #0x1
   13eb4:	1100056b 	add	w11, w11, #0x1
   13eb8:	4b0e010e 	sub	w14, w8, w14
   13ebc:	910223f4 	add	x20, sp, #0x88
   13ec0:	910203ed 	add	x13, sp, #0x80
   13ec4:	52800004 	mov	w4, #0x0                   	// #0
   13ec8:	f2a22806 	movk	x6, #0x1140, lsl #16
   13ecc:	f2a2280c 	movk	x12, #0x1140, lsl #16
   13ed0:	f2a22801 	movk	x1, #0x1140, lsl #16
   13ed4:	52a6100f 	mov	w15, #0x30800000            	// #813694976
   13ed8:	f2a2280a 	movk	x10, #0x1140, lsl #16
   13edc:	f2a22809 	movk	x9, #0x1140, lsl #16
   13ee0:	52800031 	mov	w17, #0x1                   	// #1
   13ee4:	528000f0 	mov	w16, #0x7                   	// #7
   13ee8:	14000004 	b	13ef8 <exec_trainingVREF+0xf0>
   13eec:	2a0703e4 	mov	w4, w7
   13ef0:	6b04017f 	cmp	w11, w4
   13ef4:	540006c9 	b.ls	13fcc <exec_trainingVREF+0x1c4>  // b.plast
   13ef8:	6b0400ff 	cmp	w7, w4
   13efc:	540024e9 	b.ls	14398 <exec_trainingVREF+0x590>  // b.plast
   13f00:	11000880 	add	w0, w4, #0x2
   13f04:	4b040105 	sub	w5, w8, w4
   13f08:	12003ca5 	and	w5, w5, #0xffff
   13f0c:	6b08001f 	cmp	w0, w8
   13f10:	54fffee8 	b.hi	13eec <exec_trainingVREF+0xe4>  // b.pmore
   13f14:	531c6ca0 	lsl	w0, w5, #4
   13f18:	b90000df 	str	wzr, [x6]
   13f1c:	32000000 	orr	w0, w0, #0x1
   13f20:	b9000180 	str	w0, [x12]
   13f24:	71000b9f 	cmp	w28, #0x2
   13f28:	54000061 	b.ne	13f34 <exec_trainingVREF+0x12c>  // b.any
   13f2c:	b90000d0 	str	w16, [x6]
   13f30:	b9000180 	str	w0, [x12]
   13f34:	b900002f 	str	w15, [x1]
   13f38:	b9400020 	ldr	w0, [x1]
   13f3c:	37e7ffe0 	tbnz	w0, #28, 13f38 <exec_trainingVREF+0x130>
   13f40:	d2800000 	mov	x0, #0x0                   	// #0
   13f44:	b9400143 	ldr	w3, [x10]
   13f48:	11003802 	add	w2, w0, #0xe
   13f4c:	93407c12 	sxtw	x18, w0
   13f50:	1ac22462 	lsr	w2, w3, w2
   13f54:	37000302 	tbnz	w2, #0, 13fb4 <exec_trainingVREF+0x1ac>
   13f58:	0b000402 	add	w2, w0, w0, lsl #1
   13f5c:	531f7842 	lsl	w2, w2, #1
   13f60:	b90000c2 	str	w2, [x6]
   13f64:	b9400133 	ldr	w19, [x9]
   13f68:	b9400123 	ldr	w3, [x9]
   13f6c:	12001673 	and	w19, w19, #0x3f
   13f70:	b86079b8 	ldr	w24, [x13, x0, lsl #2]
   13f74:	d3483463 	ubfx	x3, x3, #8, #6
   13f78:	4b130062 	sub	w2, w3, w19
   13f7c:	4b030277 	sub	w23, w19, w3
   13f80:	6b03027f 	cmp	w19, w3
   13f84:	12001c42 	and	w2, w2, #0xff
   13f88:	12001ee3 	and	w3, w23, #0xff
   13f8c:	1a839042 	csel	w2, w2, w3, ls  // ls = plast
   13f90:	6b18005f 	cmp	w2, w24
   13f94:	54001e82 	b.cs	14364 <exec_trainingVREF+0x55c>  // b.hs, b.nlast
   13f98:	d37cec03 	lsl	x3, x0, #4
   13f9c:	b82079a2 	str	w2, [x13, x0, lsl #2]
   13fa0:	cb000062 	sub	x2, x3, x0
   13fa4:	910243e3 	add	x3, sp, #0x90
   13fa8:	b8207a91 	str	w17, [x20, x0, lsl #2]
   13fac:	d37df042 	lsl	x2, x2, #3
   13fb0:	b8226865 	str	w5, [x3, x2]
   13fb4:	91000400 	add	x0, x0, #0x1
   13fb8:	6b00039f 	cmp	w28, w0
   13fbc:	54fffc48 	b.hi	13f44 <exec_trainingVREF+0x13c>  // b.pmore
   13fc0:	11000484 	add	w4, w4, #0x1
   13fc4:	6b04017f 	cmp	w11, w4
   13fc8:	54fff988 	b.hi	13ef8 <exec_trainingVREF+0xf0>  // b.pmore
   13fcc:	531d7388 	lsl	w8, w28, #3
   13fd0:	910243fa 	add	x26, sp, #0x90
   13fd4:	d280258b 	mov	x11, #0x12c                 	// #300
   13fd8:	d280390a 	mov	x10, #0x1c8                 	// #456
   13fdc:	aa1403e9 	mov	x9, x20
   13fe0:	4b1c0108 	sub	w8, w8, w28
   13fe4:	aa1a03e4 	mov	x4, x26
   13fe8:	52800007 	mov	w7, #0x0                   	// #0
   13fec:	f2a2280b 	movk	x11, #0x1140, lsl #16
   13ff0:	f2a2280a 	movk	x10, #0x1140, lsl #16
   13ff4:	b9400126 	ldr	w6, [x9]
   13ff8:	d2800001 	mov	x1, #0x0                   	// #0
   13ffc:	52800002 	mov	w2, #0x0                   	// #0
   14000:	52800fe3 	mov	w3, #0x7f                  	// #127
   14004:	52807e00 	mov	w0, #0x3f0                 	// #1008
   14008:	340001a6 	cbz	w6, 1403c <exec_trainingVREF+0x234>
   1400c:	d503201f 	nop
   14010:	b8617880 	ldr	w0, [x4, x1, lsl #2]
   14014:	91000421 	add	x1, x1, #0x1
   14018:	6b00005f 	cmp	w2, w0
   1401c:	1a802042 	csel	w2, w2, w0, cs  // cs = hs, nlast
   14020:	6b00007f 	cmp	w3, w0
   14024:	1a809063 	csel	w3, w3, w0, ls  // ls = plast
   14028:	6b0100df 	cmp	w6, w1
   1402c:	54ffff28 	b.hi	14010 <exec_trainingVREF+0x208>  // b.pmore
   14030:	0b030040 	add	w0, w2, w3
   14034:	53017c00 	lsr	w0, w0, #1
   14038:	531c3c00 	ubfiz	w0, w0, #4, #16
   1403c:	b9000167 	str	w7, [x11]
   14040:	11001ce7 	add	w7, w7, #0x7
   14044:	b9000140 	str	w0, [x10]
   14048:	91001129 	add	x9, x9, #0x4
   1404c:	9101e084 	add	x4, x4, #0x78
   14050:	6b07011f 	cmp	w8, w7
   14054:	54fffd01 	b.ne	13ff4 <exec_trainingVREF+0x1ec>  // b.any
   14058:	d2802081 	mov	x1, #0x104                 	// #260
   1405c:	d2802103 	mov	x3, #0x108                 	// #264
   14060:	f2a22801 	movk	x1, #0x1140, lsl #16
   14064:	f2a22803 	movk	x3, #0x1140, lsl #16
   14068:	d2802000 	mov	x0, #0x100                 	// #256
   1406c:	32089fe2 	mov	w2, #0xff00ff00            	// #-16711936
   14070:	f2a22800 	movk	x0, #0x1140, lsl #16
   14074:	b9000022 	str	w2, [x1]
   14078:	aa0003e1 	mov	x1, x0
   1407c:	b9000062 	str	w2, [x3]
   14080:	52a61002 	mov	w2, #0x30800000            	// #813694976
   14084:	b9000002 	str	w2, [x0]
   14088:	b9400020 	ldr	w0, [x1]
   1408c:	37e7ffe0 	tbnz	w0, #28, 14088 <exec_trainingVREF+0x280>
   14090:	d2803580 	mov	x0, #0x1ac                 	// #428
   14094:	f2a22800 	movk	x0, #0x1140, lsl #16
   14098:	b9400004 	ldr	w4, [x0]
   1409c:	b9406fe0 	ldr	w0, [sp, #108]
   140a0:	6a443819 	ands	w25, w0, w4, lsr #14
   140a4:	54001c41 	b.ne	1442c <exec_trainingVREF+0x624>  // b.any
   140a8:	d2803286 	mov	x6, #0x194                 	// #404
   140ac:	3941b3e0 	ldrb	w0, [sp, #108]
   140b0:	f2a22806 	movk	x6, #0x1140, lsl #16
   140b4:	d280d083 	mov	x3, #0x684                 	// #1668
   140b8:	2a0003e1 	mov	w1, w0
   140bc:	f2a22823 	movk	x3, #0x1141, lsl #16
   140c0:	b94000c0 	ldr	w0, [x6]
   140c4:	d2802387 	mov	x7, #0x11c                 	// #284
   140c8:	b9007fe1 	str	w1, [sp, #124]
   140cc:	f2a22807 	movk	x7, #0x1140, lsl #16
   140d0:	32190000 	orr	w0, w0, #0x80
   140d4:	b90000c0 	str	w0, [x6]
   140d8:	52800022 	mov	w2, #0x1                   	// #1
   140dc:	b9400060 	ldr	w0, [x3]
   140e0:	b9400063 	ldr	w3, [x3]
   140e4:	b94000f7 	ldr	w23, [x7]
   140e8:	53087c00 	lsr	w0, w0, #8
   140ec:	d3505c63 	ubfx	x3, x3, #16, #8
   140f0:	f9003be3 	str	x3, [sp, #112]
   140f4:	120006e3 	and	w3, w23, #0x3
   140f8:	12001c15 	and	w21, w0, #0xff
   140fc:	b9007be3 	str	w3, [sp, #120]
   14100:	97ffff08 	bl	13d20 <setup_vref_training_registers>
   14104:	d2803901 	mov	x1, #0x1c8                 	// #456
   14108:	52801fe2 	mov	w2, #0xff                  	// #255
   1410c:	f2a22801 	movk	x1, #0x1140, lsl #16
   14110:	71000b9f 	cmp	w28, #0x2
   14114:	b9400020 	ldr	w0, [x1]
   14118:	32000000 	orr	w0, w0, #0x1
   1411c:	b9000020 	str	w0, [x1]
   14120:	b90083e2 	str	w2, [sp, #128]
   14124:	b9008bff 	str	wzr, [sp, #136]
   14128:	54000061 	b.ne	14134 <exec_trainingVREF+0x32c>  // b.any
   1412c:	b90087e2 	str	w2, [sp, #132]
   14130:	b9008fff 	str	wzr, [sp, #140]
   14134:	b94073e0 	ldr	w0, [sp, #112]
   14138:	d280201b 	mov	x27, #0x100                 	// #256
   1413c:	d2803a98 	mov	x24, #0x1d4                 	// #468
   14140:	52800017 	mov	w23, #0x0                   	// #0
   14144:	11000416 	add	w22, w0, #0x1
   14148:	f2a2281b 	movk	x27, #0x1140, lsl #16
   1414c:	531f7813 	lsl	w19, w0, #1
   14150:	f2a22818 	movk	x24, #0x1140, lsl #16
   14154:	11000660 	add	w0, w19, #0x1
   14158:	b9006be0 	str	w0, [sp, #104]
   1415c:	14000005 	b	14170 <exec_trainingVREF+0x368>
   14160:	b9406be0 	ldr	w0, [sp, #104]
   14164:	2a1603f7 	mov	w23, w22
   14168:	6b17001f 	cmp	w0, w23
   1416c:	54000729 	b.ls	14250 <exec_trainingVREF+0x448>  // b.plast
   14170:	6b1602ff 	cmp	w23, w22
   14174:	54001362 	b.cs	143e0 <exec_trainingVREF+0x5d8>  // b.hs, b.nlast
   14178:	4b1702a6 	sub	w6, w21, w23
   1417c:	6b1702bf 	cmp	w21, w23
   14180:	12003cd3 	and	w19, w6, #0xffff
   14184:	54fffee3 	b.cc	14160 <exec_trainingVREF+0x358>  // b.lo, b.ul, b.last
   14188:	3941e3e1 	ldrb	w1, [sp, #120]
   1418c:	2a1303e0 	mov	w0, w19
   14190:	52800002 	mov	w2, #0x0                   	// #0
   14194:	97fffee3 	bl	13d20 <setup_vref_training_registers>
   14198:	52a60a00 	mov	w0, #0x30500000            	// #810549248
   1419c:	b9000360 	str	w0, [x27]
   141a0:	b9400360 	ldr	w0, [x27]
   141a4:	37e7ffe0 	tbnz	w0, #28, 141a0 <exec_trainingVREF+0x398>
   141a8:	d2803801 	mov	x1, #0x1c0                 	// #448
   141ac:	910203ec 	add	x12, sp, #0x80
   141b0:	f2a22801 	movk	x1, #0x1140, lsl #16
   141b4:	d2800000 	mov	x0, #0x0                   	// #0
   141b8:	5280002d 	mov	w13, #0x1                   	// #1
   141bc:	b940002b 	ldr	w11, [x1]
   141c0:	b9406fe1 	ldr	w1, [sp, #108]
   141c4:	0a4b502b 	and	w11, w1, w11, lsr #20
   141c8:	93407c0e 	sxtw	x14, w0
   141cc:	3500034b 	cbnz	w11, 14234 <exec_trainingVREF+0x42c>
   141d0:	d2802582 	mov	x2, #0x12c                 	// #300
   141d4:	0b000401 	add	w1, w0, w0, lsl #1
   141d8:	f2a22802 	movk	x2, #0x1140, lsl #16
   141dc:	531f7821 	lsl	w1, w1, #1
   141e0:	b9000041 	str	w1, [x2]
   141e4:	b940030a 	ldr	w10, [x24]
   141e8:	b9400302 	ldr	w2, [x24]
   141ec:	1200154a 	and	w10, w10, #0x3f
   141f0:	b860798f 	ldr	w15, [x12, x0, lsl #2]
   141f4:	d3483442 	ubfx	x2, x2, #8, #6
   141f8:	4b0a0041 	sub	w1, w2, w10
   141fc:	4b020150 	sub	w16, w10, w2
   14200:	6b02015f 	cmp	w10, w2
   14204:	12001c21 	and	w1, w1, #0xff
   14208:	12001e02 	and	w2, w16, #0xff
   1420c:	1a829021 	csel	w1, w1, w2, ls  // ls = plast
   14210:	6b0f003f 	cmp	w1, w15
   14214:	54000cc2 	b.cs	143ac <exec_trainingVREF+0x5a4>  // b.hs, b.nlast
   14218:	d37cec02 	lsl	x2, x0, #4
   1421c:	b8207981 	str	w1, [x12, x0, lsl #2]
   14220:	cb000041 	sub	x1, x2, x0
   14224:	910243e2 	add	x2, sp, #0x90
   14228:	b8207a8d 	str	w13, [x20, x0, lsl #2]
   1422c:	d37df021 	lsl	x1, x1, #3
   14230:	b8216853 	str	w19, [x2, x1]
   14234:	91000400 	add	x0, x0, #0x1
   14238:	6b00039f 	cmp	w28, w0
   1423c:	54fffc68 	b.hi	141c8 <exec_trainingVREF+0x3c0>  // b.pmore
   14240:	b9406be0 	ldr	w0, [sp, #104]
   14244:	110006f7 	add	w23, w23, #0x1
   14248:	6b17001f 	cmp	w0, w23
   1424c:	54fff928 	b.hi	14170 <exec_trainingVREF+0x368>  // b.pmore
   14250:	d2800006 	mov	x6, #0x0                   	// #0
   14254:	52800fe2 	mov	w2, #0x7f                  	// #127
   14258:	b8667a83 	ldr	w3, [x20, x6, lsl #2]
   1425c:	d2800001 	mov	x1, #0x0                   	// #0
   14260:	34000143 	cbz	w3, 14288 <exec_trainingVREF+0x480>
   14264:	d503201f 	nop
   14268:	b8617b40 	ldr	w0, [x26, x1, lsl #2]
   1426c:	91000421 	add	x1, x1, #0x1
   14270:	6b00033f 	cmp	w25, w0
   14274:	1a802339 	csel	w25, w25, w0, cs  // cs = hs, nlast
   14278:	6b00005f 	cmp	w2, w0
   1427c:	1a809042 	csel	w2, w2, w0, ls  // ls = plast
   14280:	6b01007f 	cmp	w3, w1
   14284:	54ffff28 	b.hi	14268 <exec_trainingVREF+0x460>  // b.pmore
   14288:	910004c6 	add	x6, x6, #0x1
   1428c:	9101e35a 	add	x26, x26, #0x78
   14290:	6b06039f 	cmp	w28, w6
   14294:	54fffe28 	b.hi	14258 <exec_trainingVREF+0x450>  // b.pmore
   14298:	0b190053 	add	w19, w2, w25
   1429c:	b9407ff5 	ldr	w21, [sp, #124]
   142a0:	52800002 	mov	w2, #0x0                   	// #0
   142a4:	53017e73 	lsr	w19, w19, #1
   142a8:	2a1503e1 	mov	w1, w21
   142ac:	12001e74 	and	w20, w19, #0xff
   142b0:	2a1403e0 	mov	w0, w20
   142b4:	97fffe9b 	bl	13d20 <setup_vref_training_registers>
   142b8:	d280d106 	mov	x6, #0x688                 	// #1672
   142bc:	12003e63 	and	w3, w19, #0xffff
   142c0:	f2a22826 	movk	x6, #0x1141, lsl #16
   142c4:	d2803905 	mov	x5, #0x1c8                 	// #456
   142c8:	f2a22805 	movk	x5, #0x1140, lsl #16
   142cc:	2a1403e0 	mov	w0, w20
   142d0:	b94000c4 	ldr	w4, [x6]
   142d4:	2a1503e1 	mov	w1, w21
   142d8:	52800042 	mov	w2, #0x2                   	// #2
   142dc:	12185c84 	and	w4, w4, #0xffffff00
   142e0:	2a040063 	orr	w3, w3, w4
   142e4:	b90000c3 	str	w3, [x6]
   142e8:	b94000a3 	ldr	w3, [x5]
   142ec:	121f7863 	and	w3, w3, #0xfffffffe
   142f0:	b90000a3 	str	w3, [x5]
   142f4:	97fffe8b 	bl	13d20 <setup_vref_training_registers>
   142f8:	d2803282 	mov	x2, #0x194                 	// #404
   142fc:	d2802583 	mov	x3, #0x12c                 	// #300
   14300:	f2a22802 	movk	x2, #0x1140, lsl #16
   14304:	f2a22803 	movk	x3, #0x1140, lsl #16
   14308:	d2800c00 	mov	x0, #0x60                  	// #96
   1430c:	71000b9f 	cmp	w28, #0x2
   14310:	b9400041 	ldr	w1, [x2]
   14314:	f2a22800 	movk	x0, #0x1140, lsl #16
   14318:	12187821 	and	w1, w1, #0xffffff7f
   1431c:	b9000041 	str	w1, [x2]
   14320:	b900007f 	str	wzr, [x3]
   14324:	b9400001 	ldr	w1, [x0]
   14328:	321c0421 	orr	w1, w1, #0x30
   1432c:	b9000001 	str	w1, [x0]
   14330:	540000c1 	b.ne	14348 <exec_trainingVREF+0x540>  // b.any
   14334:	52800021 	mov	w1, #0x1                   	// #1
   14338:	b9000061 	str	w1, [x3]
   1433c:	b9400001 	ldr	w1, [x0]
   14340:	321c0421 	orr	w1, w1, #0x30
   14344:	b9000001 	str	w1, [x0]
   14348:	a94153f3 	ldp	x19, x20, [sp, #16]
   1434c:	a9425bf5 	ldp	x21, x22, [sp, #32]
   14350:	a94363f7 	ldp	x23, x24, [sp, #48]
   14354:	a9446bf9 	ldp	x25, x26, [sp, #64]
   14358:	a94573fb 	ldp	x27, x28, [sp, #80]
   1435c:	a8d87bfd 	ldp	x29, x30, [sp], #384
   14360:	d65f03c0 	ret
   14364:	54ffe281 	b.ne	13fb4 <exec_trainingVREF+0x1ac>  // b.any
   14368:	b8607a82 	ldr	w2, [x20, x0, lsl #2]
   1436c:	7100745f 	cmp	w2, #0x1d
   14370:	54ffe228 	b.hi	13fb4 <exec_trainingVREF+0x1ac>  // b.pmore
   14374:	11000443 	add	w3, w2, #0x1
   14378:	b8207a83 	str	w3, [x20, x0, lsl #2]
   1437c:	d37cee43 	lsl	x3, x18, #4
   14380:	cb120072 	sub	x18, x3, x18
   14384:	d37ffa43 	lsl	x3, x18, #1
   14388:	8b224062 	add	x2, x3, w2, uxtw
   1438c:	910243e3 	add	x3, sp, #0x90
   14390:	b8227865 	str	w5, [x3, x2, lsl #2]
   14394:	17ffff08 	b	13fb4 <exec_trainingVREF+0x1ac>
   14398:	0b0401c5 	add	w5, w14, w4
   1439c:	7101f8bf 	cmp	w5, #0x7e
   143a0:	54ffe168 	b.hi	13fcc <exec_trainingVREF+0x1c4>  // b.pmore
   143a4:	12003ca5 	and	w5, w5, #0xffff
   143a8:	17fffedb 	b	13f14 <exec_trainingVREF+0x10c>
   143ac:	54fff441 	b.ne	14234 <exec_trainingVREF+0x42c>  // b.any
   143b0:	b8607a81 	ldr	w1, [x20, x0, lsl #2]
   143b4:	7100743f 	cmp	w1, #0x1d
   143b8:	54fff3e8 	b.hi	14234 <exec_trainingVREF+0x42c>  // b.pmore
   143bc:	11000422 	add	w2, w1, #0x1
   143c0:	b8207a82 	str	w2, [x20, x0, lsl #2]
   143c4:	d37cedc2 	lsl	x2, x14, #4
   143c8:	cb0e004e 	sub	x14, x2, x14
   143cc:	d37ff9c2 	lsl	x2, x14, #1
   143d0:	8b214041 	add	x1, x2, w1, uxtw
   143d4:	910243e2 	add	x2, sp, #0x90
   143d8:	b8217853 	str	w19, [x2, x1, lsl #2]
   143dc:	17ffff96 	b	14234 <exec_trainingVREF+0x42c>
   143e0:	b94073e0 	ldr	w0, [sp, #112]
   143e4:	4b0002a6 	sub	w6, w21, w0
   143e8:	0b1700c6 	add	w6, w6, w23
   143ec:	710124df 	cmp	w6, #0x49
   143f0:	54fff308 	b.hi	14250 <exec_trainingVREF+0x448>  // b.pmore
   143f4:	12003cd3 	and	w19, w6, #0xffff
   143f8:	17ffff64 	b	14188 <exec_trainingVREF+0x380>
   143fc:	d280cf02 	mov	x2, #0x678                 	// #1656
   14400:	d280d081 	mov	x1, #0x684                 	// #1668
   14404:	f2a22822 	movk	x2, #0x1141, lsl #16
   14408:	f2a22821 	movk	x1, #0x1141, lsl #16
   1440c:	52801fe0 	mov	w0, #0xff                  	// #255
   14410:	b9400048 	ldr	w8, [x2]
   14414:	b940002e 	ldr	w14, [x1]
   14418:	b90083e0 	str	w0, [sp, #128]
   1441c:	d3505d08 	ubfx	x8, x8, #16, #8
   14420:	0a0001ce 	and	w14, w14, w0
   14424:	b9008bff 	str	wzr, [sp, #136]
   14428:	17fffe9c 	b	13e98 <exec_trainingVREF+0x90>
   1442c:	94001af9 	bl	1b010 <console_flush>
   14430:	97fff77a 	bl	12218 <do_panic>
   14434:	00000000 	.inst	0x00000000 ; undefined

0000000000014438 <ddr_setup>:
   14438:	a9b97bfd 	stp	x29, x30, [sp, #-112]!
   1443c:	f0ffffe0 	adrp	x0, 13000 <fip_file_open+0x100>
   14440:	912c0000 	add	x0, x0, #0xb00
   14444:	910003fd 	mov	x29, sp
   14448:	a90153f3 	stp	x19, x20, [sp, #16]
   1444c:	a9025bf5 	stp	x21, x22, [sp, #32]
   14450:	a90363f7 	stp	x23, x24, [sp, #48]
   14454:	39017fff 	strb	wzr, [sp, #95]
   14458:	97fffcbc 	bl	13748 <cpg_active_ddr>
   1445c:	91017fe0 	add	x0, sp, #0x5f
   14460:	97fffdb2 	bl	13b28 <program_mc1>
   14464:	d2804280 	mov	x0, #0x214                 	// #532
   14468:	f2a22820 	movk	x0, #0x1141, lsl #16
   1446c:	b9400000 	ldr	w0, [x0]
   14470:	360056e0 	tbz	w0, #0, 14f4c <ddr_setup+0xb14>
   14474:	12000013 	and	w19, w0, #0x1
   14478:	2a1303f7 	mov	w23, w19
   1447c:	d280ce80 	mov	x0, #0x674                 	// #1652
   14480:	d2805805 	mov	x5, #0x2c0                 	// #704
   14484:	d2800701 	mov	x1, #0x38                  	// #56
   14488:	d2800783 	mov	x3, #0x3c                  	// #60
   1448c:	f2a22820 	movk	x0, #0x1141, lsl #16
   14490:	f2a22825 	movk	x5, #0x1141, lsl #16
   14494:	f2a22821 	movk	x1, #0x1141, lsl #16
   14498:	f2a22823 	movk	x3, #0x1141, lsl #16
   1449c:	d2802304 	mov	x4, #0x118                 	// #280
   144a0:	d2802382 	mov	x2, #0x11c                 	// #284
   144a4:	f2a22824 	movk	x4, #0x1141, lsl #16
   144a8:	f2a22822 	movk	x2, #0x1141, lsl #16
   144ac:	b9400015 	ldr	w21, [x0]
   144b0:	b9400018 	ldr	w24, [x0]
   144b4:	b94000a8 	ldr	w8, [x5]
   144b8:	b9400021 	ldr	w1, [x1]
   144bc:	12003f0b 	and	w11, w24, #0xffff
   144c0:	b9400063 	ldr	w3, [x3]
   144c4:	d3504f18 	ubfx	x24, x24, #16, #4
   144c8:	b9400086 	ldr	w6, [x4]
   144cc:	d35452b6 	ubfx	x22, x21, #20, #1
   144d0:	b9400044 	ldr	w4, [x2]
   144d4:	d3515425 	ubfx	x5, x1, #17, #5
   144d8:	d3482c62 	ubfx	x2, x3, #8, #4
   144dc:	d3587021 	ubfx	x1, x1, #24, #5
   144e0:	12001063 	and	w3, w3, #0x1f
   144e4:	0b0200a0 	add	w0, w5, w2
   144e8:	0b020022 	add	w2, w1, w2
   144ec:	d35556b4 	ubfx	x20, x21, #21, #1
   144f0:	d3586507 	ubfx	x7, x8, #24, #2
   144f4:	71000b1f 	cmp	w24, #0x2
   144f8:	d35966b5 	ubfx	x21, x21, #25, #1
   144fc:	d3504508 	ubfx	x8, x8, #16, #2
   14500:	12003cca 	and	w10, w6, #0xffff
   14504:	0b000060 	add	w0, w3, w0
   14508:	0b020062 	add	w2, w3, w2
   1450c:	12003c89 	and	w9, w4, #0xffff
   14510:	54005fa0 	b.eq	15104 <ddr_setup+0xccc>  // b.none
   14514:	d3492884 	ubfx	x4, x4, #9, #2
   14518:	71000c9f 	cmp	w4, #0x3
   1451c:	54006a80 	b.eq	1526c <ddr_setup+0xe34>  // b.none
   14520:	2a0403e4 	mov	w4, w4
   14524:	90000046 	adrp	x6, 1c000 <vprintf+0x418>
   14528:	911140c6 	add	x6, x6, #0x450
   1452c:	9000004c 	adrp	x12, 1c000 <vprintf+0x418>
   14530:	9111018c 	add	x12, x12, #0x440
   14534:	529f3fed 	mov	w13, #0xf9ff                	// #63999
   14538:	f90023f9 	str	x25, [sp, #64]
   1453c:	b86478c6 	ldr	w6, [x6, x4, lsl #2]
   14540:	b864798c 	ldr	w12, [x12, x4, lsl #2]
   14544:	52003cc4 	eor	w4, w6, #0xffff
   14548:	0a0a0084 	and	w4, w4, w10
   1454c:	2a0c0084 	orr	w4, w4, w12
   14550:	d280cf0c 	mov	x12, #0x678                 	// #1656
   14554:	11000446 	add	w6, w2, #0x1
   14558:	f2a2282c 	movk	x12, #0x1141, lsl #16
   1455c:	11000400 	add	w0, w0, #0x1
   14560:	4b4607e6 	neg	w6, w6, lsr #1
   14564:	0a0d012d 	and	w13, w9, w13
   14568:	b940018c 	ldr	w12, [x12]
   1456c:	53017c00 	lsr	w0, w0, #1
   14570:	12001cc6 	and	w6, w6, #0xff
   14574:	71000b1f 	cmp	w24, #0x2
   14578:	0b060012 	add	w18, w0, w6
   1457c:	12000d91 	and	w17, w12, #0xf
   14580:	d3441d90 	ubfx	x16, x12, #4, #4
   14584:	d3482d8f 	ubfx	x15, x12, #8, #4
   14588:	53107d8e 	lsr	w14, w12, #16
   1458c:	12001e52 	and	w18, w18, #0xff
   14590:	531f7800 	lsl	w0, w0, #1
   14594:	53187d8c 	lsr	w12, w12, #24
   14598:	540057c0 	b.eq	15090 <ddr_setup+0xc58>  // b.none
   1459c:	110098c6 	add	w6, w6, #0x26
   145a0:	11009a52 	add	w18, w18, #0x26
   145a4:	0b060000 	add	w0, w0, w6
   145a8:	7100145f 	cmp	w2, #0x5
   145ac:	12001e46 	and	w6, w18, #0xff
   145b0:	12001c00 	and	w0, w0, #0xff
   145b4:	540055c0 	b.eq	1506c <ddr_setup+0xc34>  // b.none
   145b8:	d2804019 	mov	x25, #0x200                 	// #512
   145bc:	d2800b12 	mov	x18, #0x58                  	// #88
   145c0:	f2a22819 	movk	x25, #0x1140, lsl #16
   145c4:	f2a22812 	movk	x18, #0x1140, lsl #16
   145c8:	52a0021e 	mov	w30, #0x100000              	// #1048576
   145cc:	b900033e 	str	w30, [x25]
   145d0:	528000d9 	mov	w25, #0x6                   	// #6
   145d4:	b9000259 	str	w25, [x18]
   145d8:	7100031f 	cmp	w24, #0x0
   145dc:	d280399e 	mov	x30, #0x1cc                 	// #460
   145e0:	f2a2281e 	movk	x30, #0x1140, lsl #16
   145e4:	1a9f07f2 	cset	w18, ne  // ne = any
   145e8:	d2802e99 	mov	x25, #0x174                 	// #372
   145ec:	f2a22819 	movk	x25, #0x1140, lsl #16
   145f0:	53114252 	lsl	w18, w18, #15
   145f4:	b90003df 	str	wzr, [x30]
   145f8:	b900033f 	str	wzr, [x25]
   145fc:	710fa17f 	cmp	w11, #0x3e8
   14600:	3218024b 	orr	w11, w18, #0x100
   14604:	1a923172 	csel	w18, w11, w18, cc  // cc = lo, ul, last
   14608:	d280241e 	mov	x30, #0x120                 	// #288
   1460c:	53185e2b 	lsl	w11, w17, #8
   14610:	52880019 	mov	w25, #0x4000                	// #16384
   14614:	72a20019 	movk	w25, #0x1000, lsl #16
   14618:	2a11116b 	orr	w11, w11, w17, lsl #4
   1461c:	f2a2281e 	movk	x30, #0x1140, lsl #16
   14620:	2a113231 	orr	w17, w17, w17, lsl #12
   14624:	2a190252 	orr	w18, w18, w25
   14628:	2a11016b 	orr	w11, w11, w17
   1462c:	d2801899 	mov	x25, #0xc4                  	// #196
   14630:	530c2e11 	lsl	w17, w16, #20
   14634:	2a104230 	orr	w16, w17, w16, lsl #16
   14638:	f2a22819 	movk	x25, #0x1140, lsl #16
   1463c:	b90003d2 	str	w18, [x30]
   14640:	d2801912 	mov	x18, #0xc8                  	// #200
   14644:	2a10016b 	orr	w11, w11, w16
   14648:	71000b1f 	cmp	w24, #0x2
   1464c:	2a0f11f0 	orr	w16, w15, w15, lsl #4
   14650:	d2801391 	mov	x17, #0x9c                  	// #156
   14654:	f2a22812 	movk	x18, #0x1140, lsl #16
   14658:	1a8f120f 	csel	w15, w16, w15, ne  // ne = any
   1465c:	f2a22811 	movk	x17, #0x1140, lsl #16
   14660:	d2802590 	mov	x16, #0x12c                 	// #300
   14664:	b900032b 	str	w11, [x25]
   14668:	f2a22810 	movk	x16, #0x1140, lsl #16
   1466c:	d280390b 	mov	x11, #0x1c8                 	// #456
   14670:	b900024f 	str	w15, [x18]
   14674:	f2a2280b 	movk	x11, #0x1140, lsl #16
   14678:	b900023f 	str	wzr, [x17]
   1467c:	531c1dce 	ubfiz	w14, w14, #4, #8
   14680:	b900021f 	str	wzr, [x16]
   14684:	321e01ce 	orr	w14, w14, #0x4
   14688:	b900016e 	str	w14, [x11]
   1468c:	71000a7f 	cmp	w19, #0x2
   14690:	54000081 	b.ne	146a0 <ddr_setup+0x268>  // b.any
   14694:	528000ef 	mov	w15, #0x7                   	// #7
   14698:	b900020f 	str	w15, [x16]
   1469c:	b900016e 	str	w14, [x11]
   146a0:	1100046b 	add	w11, w3, #0x1
   146a4:	d2801803 	mov	x3, #0xc0                  	// #192
   146a8:	f2a22803 	movk	x3, #0x1140, lsl #16
   146ac:	53081ce7 	lsl	w7, w7, #24
   146b0:	d280368e 	mov	x14, #0x1b4                 	// #436
   146b4:	71000b1f 	cmp	w24, #0x2
   146b8:	2a0840e8 	orr	w8, w7, w8, lsl #16
   146bc:	f2a2280e 	movk	x14, #0x1140, lsl #16
   146c0:	110004a5 	add	w5, w5, #0x1
   146c4:	13017d6b 	asr	w11, w11, #1
   146c8:	528005a7 	mov	w7, #0x2d                  	// #45
   146cc:	b900006c 	str	w12, [x3]
   146d0:	72a34127 	movk	w7, #0x1a09, lsl #16
   146d4:	1a9f07e3 	cset	w3, ne  // ne = any
   146d8:	d2802b8c 	mov	x12, #0x15c                 	// #348
   146dc:	53185d6b 	lsl	w11, w11, #8
   146e0:	f2a2280c 	movk	x12, #0x1140, lsl #16
   146e4:	13017ca5 	asr	w5, w5, #1
   146e8:	11000421 	add	w1, w1, #0x1
   146ec:	b90001c7 	str	w7, [x14]
   146f0:	d2803d07 	mov	x7, #0x1e8                 	// #488
   146f4:	2a030963 	orr	w3, w11, w3, lsl #2
   146f8:	f2a22807 	movk	x7, #0x1140, lsl #16
   146fc:	2a080063 	orr	w3, w3, w8
   14700:	531c6ca5 	lsl	w5, w5, #4
   14704:	52800348 	mov	w8, #0x1a                  	// #26
   14708:	13017c21 	asr	w1, w1, #1
   1470c:	d280230b 	mov	x11, #0x118                 	// #280
   14710:	b900019f 	str	wzr, [x12]
   14714:	320000a5 	orr	w5, w5, #0x1
   14718:	f2a2280b 	movk	x11, #0x1140, lsl #16
   1471c:	b90000e8 	str	w8, [x7]
   14720:	53080047 	ubfiz	w7, w2, #24, #1
   14724:	d2802388 	mov	x8, #0x11c                 	// #284
   14728:	2a050063 	orr	w3, w3, w5
   1472c:	f2a22808 	movk	x8, #0x1140, lsl #16
   14730:	2a0120e1 	orr	w1, w7, w1, lsl #8
   14734:	d2802d87 	mov	x7, #0x16c                 	// #364
   14738:	f2a22807 	movk	x7, #0x1140, lsl #16
   1473c:	b9000163 	str	w3, [x11]
   14740:	d2803803 	mov	x3, #0x1c0                 	// #448
   14744:	53144c00 	lsl	w0, w0, #12
   14748:	32010421 	orr	w1, w1, #0x80000001
   1474c:	f2a22803 	movk	x3, #0x1140, lsl #16
   14750:	d2803785 	mov	x5, #0x1bc                 	// #444
   14754:	b9000101 	str	w1, [x8]
   14758:	2a061006 	orr	w6, w0, w6, lsl #4
   1475c:	f2a22805 	movk	x5, #0x1140, lsl #16
   14760:	520006e1 	eor	w1, w23, #0x3
   14764:	d2803c00 	mov	x0, #0x1e0                 	// #480
   14768:	b90000e1 	str	w1, [x7]
   1476c:	f2a22800 	movk	x0, #0x1140, lsl #16
   14770:	2a2203e2 	mvn	w2, w2
   14774:	b9000066 	str	w6, [x3]
   14778:	d2802a03 	mov	x3, #0x150                 	// #336
   1477c:	12000042 	and	w2, w2, #0x1
   14780:	f2a22803 	movk	x3, #0x1140, lsl #16
   14784:	d2802a81 	mov	x1, #0x154                 	// #340
   14788:	b90000a2 	str	w2, [x5]
   1478c:	f2a22801 	movk	x1, #0x1140, lsl #16
   14790:	52802e02 	mov	w2, #0x170                 	// #368
   14794:	b9000002 	str	w2, [x0]
   14798:	d2802480 	mov	x0, #0x124                 	// #292
   1479c:	2a0941a9 	orr	w9, w13, w9, lsl #16
   147a0:	2a044144 	orr	w4, w10, w4, lsl #16
   147a4:	f2a22800 	movk	x0, #0x1140, lsl #16
   147a8:	b9000069 	str	w9, [x3]
   147ac:	32090084 	orr	w4, w4, #0x800000
   147b0:	b9000024 	str	w4, [x1]
   147b4:	52820001 	mov	w1, #0x1000                	// #4096
   147b8:	72b58001 	movk	w1, #0xac00, lsl #16
   147bc:	b9000001 	str	w1, [x0]
   147c0:	52800140 	mov	w0, #0xa                   	// #10
   147c4:	97fff8d5 	bl	12b18 <udelay>
   147c8:	d2802d01 	mov	x1, #0x168                 	// #360
   147cc:	d2802c80 	mov	x0, #0x164                 	// #356
   147d0:	f2a22801 	movk	x1, #0x1140, lsl #16
   147d4:	f2a22800 	movk	x0, #0x1140, lsl #16
   147d8:	d2802584 	mov	x4, #0x12c                 	// #300
   147dc:	d2802602 	mov	x2, #0x130                 	// #304
   147e0:	f2a22804 	movk	x4, #0x1140, lsl #16
   147e4:	b900003f 	str	wzr, [x1]
   147e8:	f2a22802 	movk	x2, #0x1140, lsl #16
   147ec:	b900001f 	str	wzr, [x0]
   147f0:	d2802700 	mov	x0, #0x138                 	// #312
   147f4:	b900009f 	str	wzr, [x4]
   147f8:	f2a22800 	movk	x0, #0x1140, lsl #16
   147fc:	52800123 	mov	w3, #0x9                   	// #9
   14800:	b9000043 	str	w3, [x2]
   14804:	52800141 	mov	w1, #0xa                   	// #10
   14808:	b9000001 	str	w1, [x0]
   1480c:	71000a7f 	cmp	w19, #0x2
   14810:	540000a1 	b.ne	14824 <ddr_setup+0x3ec>  // b.any
   14814:	528000c5 	mov	w5, #0x6                   	// #6
   14818:	b9000085 	str	w5, [x4]
   1481c:	b9000043 	str	w3, [x2]
   14820:	b9000001 	str	w1, [x0]
   14824:	d2802502 	mov	x2, #0x128                 	// #296
   14828:	d2802581 	mov	x1, #0x12c                 	// #300
   1482c:	f2a22802 	movk	x2, #0x1140, lsl #16
   14830:	f2a22801 	movk	x1, #0x1140, lsl #16
   14834:	d2803480 	mov	x0, #0x1a4                 	// #420
   14838:	52804343 	mov	w3, #0x21a                 	// #538
   1483c:	f2a22800 	movk	x0, #0x1140, lsl #16
   14840:	b9000043 	str	w3, [x2]
   14844:	d2802482 	mov	x2, #0x124                 	// #292
   14848:	52801343 	mov	w3, #0x9a                  	// #154
   1484c:	f2a22802 	movk	x2, #0x1140, lsl #16
   14850:	b900003f 	str	wzr, [x1]
   14854:	d2802181 	mov	x1, #0x10c                 	// #268
   14858:	b9000003 	str	w3, [x0]
   1485c:	f2a22801 	movk	x1, #0x1140, lsl #16
   14860:	52820343 	mov	w3, #0x101a                	// #4122
   14864:	d2800c00 	mov	x0, #0x60                  	// #96
   14868:	72b58003 	movk	w3, #0xac00, lsl #16
   1486c:	f2a22800 	movk	x0, #0x1140, lsl #16
   14870:	b9000043 	str	w3, [x2]
   14874:	528a0ec2 	mov	w2, #0x5076                	// #20598
   14878:	71000b1f 	cmp	w24, #0x2
   1487c:	72a00062 	movk	w2, #0x3, lsl #16
   14880:	b9000022 	str	w2, [x1]
   14884:	52800642 	mov	w2, #0x32                  	// #50
   14888:	b9000002 	str	w2, [x0]
   1488c:	52800002 	mov	w2, #0x0                   	// #0
   14890:	b9406820 	ldr	w0, [x1, #104]
   14894:	12092000 	and	w0, w0, #0xff800000
   14898:	b9006820 	str	w0, [x1, #104]
   1489c:	540000a8 	b.hi	148b0 <ddr_setup+0x478>  // b.pmore
   148a0:	90000040 	adrp	x0, 1c000 <vprintf+0x418>
   148a4:	92401f01 	and	x1, x24, #0xff
   148a8:	91118000 	add	x0, x0, #0x460
   148ac:	b8617802 	ldr	w2, [x0, x1, lsl #2]
   148b0:	d2803984 	mov	x4, #0x1cc                 	// #460
   148b4:	d2802e00 	mov	x0, #0x170                 	// #368
   148b8:	f2a22804 	movk	x4, #0x1140, lsl #16
   148bc:	f2a22800 	movk	x0, #0x1140, lsl #16
   148c0:	aa0003e1 	mov	x1, x0
   148c4:	52800043 	mov	w3, #0x2                   	// #2
   148c8:	b9000082 	str	w2, [x4]
   148cc:	b9000003 	str	w3, [x0]
   148d0:	b9400020 	ldr	w0, [x1]
   148d4:	361fffe0 	tbz	w0, #3, 148d0 <ddr_setup+0x498>
   148d8:	b900003f 	str	wzr, [x1]
   148dc:	52800c80 	mov	w0, #0x64                  	// #100
   148e0:	97fff88e 	bl	12b18 <udelay>
   148e4:	7100071f 	cmp	w24, #0x1
   148e8:	540042a9 	b.ls	1513c <ddr_setup+0xd04>  // b.plast
   148ec:	71000b1f 	cmp	w24, #0x2
   148f0:	52826000 	mov	w0, #0x1300                	// #4864
   148f4:	72a10200 	movk	w0, #0x810, lsl #16
   148f8:	1a9f0000 	csel	w0, w0, wzr, eq  // eq = none
   148fc:	d2803984 	mov	x4, #0x1cc                 	// #460
   14900:	d2802e02 	mov	x2, #0x170                 	// #368
   14904:	f2a22804 	movk	x4, #0x1140, lsl #16
   14908:	f2a22802 	movk	x2, #0x1140, lsl #16
   1490c:	aa0203e1 	mov	x1, x2
   14910:	52800023 	mov	w3, #0x1                   	// #1
   14914:	b9000080 	str	w0, [x4]
   14918:	b9000043 	str	w3, [x2]
   1491c:	d503201f 	nop
   14920:	b9400020 	ldr	w0, [x1]
   14924:	3617ffe0 	tbz	w0, #2, 14920 <ddr_setup+0x4e8>
   14928:	b9400022 	ldr	w2, [x1]
   1492c:	52800020 	mov	w0, #0x1                   	// #1
   14930:	321c0042 	orr	w2, w2, #0x10
   14934:	b9000022 	str	w2, [x1]
   14938:	b9400022 	ldr	w2, [x1]
   1493c:	121b7842 	and	w2, w2, #0xffffffef
   14940:	b9000022 	str	w2, [x1]
   14944:	97fff875 	bl	12b18 <udelay>
   14948:	d2802484 	mov	x4, #0x124                 	// #292
   1494c:	d2804083 	mov	x3, #0x204                 	// #516
   14950:	f2a22804 	movk	x4, #0x1140, lsl #16
   14954:	f2a22803 	movk	x3, #0x1140, lsl #16
   14958:	1281e025 	mov	w5, #0xfffff0fe            	// #-3842
   1495c:	d2802c01 	mov	x1, #0x160                 	// #352
   14960:	b9400082 	ldr	w2, [x4]
   14964:	f2a22801 	movk	x1, #0x1140, lsl #16
   14968:	12057842 	and	w2, w2, #0xfbffffff
   1496c:	b9000082 	str	w2, [x4]
   14970:	b9400060 	ldr	w0, [x3]
   14974:	0a050000 	and	w0, w0, w5
   14978:	2a172000 	orr	w0, w0, w23, lsl #8
   1497c:	b9000060 	str	w0, [x3]
   14980:	b9400020 	ldr	w0, [x1]
   14984:	12000400 	and	w0, w0, #0x3
   14988:	6b17001f 	cmp	w0, w23
   1498c:	54ffffa1 	b.ne	14980 <ddr_setup+0x548>  // b.any
   14990:	52800000 	mov	w0, #0x0                   	// #0
   14994:	940018db 	bl	1ad00 <ddr_ctrl_reten_en_n>
   14998:	d2802004 	mov	x4, #0x100                 	// #256
   1499c:	d2800583 	mov	x3, #0x2c                  	// #44
   149a0:	f2a22824 	movk	x4, #0x1141, lsl #16
   149a4:	f2a22823 	movk	x3, #0x1141, lsl #16
   149a8:	d2a22822 	mov	x2, #0x11410000            	// #289472512
   149ac:	d2804901 	mov	x1, #0x248                 	// #584
   149b0:	b9400080 	ldr	w0, [x4]
   149b4:	f2a22821 	movk	x1, #0x1141, lsl #16
   149b8:	12177800 	and	w0, w0, #0xfffffeff
   149bc:	b9000080 	str	w0, [x4]
   149c0:	b9400060 	ldr	w0, [x3]
   149c4:	32080000 	orr	w0, w0, #0x1000000
   149c8:	b9000060 	str	w0, [x3]
   149cc:	b9400040 	ldr	w0, [x2]
   149d0:	32000000 	orr	w0, w0, #0x1
   149d4:	b9000040 	str	w0, [x2]
   149d8:	b9400020 	ldr	w0, [x1]
   149dc:	36cfffe0 	tbz	w0, #25, 149d8 <ddr_setup+0x5a0>
   149e0:	d2803d18 	mov	x24, #0x1e8                 	// #488
   149e4:	d280c885 	mov	x5, #0x644                 	// #1604
   149e8:	f2a22818 	movk	x24, #0x1140, lsl #16
   149ec:	f2a22825 	movk	x5, #0x1141, lsl #16
   149f0:	d280c384 	mov	x4, #0x61c                 	// #1564
   149f4:	d2804303 	mov	x3, #0x218                 	// #536
   149f8:	b9400302 	ldr	w2, [x24]
   149fc:	f2a22824 	movk	x4, #0x1141, lsl #16
   14a00:	f2a22823 	movk	x3, #0x1141, lsl #16
   14a04:	528de006 	mov	w6, #0x6f00                	// #28416
   14a08:	320d0042 	orr	w2, w2, #0x80000
   14a0c:	b9000302 	str	w2, [x24]
   14a10:	52800020 	mov	w0, #0x1                   	// #1
   14a14:	b94000a2 	ldr	w2, [x5]
   14a18:	12083c42 	and	w2, w2, #0xff0000ff
   14a1c:	32120042 	orr	w2, w2, #0x4000
   14a20:	b90000a2 	str	w2, [x5]
   14a24:	b9400081 	ldr	w1, [x4]
   14a28:	12032821 	and	w1, w1, #0xe00000ff
   14a2c:	2a060021 	orr	w1, w1, w6
   14a30:	b9000081 	str	w1, [x4]
   14a34:	b9400061 	ldr	w1, [x3]
   14a38:	32180021 	orr	w1, w1, #0x100
   14a3c:	b9000061 	str	w1, [x3]
   14a40:	97fff836 	bl	12b18 <udelay>
   14a44:	b9400300 	ldr	w0, [x24]
   14a48:	120c7800 	and	w0, w0, #0xfff7ffff
   14a4c:	b9000300 	str	w0, [x24]
   14a50:	97fffb80 	bl	13850 <cpg_reset_ddr_mc>
   14a54:	52800020 	mov	w0, #0x1                   	// #1
   14a58:	940018aa 	bl	1ad00 <ddr_ctrl_reten_en_n>
   14a5c:	91017fe0 	add	x0, sp, #0x5f
   14a60:	97fffc32 	bl	13b28 <program_mc1>
   14a64:	90000040 	adrp	x0, 1c000 <vprintf+0x418>
   14a68:	91130000 	add	x0, x0, #0x4c0
   14a6c:	91012004 	add	x4, x0, #0x48
   14a70:	52a22823 	mov	w3, #0x11410000            	// #289472512
   14a74:	d503201f 	nop
   14a78:	b9400402 	ldr	w2, [x0, #4]
   14a7c:	b8408401 	ldr	w1, [x0], #8
   14a80:	0b030021 	add	w1, w1, w3
   14a84:	eb00009f 	cmp	x4, x0
   14a88:	b9000022 	str	w2, [x1]
   14a8c:	54ffff61 	b.ne	14a78 <ddr_setup+0x640>  // b.any
   14a90:	90000040 	adrp	x0, 1c000 <vprintf+0x418>
   14a94:	91142000 	add	x0, x0, #0x508
   14a98:	91020004 	add	x4, x0, #0x80
   14a9c:	52a22803 	mov	w3, #0x11400000            	// #289406976
   14aa0:	b9400402 	ldr	w2, [x0, #4]
   14aa4:	b8408401 	ldr	w1, [x0], #8
   14aa8:	0b030021 	add	w1, w1, w3
   14aac:	eb00009f 	cmp	x4, x0
   14ab0:	b9000022 	str	w2, [x1]
   14ab4:	54ffff61 	b.ne	14aa0 <ddr_setup+0x668>  // b.any
   14ab8:	d2a22822 	mov	x2, #0x11410000            	// #289472512
   14abc:	d2804901 	mov	x1, #0x248                 	// #584
   14ac0:	f2a22821 	movk	x1, #0x1141, lsl #16
   14ac4:	b9400040 	ldr	w0, [x2]
   14ac8:	32000000 	orr	w0, w0, #0x1
   14acc:	b9000040 	str	w0, [x2]
   14ad0:	b9400020 	ldr	w0, [x1]
   14ad4:	36cfffe0 	tbz	w0, #25, 14ad0 <ddr_setup+0x698>
   14ad8:	d2804d02 	mov	x2, #0x268                 	// #616
   14adc:	d2802304 	mov	x4, #0x118                 	// #280
   14ae0:	f2a22822 	movk	x2, #0x1141, lsl #16
   14ae4:	f2a22804 	movk	x4, #0x1140, lsl #16
   14ae8:	d2802987 	mov	x7, #0x14c                 	// #332
   14aec:	d2802685 	mov	x5, #0x134                 	// #308
   14af0:	b9400040 	ldr	w0, [x2]
   14af4:	f2a22807 	movk	x7, #0x1140, lsl #16
   14af8:	f2a22805 	movk	x5, #0x1140, lsl #16
   14afc:	d2802003 	mov	x3, #0x100                 	// #256
   14b00:	32070000 	orr	w0, w0, #0x2000000
   14b04:	b9000040 	str	w0, [x2]
   14b08:	f2a22803 	movk	x3, #0x1140, lsl #16
   14b0c:	52a00026 	mov	w6, #0x10000               	// #65536
   14b10:	b9400082 	ldr	w2, [x4]
   14b14:	aa0303e1 	mov	x1, x3
   14b18:	52aa0400 	mov	w0, #0x50200000            	// #1344274432
   14b1c:	32080048 	orr	w8, w2, #0x1000000
   14b20:	b9000088 	str	w8, [x4]
   14b24:	b90000f7 	str	w23, [x7]
   14b28:	b90000a6 	str	w6, [x5]
   14b2c:	b9000060 	str	w0, [x3]
   14b30:	b9400020 	ldr	w0, [x1]
   14b34:	37e7ffe0 	tbnz	w0, #28, 14b30 <ddr_setup+0x6f8>
   14b38:	d2802900 	mov	x0, #0x148                 	// #328
   14b3c:	f2a22800 	movk	x0, #0x1140, lsl #16
   14b40:	b9400000 	ldr	w0, [x0]
   14b44:	6a2002ff 	bics	wzr, w23, w0
   14b48:	540038e1 	b.ne	15264 <ddr_setup+0xe2c>  // b.any
   14b4c:	d2802980 	mov	x0, #0x14c                 	// #332
   14b50:	f2a22800 	movk	x0, #0x1140, lsl #16
   14b54:	b9400000 	ldr	w0, [x0]
   14b58:	6a17001f 	tst	w0, w23
   14b5c:	54003841 	b.ne	15264 <ddr_setup+0xe2c>  // b.any
   14b60:	d2802300 	mov	x0, #0x118                 	// #280
   14b64:	f2a22800 	movk	x0, #0x1140, lsl #16
   14b68:	b9000002 	str	w2, [x0]
   14b6c:	35001f75 	cbnz	w21, 14f58 <ddr_setup+0xb20>
   14b70:	35001fd6 	cbnz	w22, 14f68 <ddr_setup+0xb30>
   14b74:	d2802484 	mov	x4, #0x124                 	// #292
   14b78:	d2801c03 	mov	x3, #0xe0                  	// #224
   14b7c:	f2a22804 	movk	x4, #0x1140, lsl #16
   14b80:	f2a22823 	movk	x3, #0x1141, lsl #16
   14b84:	d2801d81 	mov	x1, #0xec                  	// #236
   14b88:	52800225 	mov	w5, #0x11                  	// #17
   14b8c:	b9400082 	ldr	w2, [x4]
   14b90:	f2a22821 	movk	x1, #0x1141, lsl #16
   14b94:	32060042 	orr	w2, w2, #0x4000000
   14b98:	b9000082 	str	w2, [x4]
   14b9c:	b9400060 	ldr	w0, [x3]
   14ba0:	12196000 	and	w0, w0, #0xffffff80
   14ba4:	2a050000 	orr	w0, w0, w5
   14ba8:	b9000060 	str	w0, [x3]
   14bac:	d503201f 	nop
   14bb0:	b9400020 	ldr	w0, [x1]
   14bb4:	d3587800 	ubfx	x0, x0, #24, #7
   14bb8:	7101201f 	cmp	w0, #0x48
   14bbc:	54ffffa1 	b.ne	14bb0 <ddr_setup+0x778>  // b.any
   14bc0:	d2802580 	mov	x0, #0x12c                 	// #300
   14bc4:	d2803481 	mov	x1, #0x1a4                 	// #420
   14bc8:	f2a22800 	movk	x0, #0x1140, lsl #16
   14bcc:	f2a22801 	movk	x1, #0x1140, lsl #16
   14bd0:	531d726d 	lsl	w13, w19, #3
   14bd4:	d280268f 	mov	x15, #0x134                 	// #308
   14bd8:	b900001f 	str	wzr, [x0]
   14bdc:	d2803407 	mov	x7, #0x1a0                 	// #416
   14be0:	aa0003e6 	mov	x6, x0
   14be4:	4b1301ad 	sub	w13, w13, w19
   14be8:	b9400028 	ldr	w8, [x1]
   14bec:	910183ec 	add	x12, sp, #0x60
   14bf0:	9101a3eb 	add	x11, sp, #0x68
   14bf4:	52800005 	mov	w5, #0x0                   	// #0
   14bf8:	12001908 	and	w8, w8, #0x7f
   14bfc:	5280000a 	mov	w10, #0x0                   	// #0
   14c00:	2a0803e9 	mov	w9, w8
   14c04:	52801003 	mov	w3, #0x80                  	// #128
   14c08:	f2a2280f 	movk	x15, #0x1140, lsl #16
   14c0c:	5281200e 	mov	w14, #0x900                 	// #2304
   14c10:	f2a22807 	movk	x7, #0x1140, lsl #16
   14c14:	b90000ca 	str	w10, [x6]
   14c18:	2a0e00a4 	orr	w4, w5, w14
   14c1c:	52800002 	mov	w2, #0x0                   	// #0
   14c20:	b94001e1 	ldr	w1, [x15]
   14c24:	12001420 	and	w0, w1, #0x3f
   14c28:	79000180 	strh	w0, [x12]
   14c2c:	b90000c4 	str	w4, [x6]
   14c30:	6b09001f 	cmp	w0, w9
   14c34:	1a893000 	csel	w0, w0, w9, cc  // cc = lo, ul, last
   14c38:	b94000e4 	ldr	w4, [x7]
   14c3c:	12003c09 	and	w9, w0, #0xffff
   14c40:	12001484 	and	w4, w4, #0x3f
   14c44:	79000164 	strh	w4, [x11]
   14c48:	6b03009f 	cmp	w4, w3
   14c4c:	1a833080 	csel	w0, w4, w3, cc  // cc = lo, ul, last
   14c50:	12003c03 	and	w3, w0, #0xffff
   14c54:	d503201f 	nop
   14c58:	2a050040 	orr	w0, w2, w5
   14c5c:	b90000c0 	str	w0, [x6]
   14c60:	11040042 	add	w2, w2, #0x100
   14c64:	b94000e0 	ldr	w0, [x7]
   14c68:	12001401 	and	w1, w0, #0x3f
   14c6c:	f27a001f 	tst	x0, #0x40
   14c70:	0b040020 	add	w0, w1, w4
   14c74:	4b010081 	sub	w1, w4, w1
   14c78:	1a800020 	csel	w0, w1, w0, eq  // eq = none
   14c7c:	6b00007f 	cmp	w3, w0
   14c80:	1a809060 	csel	w0, w3, w0, ls  // ls = plast
   14c84:	7124005f 	cmp	w2, #0x900
   14c88:	12003c03 	and	w3, w0, #0xffff
   14c8c:	54fffe61 	b.ne	14c58 <ddr_setup+0x820>  // b.any
   14c90:	11001ca5 	add	w5, w5, #0x7
   14c94:	1100194a 	add	w10, w10, #0x6
   14c98:	6b0501bf 	cmp	w13, w5
   14c9c:	9100098c 	add	x12, x12, #0x2
   14ca0:	9100096b 	add	x11, x11, #0x2
   14ca4:	54fffb81 	b.ne	14c14 <ddr_setup+0x7dc>  // b.any
   14ca8:	d2802586 	mov	x6, #0x12c                 	// #300
   14cac:	d2803484 	mov	x4, #0x1a4                 	// #420
   14cb0:	f2a22806 	movk	x6, #0x1140, lsl #16
   14cb4:	4b090101 	sub	w1, w8, w9
   14cb8:	f2a22804 	movk	x4, #0x1140, lsl #16
   14cbc:	d2802500 	mov	x0, #0x128                 	// #296
   14cc0:	12001821 	and	w1, w1, #0x7f
   14cc4:	f2a22800 	movk	x0, #0x1140, lsl #16
   14cc8:	b90000df 	str	wzr, [x6]
   14ccc:	32190025 	orr	w5, w1, #0x80
   14cd0:	d280248a 	mov	x10, #0x124                 	// #292
   14cd4:	b9000085 	str	w5, [x4]
   14cd8:	f2a2280a 	movk	x10, #0x1140, lsl #16
   14cdc:	32170024 	orr	w4, w1, #0x200
   14ce0:	b9000004 	str	w4, [x0]
   14ce4:	d2802688 	mov	x8, #0x134                 	// #308
   14ce8:	7940c3e4 	ldrh	w4, [sp, #96]
   14cec:	f2a22808 	movk	x8, #0x1140, lsl #16
   14cf0:	b9400145 	ldr	w5, [x10]
   14cf4:	d2803407 	mov	x7, #0x1a0                 	// #416
   14cf8:	7940d3e0 	ldrh	w0, [sp, #104]
   14cfc:	4b090084 	sub	w4, w4, w9
   14d00:	121960a5 	and	w5, w5, #0xffffff80
   14d04:	12001484 	and	w4, w4, #0x3f
   14d08:	2a0100a1 	orr	w1, w5, w1
   14d0c:	b9000141 	str	w1, [x10]
   14d10:	b90000df 	str	wzr, [x6]
   14d14:	f2a22807 	movk	x7, #0x1140, lsl #16
   14d18:	4b030000 	sub	w0, w0, w3
   14d1c:	71000a7f 	cmp	w19, #0x2
   14d20:	b9400101 	ldr	w1, [x8]
   14d24:	12001400 	and	w0, w0, #0x3f
   14d28:	121a6421 	and	w1, w1, #0xffffffc0
   14d2c:	2a040021 	orr	w1, w1, w4
   14d30:	b9000101 	str	w1, [x8]
   14d34:	b90000c2 	str	w2, [x6]
   14d38:	b94000e1 	ldr	w1, [x7]
   14d3c:	12196021 	and	w1, w1, #0xffffff80
   14d40:	2a010000 	orr	w0, w0, w1
   14d44:	b90000e0 	str	w0, [x7]
   14d48:	54000261 	b.ne	14d94 <ddr_setup+0x95c>  // b.any
   14d4c:	7940c7e0 	ldrh	w0, [sp, #98]
   14d50:	528000c1 	mov	w1, #0x6                   	// #6
   14d54:	528120e2 	mov	w2, #0x907                 	// #2311
   14d58:	4b090009 	sub	w9, w0, w9
   14d5c:	7940d7e0 	ldrh	w0, [sp, #106]
   14d60:	b90000c1 	str	w1, [x6]
   14d64:	12001529 	and	w9, w9, #0x3f
   14d68:	4b030000 	sub	w0, w0, w3
   14d6c:	b9400101 	ldr	w1, [x8]
   14d70:	12001400 	and	w0, w0, #0x3f
   14d74:	121a6421 	and	w1, w1, #0xffffffc0
   14d78:	2a090021 	orr	w1, w1, w9
   14d7c:	b9000101 	str	w1, [x8]
   14d80:	b90000c2 	str	w2, [x6]
   14d84:	b94000e1 	ldr	w1, [x7]
   14d88:	12196021 	and	w1, w1, #0xffffff80
   14d8c:	2a010000 	orr	w0, w0, w1
   14d90:	b90000e0 	str	w0, [x7]
   14d94:	d2801c02 	mov	x2, #0xe0                  	// #224
   14d98:	d2801d81 	mov	x1, #0xec                  	// #236
   14d9c:	f2a22822 	movk	x2, #0x1141, lsl #16
   14da0:	f2a22821 	movk	x1, #0x1141, lsl #16
   14da4:	b9400040 	ldr	w0, [x2]
   14da8:	12196000 	and	w0, w0, #0xffffff80
   14dac:	321f0000 	orr	w0, w0, #0x2
   14db0:	b9000040 	str	w0, [x2]
   14db4:	d503201f 	nop
   14db8:	b9400020 	ldr	w0, [x1]
   14dbc:	d3587800 	ubfx	x0, x0, #24, #7
   14dc0:	7101001f 	cmp	w0, #0x40
   14dc4:	54ffffa1 	b.ne	14db8 <ddr_setup+0x980>  // b.any
   14dc8:	d2802482 	mov	x2, #0x124                 	// #292
   14dcc:	d2802c01 	mov	x1, #0x160                 	// #352
   14dd0:	f2a22802 	movk	x2, #0x1140, lsl #16
   14dd4:	f2a22801 	movk	x1, #0x1140, lsl #16
   14dd8:	b9400040 	ldr	w0, [x2]
   14ddc:	12057800 	and	w0, w0, #0xfbffffff
   14de0:	b9000040 	str	w0, [x2]
   14de4:	d503201f 	nop
   14de8:	b9400020 	ldr	w0, [x1]
   14dec:	12000400 	and	w0, w0, #0x3
   14df0:	6b17001f 	cmp	w0, w23
   14df4:	54ffffa1 	b.ne	14de8 <ddr_setup+0x9b0>  // b.any
   14df8:	35001a94 	cbnz	w20, 15148 <ddr_setup+0xd10>
   14dfc:	d280ce80 	mov	x0, #0x674                 	// #1652
   14e00:	d2803809 	mov	x9, #0x1c0                 	// #448
   14e04:	f2a22820 	movk	x0, #0x1141, lsl #16
   14e08:	f2a22809 	movk	x9, #0x1140, lsl #16
   14e0c:	d2820001 	mov	x1, #0x1000                	// #4096
   14e10:	d2803588 	mov	x8, #0x1ac                 	// #428
   14e14:	b9400000 	ldr	w0, [x0]
   14e18:	f2ba94a1 	movk	x1, #0xd4a5, lsl #16
   14e1c:	b9400124 	ldr	w4, [x9]
   14e20:	f2c01d01 	movk	x1, #0xe8, lsl #32
   14e24:	12003c05 	and	w5, w0, #0xffff
   14e28:	f2a22808 	movk	x8, #0x1140, lsl #16
   14e2c:	d3575c06 	ubfx	x6, x0, #23, #1
   14e30:	121f7884 	and	w4, w4, #0xfffffffe
   14e34:	d3773ca3 	ubfiz	x3, x5, #9, #16
   14e38:	2a060084 	orr	w4, w4, w6
   14e3c:	a94153f3 	ldp	x19, x20, [sp, #16]
   14e40:	710000df 	cmp	w6, #0x0
   14e44:	9ac30823 	udiv	x3, x1, x3
   14e48:	d3565806 	ubfx	x6, x0, #22, #1
   14e4c:	a9425bf5 	ldp	x21, x22, [sp, #32]
   14e50:	d280338a 	mov	x10, #0x19c                 	// #412
   14e54:	a94363f7 	ldp	x23, x24, [sp, #48]
   14e58:	53157c00 	lsr	w0, w0, #21
   14e5c:	f94023f9 	ldr	x25, [sp, #64]
   14e60:	b9000124 	str	w4, [x9]
   14e64:	b2405fe7 	mov	x7, #0xffffff              	// #16777215
   14e68:	1a9f00c6 	csel	w6, w6, wzr, eq  // eq = none
   14e6c:	b9400104 	ldr	w4, [x8]
   14e70:	eb07007f 	cmp	x3, x7
   14e74:	f2a2280a 	movk	x10, #0x1140, lsl #16
   14e78:	9a87d063 	csel	x3, x3, x7, le
   14e7c:	121f7884 	and	w4, w4, #0xfffffffe
   14e80:	d3783ca5 	ubfiz	x5, x5, #8, #16
   14e84:	2a060084 	orr	w4, w4, w6
   14e88:	d2802482 	mov	x2, #0x124                 	// #292
   14e8c:	53080000 	ubfiz	w0, w0, #24, #1
   14e90:	b9000104 	str	w4, [x8]
   14e94:	f2a22802 	movk	x2, #0x1140, lsl #16
   14e98:	2a030000 	orr	w0, w0, w3
   14e9c:	b9000140 	str	w0, [x10]
   14ea0:	b24047e6 	mov	x6, #0x3ffff               	// #262143
   14ea4:	9ac50820 	udiv	x0, x1, x5
   14ea8:	d2802187 	mov	x7, #0x10c                 	// #268
   14eac:	b9400041 	ldr	w1, [x2]
   14eb0:	f2a22807 	movk	x7, #0x1140, lsl #16
   14eb4:	d280c705 	mov	x5, #0x638                 	// #1592
   14eb8:	d280c384 	mov	x4, #0x61c                 	// #1564
   14ebc:	32060021 	orr	w1, w1, #0x4000000
   14ec0:	b9000041 	str	w1, [x2]
   14ec4:	eb06001f 	cmp	x0, x6
   14ec8:	f2a22825 	movk	x5, #0x1141, lsl #16
   14ecc:	b9400041 	ldr	w1, [x2]
   14ed0:	9a86d000 	csel	x0, x0, x6, le
   14ed4:	f2a22824 	movk	x4, #0x1141, lsl #16
   14ed8:	d2801e03 	mov	x3, #0xf0                  	// #240
   14edc:	12063421 	and	w1, w1, #0xfc0000ff
   14ee0:	f2a22823 	movk	x3, #0x1141, lsl #16
   14ee4:	2a002020 	orr	w0, w1, w0, lsl #8
   14ee8:	b9000040 	str	w0, [x2]
   14eec:	b9400040 	ldr	w0, [x2]
   14ef0:	12057800 	and	w0, w0, #0xfbffffff
   14ef4:	b9000040 	str	w0, [x2]
   14ef8:	b94000e0 	ldr	w0, [x7]
   14efc:	b94000a2 	ldr	w2, [x5]
   14f00:	b9400081 	ldr	w1, [x4]
   14f04:	d3441c00 	ubfx	x0, x0, #4, #4
   14f08:	11000c00 	add	w0, w0, #0x3
   14f0c:	d3587842 	ubfx	x2, x2, #24, #7
   14f10:	7100045f 	cmp	w2, #0x1
   14f14:	12196021 	and	w1, w1, #0xffffff80
   14f18:	531f7800 	lsl	w0, w0, #1
   14f1c:	11000802 	add	w2, w0, #0x2
   14f20:	1a821000 	csel	w0, w0, w2, ne  // ne = any
   14f24:	2a000020 	orr	w0, w1, w0
   14f28:	b9000080 	str	w0, [x4]
   14f2c:	39417fe0 	ldrb	w0, [sp, #95]
   14f30:	b9400061 	ldr	w1, [x3]
   14f34:	12000c00 	and	w0, w0, #0xf
   14f38:	121c6c21 	and	w1, w1, #0xfffffff0
   14f3c:	2a010000 	orr	w0, w0, w1
   14f40:	b9000060 	str	w0, [x3]
   14f44:	a8c77bfd 	ldp	x29, x30, [sp], #112
   14f48:	d65f03c0 	ret
   14f4c:	52800077 	mov	w23, #0x3                   	// #3
   14f50:	52800053 	mov	w19, #0x2                   	// #2
   14f54:	17fffd4a 	b	1447c <ddr_setup+0x44>
   14f58:	2a1303e1 	mov	w1, w19
   14f5c:	2a1703e0 	mov	w0, w23
   14f60:	97fffbaa 	bl	13e08 <exec_trainingVREF>
   14f64:	34ffe096 	cbz	w22, 14b74 <ddr_setup+0x73c>
   14f68:	d2803700 	mov	x0, #0x1b8                 	// #440
   14f6c:	d2802081 	mov	x1, #0x104                 	// #260
   14f70:	f2a22800 	movk	x0, #0x1140, lsl #16
   14f74:	f2a22801 	movk	x1, #0x1140, lsl #16
   14f78:	d2802103 	mov	x3, #0x108                 	// #264
   14f7c:	32089fe2 	mov	w2, #0xff00ff00            	// #-16711936
   14f80:	f2a22803 	movk	x3, #0x1140, lsl #16
   14f84:	b900001f 	str	wzr, [x0]
   14f88:	d2802000 	mov	x0, #0x100                 	// #256
   14f8c:	b9000022 	str	w2, [x1]
   14f90:	f2a22800 	movk	x0, #0x1140, lsl #16
   14f94:	aa0003e1 	mov	x1, x0
   14f98:	b9000062 	str	w2, [x3]
   14f9c:	52a61402 	mov	w2, #0x30a00000            	// #815792128
   14fa0:	b9000002 	str	w2, [x0]
   14fa4:	d503201f 	nop
   14fa8:	b9400020 	ldr	w0, [x1]
   14fac:	37e7ffe0 	tbnz	w0, #28, 14fa8 <ddr_setup+0xb70>
   14fb0:	d2803580 	mov	x0, #0x1ac                 	// #428
   14fb4:	f2a22800 	movk	x0, #0x1140, lsl #16
   14fb8:	b9400000 	ldr	w0, [x0]
   14fbc:	6a403aff 	tst	w23, w0, lsr #14
   14fc0:	54001521 	b.ne	15264 <ddr_setup+0xe2c>  // b.any
   14fc4:	d2803283 	mov	x3, #0x194                 	// #404
   14fc8:	d2802002 	mov	x2, #0x100                 	// #256
   14fcc:	f2a22803 	movk	x3, #0x1140, lsl #16
   14fd0:	52a60e04 	mov	w4, #0x30700000            	// #812646400
   14fd4:	f2a22802 	movk	x2, #0x1140, lsl #16
   14fd8:	b9400060 	ldr	w0, [x3]
   14fdc:	32190000 	orr	w0, w0, #0x80
   14fe0:	b9000060 	str	w0, [x3]
   14fe4:	b9000024 	str	w4, [x1]
   14fe8:	b9400040 	ldr	w0, [x2]
   14fec:	37e7ffe0 	tbnz	w0, #28, 14fe8 <ddr_setup+0xbb0>
   14ff0:	d2803800 	mov	x0, #0x1c0                 	// #448
   14ff4:	f2a22800 	movk	x0, #0x1140, lsl #16
   14ff8:	b9400000 	ldr	w0, [x0]
   14ffc:	6a4052ff 	tst	w23, w0, lsr #20
   15000:	54001321 	b.ne	15264 <ddr_setup+0xe2c>  // b.any
   15004:	d2803283 	mov	x3, #0x194                 	// #404
   15008:	d2803105 	mov	x5, #0x188                 	// #392
   1500c:	f2a22803 	movk	x3, #0x1140, lsl #16
   15010:	f2a22805 	movk	x5, #0x1140, lsl #16
   15014:	52a00106 	mov	w6, #0x80000               	// #524288
   15018:	d2802001 	mov	x1, #0x100                 	// #256
   1501c:	b9400060 	ldr	w0, [x3]
   15020:	52a22404 	mov	w4, #0x11200000            	// #287309824
   15024:	f2a22801 	movk	x1, #0x1140, lsl #16
   15028:	12187800 	and	w0, w0, #0xffffff7f
   1502c:	b9000060 	str	w0, [x3]
   15030:	b90000a6 	str	w6, [x5]
   15034:	b9000044 	str	w4, [x2]
   15038:	b9400020 	ldr	w0, [x1]
   1503c:	37e7ffe0 	tbnz	w0, #28, 15038 <ddr_setup+0xc00>
   15040:	d2803103 	mov	x3, #0x188                 	// #392
   15044:	d2802002 	mov	x2, #0x100                 	// #256
   15048:	f2a22803 	movk	x3, #0x1140, lsl #16
   1504c:	52a61400 	mov	w0, #0x30a00000            	// #815792128
   15050:	f2a22802 	movk	x2, #0x1140, lsl #16
   15054:	b900007f 	str	wzr, [x3]
   15058:	b9000020 	str	w0, [x1]
   1505c:	d503201f 	nop
   15060:	b9400040 	ldr	w0, [x2]
   15064:	37e7ffe0 	tbnz	w0, #28, 15060 <ddr_setup+0xc28>
   15068:	17fffec3 	b	14b74 <ddr_setup+0x73c>
   1506c:	d2804019 	mov	x25, #0x200                 	// #512
   15070:	d2800b12 	mov	x18, #0x58                  	// #88
   15074:	f2a22819 	movk	x25, #0x1140, lsl #16
   15078:	f2a22812 	movk	x18, #0x1140, lsl #16
   1507c:	52a0023e 	mov	w30, #0x110000              	// #1114112
   15080:	b900033e 	str	w30, [x25]
   15084:	528000d9 	mov	w25, #0x6                   	// #6
   15088:	b9000259 	str	w25, [x18]
   1508c:	17fffd53 	b	145d8 <ddr_setup+0x1a0>
   15090:	1100a0c6 	add	w6, w6, #0x28
   15094:	1100a252 	add	w18, w18, #0x28
   15098:	0b060000 	add	w0, w0, w6
   1509c:	7100145f 	cmp	w2, #0x5
   150a0:	12001e46 	and	w6, w18, #0xff
   150a4:	12001c00 	and	w0, w0, #0xff
   150a8:	54000b80 	b.eq	15218 <ddr_setup+0xde0>  // b.none
   150ac:	d2804019 	mov	x25, #0x200                 	// #512
   150b0:	d2800b12 	mov	x18, #0x58                  	// #88
   150b4:	f2a22819 	movk	x25, #0x1140, lsl #16
   150b8:	f2a22812 	movk	x18, #0x1140, lsl #16
   150bc:	52a0021e 	mov	w30, #0x100000              	// #1048576
   150c0:	b900033e 	str	w30, [x25]
   150c4:	528000d9 	mov	w25, #0x6                   	// #6
   150c8:	b9000259 	str	w25, [x18]
   150cc:	d2803892 	mov	x18, #0x1c4                 	// #452
   150d0:	d2803999 	mov	x25, #0x1cc                 	// #460
   150d4:	f2a22812 	movk	x18, #0x1140, lsl #16
   150d8:	f2a22819 	movk	x25, #0x1140, lsl #16
   150dc:	5280013e 	mov	w30, #0x9                   	// #9
   150e0:	b900025e 	str	w30, [x18]
   150e4:	d2802e92 	mov	x18, #0x174                 	// #372
   150e8:	f2a22812 	movk	x18, #0x1140, lsl #16
   150ec:	52a1001e 	mov	w30, #0x8000000             	// #134217728
   150f0:	b900033e 	str	w30, [x25]
   150f4:	52a02019 	mov	w25, #0x1000000             	// #16777216
   150f8:	b9000259 	str	w25, [x18]
   150fc:	52900012 	mov	w18, #0x8000                	// #32768
   15100:	17fffd3f 	b	145fc <ddr_setup+0x1c4>
   15104:	d3492c84 	ubfx	x4, x4, #9, #3
   15108:	7100049f 	cmp	w4, #0x1
   1510c:	54000a00 	b.eq	1524c <ddr_setup+0xe14>  // b.none
   15110:	34000964 	cbz	w4, 1523c <ddr_setup+0xe04>
   15114:	7100089f 	cmp	w4, #0x2
   15118:	54000740 	b.eq	15200 <ddr_setup+0xdc8>  // b.none
   1511c:	7100109f 	cmp	w4, #0x4
   15120:	54000a61 	b.ne	1526c <ddr_setup+0xe34>  // b.any
   15124:	529f0fe4 	mov	w4, #0xf87f                	// #63615
   15128:	0a0400c4 	and	w4, w6, w4
   1512c:	32170484 	orr	w4, w4, #0x600
   15130:	529e3fed 	mov	w13, #0xf1ff                	// #61951
   15134:	f90023f9 	str	x25, [sp, #64]
   15138:	17fffd06 	b	14550 <ddr_setup+0x118>
   1513c:	52824000 	mov	w0, #0x1200                	// #4608
   15140:	72a00080 	movk	w0, #0x4, lsl #16
   15144:	17fffdee 	b	148fc <ddr_setup+0x4c4>
   15148:	d2803702 	mov	x2, #0x1b8                 	// #440
   1514c:	d2802800 	mov	x0, #0x140                 	// #320
   15150:	f2a22802 	movk	x2, #0x1140, lsl #16
   15154:	f2a22800 	movk	x0, #0x1140, lsl #16
   15158:	52800023 	mov	w3, #0x1                   	// #1
   1515c:	d2802081 	mov	x1, #0x104                 	// #260
   15160:	b9000043 	str	w3, [x2]
   15164:	52800203 	mov	w3, #0x10                  	// #16
   15168:	f2a22801 	movk	x1, #0x1140, lsl #16
   1516c:	d2802102 	mov	x2, #0x108                 	// #264
   15170:	b9000003 	str	w3, [x0]
   15174:	5287bc03 	mov	w3, #0x3de0                	// #15840
   15178:	f2a22802 	movk	x2, #0x1140, lsl #16
   1517c:	72af1363 	movk	w3, #0x789b, lsl #16
   15180:	d2802000 	mov	x0, #0x100                 	// #256
   15184:	b9000023 	str	w3, [x1]
   15188:	f2a22800 	movk	x0, #0x1140, lsl #16
   1518c:	52894ac3 	mov	w3, #0x4a56                	// #19030
   15190:	72be21c3 	movk	w3, #0xf10e, lsl #16
   15194:	aa0003e1 	mov	x1, x0
   15198:	b9000043 	str	w3, [x2]
   1519c:	52a22402 	mov	w2, #0x11200000            	// #287309824
   151a0:	b9000002 	str	w2, [x0]
   151a4:	d503201f 	nop
   151a8:	b9400020 	ldr	w0, [x1]
   151ac:	37e7ffe0 	tbnz	w0, #28, 151a8 <ddr_setup+0xd70>
   151b0:	d2802002 	mov	x2, #0x100                 	// #256
   151b4:	52a22400 	mov	w0, #0x11200000            	// #287309824
   151b8:	f2a22802 	movk	x2, #0x1140, lsl #16
   151bc:	b9000020 	str	w0, [x1]
   151c0:	b9400040 	ldr	w0, [x2]
   151c4:	37e7ffe0 	tbnz	w0, #28, 151c0 <ddr_setup+0xd88>
   151c8:	d2802001 	mov	x1, #0x100                 	// #256
   151cc:	52a68400 	mov	w0, #0x34200000            	// #874512384
   151d0:	f2a22801 	movk	x1, #0x1140, lsl #16
   151d4:	b9000040 	str	w0, [x2]
   151d8:	b9400020 	ldr	w0, [x1]
   151dc:	37e7ffe0 	tbnz	w0, #28, 151d8 <ddr_setup+0xda0>
   151e0:	b9400020 	ldr	w0, [x1]
   151e4:	6a2002ff 	bics	wzr, w23, w0
   151e8:	540003e1 	b.ne	15264 <ddr_setup+0xe2c>  // b.any
   151ec:	d2803700 	mov	x0, #0x1b8                 	// #440
   151f0:	52800061 	mov	w1, #0x3                   	// #3
   151f4:	f2a22800 	movk	x0, #0x1140, lsl #16
   151f8:	b9000001 	str	w1, [x0]
   151fc:	17ffff00 	b	14dfc <ddr_setup+0x9c4>
   15200:	529f0fe4 	mov	w4, #0xf87f                	// #63615
   15204:	0a0400c4 	and	w4, w6, w4
   15208:	32160084 	orr	w4, w4, #0x400
   1520c:	529e3fed 	mov	w13, #0xf1ff                	// #61951
   15210:	f90023f9 	str	x25, [sp, #64]
   15214:	17fffccf 	b	14550 <ddr_setup+0x118>
   15218:	d2804019 	mov	x25, #0x200                 	// #512
   1521c:	d2800b12 	mov	x18, #0x58                  	// #88
   15220:	f2a22819 	movk	x25, #0x1140, lsl #16
   15224:	f2a22812 	movk	x18, #0x1140, lsl #16
   15228:	52a0023e 	mov	w30, #0x110000              	// #1114112
   1522c:	b900033e 	str	w30, [x25]
   15230:	528000d9 	mov	w25, #0x6                   	// #6
   15234:	b9000259 	str	w25, [x18]
   15238:	17ffffa5 	b	150cc <ddr_setup+0xc94>
   1523c:	2a0a03e4 	mov	w4, w10
   15240:	529e3fed 	mov	w13, #0xf1ff                	// #61951
   15244:	f90023f9 	str	x25, [sp, #64]
   15248:	17fffcc2 	b	14550 <ddr_setup+0x118>
   1524c:	529f0fe4 	mov	w4, #0xf87f                	// #63615
   15250:	0a0400c4 	and	w4, w6, w4
   15254:	32170084 	orr	w4, w4, #0x200
   15258:	529e3fed 	mov	w13, #0xf1ff                	// #61951
   1525c:	f90023f9 	str	x25, [sp, #64]
   15260:	17fffcbc 	b	14550 <ddr_setup+0x118>
   15264:	9400176b 	bl	1b010 <console_flush>
   15268:	97fff3ec 	bl	12218 <do_panic>
   1526c:	f90023f9 	str	x25, [sp, #64]
   15270:	94001768 	bl	1b010 <console_flush>
   15274:	97fff3e9 	bl	12218 <do_panic>

0000000000015278 <emmc_WaitCmd2Cmd_8Cycle>:
   15278:	d2801200 	mov	x0, #0x90                  	// #144
   1527c:	f2a23800 	movk	x0, #0x11c0, lsl #16
   15280:	b9400001 	ldr	w1, [x0]
   15284:	12001c21 	and	w1, w1, #0xff
   15288:	7100403f 	cmp	w1, #0x10
   1528c:	540003a0 	b.eq	15300 <emmc_WaitCmd2Cmd_8Cycle+0x88>  // b.none
   15290:	540001a9 	b.ls	152c4 <emmc_WaitCmd2Cmd_8Cycle+0x4c>  // b.plast
   15294:	7101003f 	cmp	w1, #0x40
   15298:	52800280 	mov	w0, #0x14                  	// #20
   1529c:	540000a0 	b.eq	152b0 <emmc_WaitCmd2Cmd_8Cycle+0x38>  // b.none
   152a0:	54000209 	b.ls	152e0 <emmc_WaitCmd2Cmd_8Cycle+0x68>  // b.plast
   152a4:	7102003f 	cmp	w1, #0x80
   152a8:	528003c0 	mov	w0, #0x1e                  	// #30
   152ac:	54000041 	b.ne	152b4 <emmc_WaitCmd2Cmd_8Cycle+0x3c>  // b.any
   152b0:	17fff61a 	b	12b18 <udelay>
   152b4:	7103fc3f 	cmp	w1, #0xff
   152b8:	52800140 	mov	w0, #0xa                   	// #10
   152bc:	1a9f0000 	csel	w0, w0, wzr, eq  // eq = none
   152c0:	17fff616 	b	12b18 <udelay>
   152c4:	7100103f 	cmp	w1, #0x4
   152c8:	540001c0 	b.eq	15300 <emmc_WaitCmd2Cmd_8Cycle+0x88>  // b.none
   152cc:	54000128 	b.hi	152f0 <emmc_WaitCmd2Cmd_8Cycle+0x78>  // b.pmore
   152d0:	7100083f 	cmp	w1, #0x2
   152d4:	52800140 	mov	w0, #0xa                   	// #10
   152d8:	1a8083e0 	csel	w0, wzr, w0, hi  // hi = pmore
   152dc:	17fff60f 	b	12b18 <udelay>
   152e0:	7100803f 	cmp	w1, #0x20
   152e4:	52800140 	mov	w0, #0xa                   	// #10
   152e8:	1a9f0000 	csel	w0, w0, wzr, eq  // eq = none
   152ec:	17fff60b 	b	12b18 <udelay>
   152f0:	7100203f 	cmp	w1, #0x8
   152f4:	52800140 	mov	w0, #0xa                   	// #10
   152f8:	1a9f0000 	csel	w0, w0, wzr, eq  // eq = none
   152fc:	17fff607 	b	12b18 <udelay>
   15300:	52800140 	mov	w0, #0xa                   	// #10
   15304:	17fff605 	b	12b18 <udelay>

0000000000015308 <emmc_softreset>:
   15308:	a9be7bfd 	stp	x29, x30, [sp, #-32]!
   1530c:	f0000040 	adrp	x0, 20000 <__STACKS_START__+0x700>
   15310:	9128c000 	add	x0, x0, #0xa30
   15314:	910003fd 	mov	x29, sp
   15318:	a90153f3 	stp	x19, x20, [sp, #16]
   1531c:	d2800f02 	mov	x2, #0x78                  	// #120
   15320:	f2a23802 	movk	x2, #0x11c0, lsl #16
   15324:	b9008c1f 	str	wzr, [x0, #140]
   15328:	52807d13 	mov	w19, #0x3e8                 	// #1000
   1532c:	b900901f 	str	wzr, [x0, #144]
   15330:	aa0203f4 	mov	x20, x2
   15334:	b900941f 	str	wzr, [x0, #148]
   15338:	5284e201 	mov	w1, #0x2710                	// #10000
   1533c:	b900a01f 	str	wzr, [x0, #160]
   15340:	b9009c1f 	str	wzr, [x0, #156]
   15344:	b900981f 	str	wzr, [x0, #152]
   15348:	b9400040 	ldr	w0, [x2]
   1534c:	367001a0 	tbz	w0, #14, 15380 <emmc_softreset+0x78>
   15350:	b9400282 	ldr	w2, [x20]
   15354:	52807d00 	mov	w0, #0x3e8                 	// #1000
   15358:	51000421 	sub	w1, w1, #0x1
   1535c:	36700122 	tbz	w2, #14, 15380 <emmc_softreset+0x78>
   15360:	7100027f 	cmp	w19, #0x0
   15364:	7a40c820 	ccmp	w1, #0x0, #0x0, gt
   15368:	540003c1 	b.ne	153e0 <emmc_softreset+0xd8>  // b.any
   1536c:	97fff5eb 	bl	12b18 <udelay>
   15370:	51000673 	sub	w19, w19, #0x1
   15374:	b9400280 	ldr	w0, [x20]
   15378:	5284e1e1 	mov	w1, #0x270f                	// #9999
   1537c:	3777fea0 	tbnz	w0, #14, 15350 <emmc_softreset+0x48>
   15380:	d2807000 	mov	x0, #0x380                 	// #896
   15384:	d2800e06 	mov	x6, #0x70                  	// #112
   15388:	f2a23800 	movk	x0, #0x11c0, lsl #16
   1538c:	f2a23806 	movk	x6, #0x11c0, lsl #16
   15390:	a94153f3 	ldp	x19, x20, [sp, #16]
   15394:	d2800f05 	mov	x5, #0x78                  	// #120
   15398:	b9400001 	ldr	w1, [x0]
   1539c:	f2a23805 	movk	x5, #0x11c0, lsl #16
   153a0:	d2801004 	mov	x4, #0x80                  	// #128
   153a4:	d2801103 	mov	x3, #0x88                  	// #136
   153a8:	121f7821 	and	w1, w1, #0xfffffffe
   153ac:	b9000001 	str	w1, [x0]
   153b0:	f2a23804 	movk	x4, #0x11c0, lsl #16
   153b4:	52810002 	mov	w2, #0x800                 	// #2048
   153b8:	b9400001 	ldr	w1, [x0]
   153bc:	f2a23803 	movk	x3, #0x11c0, lsl #16
   153c0:	32000021 	orr	w1, w1, #0x1
   153c4:	b9000001 	str	w1, [x0]
   153c8:	b90000df 	str	wzr, [x6]
   153cc:	b90000a2 	str	w2, [x5]
   153d0:	b900009f 	str	wzr, [x4]
   153d4:	b9000062 	str	w2, [x3]
   153d8:	a8c27bfd 	ldp	x29, x30, [sp], #32
   153dc:	d65f03c0 	ret
   153e0:	35fffb81 	cbnz	w1, 15350 <emmc_softreset+0x48>
   153e4:	17ffffe7 	b	15380 <emmc_softreset+0x78>

00000000000153e8 <emmc_exec_cmd>:
   153e8:	a9b97bfd 	stp	x29, x30, [sp, #-112]!
   153ec:	910003fd 	mov	x29, sp
   153f0:	a90153f3 	stp	x19, x20, [sp, #16]
   153f4:	b9006be0 	str	w0, [sp, #104]
   153f8:	b4003841 	cbz	x1, 15b00 <emmc_exec_cmd+0x718>
   153fc:	f0000042 	adrp	x2, 20000 <__STACKS_START__+0x700>
   15400:	a90573fb 	stp	x27, x28, [sp, #80]
   15404:	9128c05c 	add	x28, x2, #0xa30
   15408:	b9406f93 	ldr	w19, [x28, #108]
   1540c:	7100067f 	cmp	w19, #0x1
   15410:	540032a1 	b.ne	15a64 <emmc_exec_cmd+0x67c>  // b.any
   15414:	b940a380 	ldr	w0, [x28, #160]
   15418:	7100041f 	cmp	w0, #0x1
   1541c:	54003360 	b.eq	15a88 <emmc_exec_cmd+0x6a0>  // b.none
   15420:	b9401f94 	ldr	w20, [x28, #28]
   15424:	d2800e1b 	mov	x27, #0x70                  	// #112
   15428:	a9025bf5 	stp	x21, x22, [sp, #32]
   1542c:	d2801116 	mov	x22, #0x88                  	// #136
   15430:	aa0103f5 	mov	x21, x1
   15434:	a90363f7 	stp	x23, x24, [sp, #48]
   15438:	d2801017 	mov	x23, #0x80                  	// #128
   1543c:	52800018 	mov	w24, #0x0                   	// #0
   15440:	a9046bf9 	stp	x25, x26, [sp, #64]
   15444:	12180e99 	and	w25, w20, #0xf00
   15448:	12140a94 	and	w20, w20, #0x7000
   1544c:	5280001a 	mov	w26, #0x0                   	// #0
   15450:	f2a23817 	movk	x23, #0x11c0, lsl #16
   15454:	f2a23816 	movk	x22, #0x11c0, lsl #16
   15458:	f2a2381b 	movk	x27, #0x11c0, lsl #16
   1545c:	b9409f80 	ldr	w0, [x28, #156]
   15460:	7100041f 	cmp	w0, #0x1
   15464:	54002280 	b.eq	158b4 <emmc_exec_cmd+0x4cc>  // b.none
   15468:	94000334 	bl	16138 <emmc_interrupt>
   1546c:	b940a380 	ldr	w0, [x28, #160]
   15470:	7100041f 	cmp	w0, #0x1
   15474:	54ffff40 	b.eq	1545c <emmc_exec_cmd+0x74>  // b.none
   15478:	7100175f 	cmp	w26, #0x5
   1547c:	540013c0 	b.eq	156f4 <emmc_exec_cmd+0x30c>  // b.none
   15480:	54000688 	b.hi	15550 <emmc_exec_cmd+0x168>  // b.pmore
   15484:	71000b5f 	cmp	w26, #0x2
   15488:	540002c0 	b.eq	154e0 <emmc_exec_cmd+0xf8>  // b.none
   1548c:	54001128 	b.hi	156b0 <emmc_exec_cmd+0x2c8>  // b.pmore
   15490:	7100075f 	cmp	w26, #0x1
   15494:	54001681 	b.ne	15764 <emmc_exec_cmd+0x37c>  // b.any
   15498:	d2800203 	mov	x3, #0x10                  	// #16
   1549c:	b9402384 	ldr	w4, [x28, #32]
   154a0:	f2a23803 	movk	x3, #0x11c0, lsl #16
   154a4:	d2a23801 	mov	x1, #0x11c00000            	// #297795584
   154a8:	52800020 	mov	w0, #0x1                   	// #1
   154ac:	b9000064 	str	w4, [x3]
   154b0:	b9402b83 	ldr	w3, [x28, #40]
   154b4:	b9000023 	str	w3, [x1]
   154b8:	b9008f80 	str	w0, [x28, #140]
   154bc:	b900a380 	str	w0, [x28, #160]
   154c0:	35001a59 	cbnz	w25, 15808 <emmc_exec_cmd+0x420>
   154c4:	b9409f80 	ldr	w0, [x28, #156]
   154c8:	7100041f 	cmp	w0, #0x1
   154cc:	54001f40 	b.eq	158b4 <emmc_exec_cmd+0x4cc>  // b.none
   154d0:	9400031a 	bl	16138 <emmc_interrupt>
   154d4:	b940a380 	ldr	w0, [x28, #160]
   154d8:	7100041f 	cmp	w0, #0x1
   154dc:	540037e0 	b.eq	15bd8 <emmc_exec_cmd+0x7f0>  // b.none
   154e0:	b90002ff 	str	wzr, [x23]
   154e4:	52810000 	mov	w0, #0x800                 	// #2048
   154e8:	b90002c0 	str	w0, [x22]
   154ec:	52900fe0 	mov	w0, #0x807f                	// #32895
   154f0:	b940c381 	ldr	w1, [x28, #192]
   154f4:	6a00003f 	tst	w1, w0
   154f8:	54001c01 	b.ne	15878 <emmc_exec_cmd+0x490>  // b.any
   154fc:	b940bf80 	ldr	w0, [x28, #188]
   15500:	37001d60 	tbnz	w0, #0, 158ac <emmc_exec_cmd+0x4c4>
   15504:	b9409f80 	ldr	w0, [x28, #156]
   15508:	7100041f 	cmp	w0, #0x1
   1550c:	54001d40 	b.eq	158b4 <emmc_exec_cmd+0x4cc>  // b.none
   15510:	9400030a 	bl	16138 <emmc_interrupt>
   15514:	b940a380 	ldr	w0, [x28, #160]
   15518:	7100041f 	cmp	w0, #0x1
   1551c:	540037e0 	b.eq	15c18 <emmc_exec_cmd+0x830>  // b.none
   15520:	52800153 	mov	w19, #0xa                   	// #10
   15524:	7100071f 	cmp	w24, #0x1
   15528:	54001521 	b.ne	157cc <emmc_exec_cmd+0x3e4>  // b.any
   1552c:	b9008f9f 	str	wzr, [x28, #140]
   15530:	a9425bf5 	ldp	x21, x22, [sp, #32]
   15534:	a94363f7 	ldp	x23, x24, [sp, #48]
   15538:	a9446bf9 	ldp	x25, x26, [sp, #64]
   1553c:	a94573fb 	ldp	x27, x28, [sp, #80]
   15540:	2a1303e0 	mov	w0, w19
   15544:	a94153f3 	ldp	x19, x20, [sp, #16]
   15548:	a8c77bfd 	ldp	x29, x30, [sp], #112
   1554c:	d65f03c0 	ret
   15550:	7100235f 	cmp	w26, #0x8
   15554:	540005a0 	b.eq	15608 <emmc_exec_cmd+0x220>  // b.none
   15558:	540011e8 	b.hi	15794 <emmc_exec_cmd+0x3ac>  // b.pmore
   1555c:	71001b5f 	cmp	w26, #0x6
   15560:	54000fe1 	b.ne	1575c <emmc_exec_cmd+0x374>  // b.any
   15564:	b9408383 	ldr	w3, [x28, #128]
   15568:	52800020 	mov	w0, #0x1                   	// #1
   1556c:	b9009380 	str	w0, [x28, #144]
   15570:	b900a380 	str	w0, [x28, #160]
   15574:	b9402781 	ldr	w1, [x28, #36]
   15578:	34002363 	cbz	w3, 159e4 <emmc_exec_cmd+0x5fc>
   1557c:	7100043f 	cmp	w1, #0x1
   15580:	54002a20 	b.eq	15ac4 <emmc_exec_cmd+0x6dc>  // b.none
   15584:	52912fe0 	mov	w0, #0x897f                	// #35199
   15588:	b90002c0 	str	w0, [x22]
   1558c:	b9409f80 	ldr	w0, [x28, #156]
   15590:	7100041f 	cmp	w0, #0x1
   15594:	54001900 	b.eq	158b4 <emmc_exec_cmd+0x4cc>  // b.none
   15598:	940002e8 	bl	16138 <emmc_interrupt>
   1559c:	b940a380 	ldr	w0, [x28, #160]
   155a0:	7100041f 	cmp	w0, #0x1
   155a4:	54002da0 	b.eq	15b58 <emmc_exec_cmd+0x770>  // b.none
   155a8:	b940c381 	ldr	w1, [x28, #192]
   155ac:	52900fe0 	mov	w0, #0x807f                	// #32895
   155b0:	6a00003f 	tst	w1, w0
   155b4:	54001fe1 	b.ne	159b0 <emmc_exec_cmd+0x5c8>  // b.any
   155b8:	b9409b80 	ldr	w0, [x28, #152]
   155bc:	7100041f 	cmp	w0, #0x1
   155c0:	540028e0 	b.eq	15adc <emmc_exec_cmd+0x6f4>  // b.none
   155c4:	b9409780 	ldr	w0, [x28, #148]
   155c8:	7100041f 	cmp	w0, #0x1
   155cc:	54004120 	b.eq	15df0 <emmc_exec_cmd+0xa08>  // b.none
   155d0:	52800080 	mov	w0, #0x4                   	// #4
   155d4:	b90002e0 	str	w0, [x23]
   155d8:	52910fe0 	mov	w0, #0x887f                	// #34943
   155dc:	b90002c0 	str	w0, [x22]
   155e0:	52800020 	mov	w0, #0x1                   	// #1
   155e4:	b900a380 	str	w0, [x28, #160]
   155e8:	b9409f80 	ldr	w0, [x28, #156]
   155ec:	7100041f 	cmp	w0, #0x1
   155f0:	54001620 	b.eq	158b4 <emmc_exec_cmd+0x4cc>  // b.none
   155f4:	940002d1 	bl	16138 <emmc_interrupt>
   155f8:	b940a380 	ldr	w0, [x28, #160]
   155fc:	7100041f 	cmp	w0, #0x1
   15600:	540038c0 	b.eq	15d18 <emmc_exec_cmd+0x930>  // b.none
   15604:	d503201f 	nop
   15608:	b9408380 	ldr	w0, [x28, #128]
   1560c:	35000120 	cbnz	w0, 15630 <emmc_exec_cmd+0x248>
   15610:	d2806c02 	mov	x2, #0x360                 	// #864
   15614:	d2800400 	mov	x0, #0x20                  	// #32
   15618:	f2a23802 	movk	x2, #0x11c0, lsl #16
   1561c:	f2a23800 	movk	x0, #0x11c0, lsl #16
   15620:	52820201 	mov	w1, #0x1010                	// #4112
   15624:	b9000041 	str	w1, [x2]
   15628:	b900001f 	str	wzr, [x0]
   1562c:	b900979f 	str	wzr, [x28, #148]
   15630:	d2800f01 	mov	x1, #0x78                  	// #120
   15634:	b90002ff 	str	wzr, [x23]
   15638:	52810000 	mov	w0, #0x800                 	// #2048
   1563c:	f2a23801 	movk	x1, #0x11c0, lsl #16
   15640:	b90002c0 	str	w0, [x22]
   15644:	b900037f 	str	wzr, [x27]
   15648:	b9000020 	str	w0, [x1]
   1564c:	b940bf80 	ldr	w0, [x28, #188]
   15650:	371012e0 	tbnz	w0, #2, 158ac <emmc_exec_cmd+0x4c4>
   15654:	b9409f80 	ldr	w0, [x28, #156]
   15658:	7100041f 	cmp	w0, #0x1
   1565c:	540012c0 	b.eq	158b4 <emmc_exec_cmd+0x4cc>  // b.none
   15660:	940002b6 	bl	16138 <emmc_interrupt>
   15664:	b940a380 	ldr	w0, [x28, #160]
   15668:	7100041f 	cmp	w0, #0x1
   1566c:	54fff5c1 	b.ne	15524 <emmc_exec_cmd+0x13c>  // b.any
   15670:	b9409f80 	ldr	w0, [x28, #156]
   15674:	7100041f 	cmp	w0, #0x1
   15678:	540011e0 	b.eq	158b4 <emmc_exec_cmd+0x4cc>  // b.none
   1567c:	940002af 	bl	16138 <emmc_interrupt>
   15680:	b940a380 	ldr	w0, [x28, #160]
   15684:	7100041f 	cmp	w0, #0x1
   15688:	54fff4e1 	b.ne	15524 <emmc_exec_cmd+0x13c>  // b.any
   1568c:	b9409f80 	ldr	w0, [x28, #156]
   15690:	7100041f 	cmp	w0, #0x1
   15694:	54001100 	b.eq	158b4 <emmc_exec_cmd+0x4cc>  // b.none
   15698:	940002a8 	bl	16138 <emmc_interrupt>
   1569c:	b940a380 	ldr	w0, [x28, #160]
   156a0:	7100041f 	cmp	w0, #0x1
   156a4:	54fff401 	b.ne	15524 <emmc_exec_cmd+0x13c>  // b.any
   156a8:	5280015a 	mov	w26, #0xa                   	// #10
   156ac:	17ffff6c 	b	1545c <emmc_exec_cmd+0x74>
   156b0:	71000f5f 	cmp	w26, #0x3
   156b4:	54000b80 	b.eq	15824 <emmc_exec_cmd+0x43c>  // b.none
   156b8:	7100135f 	cmp	w26, #0x4
   156bc:	54000541 	b.ne	15764 <emmc_exec_cmd+0x37c>  // b.any
   156c0:	52900ffa 	mov	w26, #0x807f                	// #32895
   156c4:	b940c380 	ldr	w0, [x28, #192]
   156c8:	6a1a001f 	tst	w0, w26
   156cc:	54000d61 	b.ne	15878 <emmc_exec_cmd+0x490>  // b.any
   156d0:	b9400b80 	ldr	w0, [x28, #8]
   156d4:	36381e60 	tbz	w0, #7, 15aa0 <emmc_exec_cmd+0x6b8>
   156d8:	b9409f80 	ldr	w0, [x28, #156]
   156dc:	7100041f 	cmp	w0, #0x1
   156e0:	54000ea0 	b.eq	158b4 <emmc_exec_cmd+0x4cc>  // b.none
   156e4:	94000295 	bl	16138 <emmc_interrupt>
   156e8:	b940a380 	ldr	w0, [x28, #160]
   156ec:	7100041f 	cmp	w0, #0x1
   156f0:	54002f40 	b.eq	15cd8 <emmc_exec_cmd+0x8f0>  // b.none
   156f4:	5285ffe0 	mov	w0, #0x2fff                	// #12287
   156f8:	6b00029f 	cmp	w20, w0
   156fc:	54000d89 	b.ls	158ac <emmc_exec_cmd+0x4c4>  // b.plast
   15700:	b9409f80 	ldr	w0, [x28, #156]
   15704:	7100041f 	cmp	w0, #0x1
   15708:	54000d60 	b.eq	158b4 <emmc_exec_cmd+0x4cc>  // b.none
   1570c:	9400028b 	bl	16138 <emmc_interrupt>
   15710:	b940a380 	ldr	w0, [x28, #160]
   15714:	7100041f 	cmp	w0, #0x1
   15718:	54fff261 	b.ne	15564 <emmc_exec_cmd+0x17c>  // b.any
   1571c:	b9409f80 	ldr	w0, [x28, #156]
   15720:	7100041f 	cmp	w0, #0x1
   15724:	54000c80 	b.eq	158b4 <emmc_exec_cmd+0x4cc>  // b.none
   15728:	94000284 	bl	16138 <emmc_interrupt>
   1572c:	b940a380 	ldr	w0, [x28, #160]
   15730:	7100041f 	cmp	w0, #0x1
   15734:	54fff181 	b.ne	15564 <emmc_exec_cmd+0x17c>  // b.any
   15738:	b9409f80 	ldr	w0, [x28, #156]
   1573c:	7100041f 	cmp	w0, #0x1
   15740:	54000ba0 	b.eq	158b4 <emmc_exec_cmd+0x4cc>  // b.none
   15744:	9400027d 	bl	16138 <emmc_interrupt>
   15748:	b940a380 	ldr	w0, [x28, #160]
   1574c:	7100041f 	cmp	w0, #0x1
   15750:	54fff0a1 	b.ne	15564 <emmc_exec_cmd+0x17c>  // b.any
   15754:	528000da 	mov	w26, #0x6                   	// #6
   15758:	17ffff41 	b	1545c <emmc_exec_cmd+0x74>
   1575c:	71001f5f 	cmp	w26, #0x7
   15760:	54fff240 	b.eq	155a8 <emmc_exec_cmd+0x1c0>  // b.none
   15764:	b9400b80 	ldr	w0, [x28, #8]
   15768:	377033c0 	tbnz	w0, #14, 15de0 <emmc_exec_cmd+0x9f8>
   1576c:	d2800f01 	mov	x1, #0x78                  	// #120
   15770:	b900037f 	str	wzr, [x27]
   15774:	f2a23801 	movk	x1, #0x11c0, lsl #16
   15778:	52810000 	mov	w0, #0x800                 	// #2048
   1577c:	b9000020 	str	w0, [x1]
   15780:	52800020 	mov	w0, #0x1                   	// #1
   15784:	b90002e0 	str	w0, [x23]
   15788:	52910fe0 	mov	w0, #0x887f                	// #34943
   1578c:	b90002c0 	str	w0, [x22]
   15790:	17ffff42 	b	15498 <emmc_exec_cmd+0xb0>
   15794:	7100275f 	cmp	w26, #0x9
   15798:	54000321 	b.ne	157fc <emmc_exec_cmd+0x414>  // b.any
   1579c:	b9408380 	ldr	w0, [x28, #128]
   157a0:	35ffec20 	cbnz	w0, 15524 <emmc_exec_cmd+0x13c>
   157a4:	d2806c01 	mov	x1, #0x360                 	// #864
   157a8:	d2800400 	mov	x0, #0x20                  	// #32
   157ac:	f2a23801 	movk	x1, #0x11c0, lsl #16
   157b0:	f2a23800 	movk	x0, #0x11c0, lsl #16
   157b4:	52820203 	mov	w3, #0x1010                	// #4112
   157b8:	7100071f 	cmp	w24, #0x1
   157bc:	b9000023 	str	w3, [x1]
   157c0:	b900001f 	str	wzr, [x0]
   157c4:	b900979f 	str	wzr, [x28, #148]
   157c8:	54ffeb20 	b.eq	1552c <emmc_exec_cmd+0x144>  // b.none
   157cc:	97fffecf 	bl	15308 <emmc_softreset>
   157d0:	2a1303e1 	mov	w1, w19
   157d4:	528001a0 	mov	w0, #0xd                   	// #13
   157d8:	94000682 	bl	171e0 <emmc_write_error_info>
   157dc:	2a1303e0 	mov	w0, w19
   157e0:	a94153f3 	ldp	x19, x20, [sp, #16]
   157e4:	a9425bf5 	ldp	x21, x22, [sp, #32]
   157e8:	a94363f7 	ldp	x23, x24, [sp, #48]
   157ec:	a9446bf9 	ldp	x25, x26, [sp, #64]
   157f0:	a94573fb 	ldp	x27, x28, [sp, #80]
   157f4:	a8c77bfd 	ldp	x29, x30, [sp], #112
   157f8:	d65f03c0 	ret
   157fc:	71002b5f 	cmp	w26, #0xa
   15800:	54fffb21 	b.ne	15764 <emmc_exec_cmd+0x37c>  // b.any
   15804:	17ffff48 	b	15524 <emmc_exec_cmd+0x13c>
   15808:	b9409f80 	ldr	w0, [x28, #156]
   1580c:	7100041f 	cmp	w0, #0x1
   15810:	54000520 	b.eq	158b4 <emmc_exec_cmd+0x4cc>  // b.none
   15814:	94000249 	bl	16138 <emmc_interrupt>
   15818:	b940a380 	ldr	w0, [x28, #160]
   1581c:	7100041f 	cmp	w0, #0x1
   15820:	54001bc0 	b.eq	15b98 <emmc_exec_cmd+0x7b0>  // b.none
   15824:	b90002ff 	str	wzr, [x23]
   15828:	52810000 	mov	w0, #0x800                 	// #2048
   1582c:	b90002c0 	str	w0, [x22]
   15830:	52900fe0 	mov	w0, #0x807f                	// #32895
   15834:	b940c381 	ldr	w1, [x28, #192]
   15838:	6a00003f 	tst	w1, w0
   1583c:	54000580 	b.eq	158ec <emmc_exec_cmd+0x504>  // b.none
   15840:	b940a780 	ldr	w0, [x28, #164]
   15844:	7100041f 	cmp	w0, #0x1
   15848:	54000181 	b.ne	15878 <emmc_exec_cmd+0x490>  // b.any
   1584c:	b940c380 	ldr	w0, [x28, #192]
   15850:	36300140 	tbz	w0, #6, 15878 <emmc_exec_cmd+0x490>
   15854:	b9409f80 	ldr	w0, [x28, #156]
   15858:	7100041f 	cmp	w0, #0x1
   1585c:	540002c0 	b.eq	158b4 <emmc_exec_cmd+0x4cc>  // b.none
   15860:	94000236 	bl	16138 <emmc_interrupt>
   15864:	b940a398 	ldr	w24, [x28, #160]
   15868:	7100071f 	cmp	w24, #0x1
   1586c:	54002980 	b.eq	15d9c <emmc_exec_cmd+0x9b4>  // b.none
   15870:	528000b3 	mov	w19, #0x5                   	// #5
   15874:	17ffff2e 	b	1552c <emmc_exec_cmd+0x144>
   15878:	b9400b81 	ldr	w1, [x28, #8]
   1587c:	f0000020 	adrp	x0, 1c000 <vprintf+0x418>
   15880:	91162000 	add	x0, x0, #0x588
   15884:	94001577 	bl	1ae60 <tf_log>
   15888:	b9409f80 	ldr	w0, [x28, #156]
   1588c:	7100041f 	cmp	w0, #0x1
   15890:	54000120 	b.eq	158b4 <emmc_exec_cmd+0x4cc>  // b.none
   15894:	94000229 	bl	16138 <emmc_interrupt>
   15898:	b940a380 	ldr	w0, [x28, #160]
   1589c:	7100041f 	cmp	w0, #0x1
   158a0:	540013a0 	b.eq	15b14 <emmc_exec_cmd+0x72c>  // b.none
   158a4:	52800333 	mov	w19, #0x19                  	// #25
   158a8:	17ffff1f 	b	15524 <emmc_exec_cmd+0x13c>
   158ac:	97fffe73 	bl	15278 <emmc_WaitCmd2Cmd_8Cycle>
   158b0:	b9409f80 	ldr	w0, [x28, #156]
   158b4:	b9409f80 	ldr	w0, [x28, #156]
   158b8:	7100041f 	cmp	w0, #0x1
   158bc:	54001d00 	b.eq	15c5c <emmc_exec_cmd+0x874>  // b.none
   158c0:	b9008f9f 	str	wzr, [x28, #140]
   158c4:	52800033 	mov	w19, #0x1                   	// #1
   158c8:	b900939f 	str	wzr, [x28, #144]
   158cc:	2a1303e0 	mov	w0, w19
   158d0:	a94153f3 	ldp	x19, x20, [sp, #16]
   158d4:	a9425bf5 	ldp	x21, x22, [sp, #32]
   158d8:	a94363f7 	ldp	x23, x24, [sp, #48]
   158dc:	a9446bf9 	ldp	x25, x26, [sp, #64]
   158e0:	a94573fb 	ldp	x27, x28, [sp, #80]
   158e4:	a8c77bfd 	ldp	x29, x30, [sp], #112
   158e8:	d65f03c0 	ret
   158ec:	b940bf80 	ldr	w0, [x28, #188]
   158f0:	12000013 	and	w19, w0, #0x1
   158f4:	3607e080 	tbz	w0, #0, 15504 <emmc_exec_cmd+0x11c>
   158f8:	b9404f80 	ldr	w0, [x28, #76]
   158fc:	7100441f 	cmp	w0, #0x11
   15900:	54002bc0 	b.eq	15e78 <emmc_exec_cmd+0xa90>  // b.none
   15904:	d2800600 	mov	x0, #0x30                  	// #48
   15908:	f2a23800 	movk	x0, #0x11c0, lsl #16
   1590c:	b9400000 	ldr	w0, [x0]
   15910:	b90002a0 	str	w0, [x21]
   15914:	b9401f80 	ldr	w0, [x28, #28]
   15918:	72180c00 	ands	w0, w0, #0xf00
   1591c:	54000120 	b.eq	15940 <emmc_exec_cmd+0x558>  // b.none
   15920:	7108001f 	cmp	w0, #0x200
   15924:	54003148 	b.hi	15f4c <emmc_exec_cmd+0xb64>  // b.pmore
   15928:	b94002a0 	ldr	w0, [x21]
   1592c:	b9406be1 	ldr	w1, [sp, #104]
   15930:	6a00003f 	tst	w1, w0
   15934:	d3493001 	ubfx	x1, x0, #9, #4
   15938:	b9008b81 	str	w1, [x28, #136]
   1593c:	540038a1 	b.ne	16050 <emmc_exec_cmd+0xc68>  // b.any
   15940:	7108033f 	cmp	w25, #0x200
   15944:	540035e0 	b.eq	16000 <emmc_exec_cmd+0xc18>  // b.none
   15948:	b9409f80 	ldr	w0, [x28, #156]
   1594c:	7100041f 	cmp	w0, #0x1
   15950:	54fffb20 	b.eq	158b4 <emmc_exec_cmd+0x4cc>  // b.none
   15954:	940001f9 	bl	16138 <emmc_interrupt>
   15958:	b940a381 	ldr	w1, [x28, #160]
   1595c:	7100043f 	cmp	w1, #0x1
   15960:	54ffeca1 	b.ne	156f4 <emmc_exec_cmd+0x30c>  // b.any
   15964:	b9409f80 	ldr	w0, [x28, #156]
   15968:	b9006fe1 	str	w1, [sp, #108]
   1596c:	7100041f 	cmp	w0, #0x1
   15970:	54fffa20 	b.eq	158b4 <emmc_exec_cmd+0x4cc>  // b.none
   15974:	940001f1 	bl	16138 <emmc_interrupt>
   15978:	b940a39a 	ldr	w26, [x28, #160]
   1597c:	b9406fe1 	ldr	w1, [sp, #108]
   15980:	7100075f 	cmp	w26, #0x1
   15984:	2a0103f3 	mov	w19, w1
   15988:	54ffeb61 	b.ne	156f4 <emmc_exec_cmd+0x30c>  // b.any
   1598c:	b9409f80 	ldr	w0, [x28, #156]
   15990:	7100041f 	cmp	w0, #0x1
   15994:	54fff900 	b.eq	158b4 <emmc_exec_cmd+0x4cc>  // b.none
   15998:	940001e8 	bl	16138 <emmc_interrupt>
   1599c:	b940a393 	ldr	w19, [x28, #160]
   159a0:	7100067f 	cmp	w19, #0x1
   159a4:	54001b60 	b.eq	15d10 <emmc_exec_cmd+0x928>  // b.none
   159a8:	2a1a03f3 	mov	w19, w26
   159ac:	17ffff52 	b	156f4 <emmc_exec_cmd+0x30c>
   159b0:	b9400b81 	ldr	w1, [x28, #8]
   159b4:	f0000020 	adrp	x0, 1c000 <vprintf+0x418>
   159b8:	91162000 	add	x0, x0, #0x588
   159bc:	94001529 	bl	1ae60 <tf_log>
   159c0:	b9409f80 	ldr	w0, [x28, #156]
   159c4:	7100041f 	cmp	w0, #0x1
   159c8:	54fff760 	b.eq	158b4 <emmc_exec_cmd+0x4cc>  // b.none
   159cc:	940001db 	bl	16138 <emmc_interrupt>
   159d0:	b940a380 	ldr	w0, [x28, #160]
   159d4:	7100041f 	cmp	w0, #0x1
   159d8:	540015e0 	b.eq	15c94 <emmc_exec_cmd+0x8ac>  // b.none
   159dc:	52800333 	mov	w19, #0x19                  	// #25
   159e0:	17ffff6f 	b	1579c <emmc_exec_cmd+0x3b4>
   159e4:	b9009780 	str	w0, [x28, #148]
   159e8:	52910fe0 	mov	w0, #0x887f                	// #34943
   159ec:	b9009b9f 	str	wzr, [x28, #152]
   159f0:	d2810903 	mov	x3, #0x848                 	// #2120
   159f4:	b90002ff 	str	wzr, [x23]
   159f8:	d2810b04 	mov	x4, #0x858                 	// #2136
   159fc:	b90002c0 	str	w0, [x22]
   15a00:	f2a23803 	movk	x3, #0x11c0, lsl #16
   15a04:	f2a23804 	movk	x4, #0x11c0, lsl #16
   15a08:	7100043f 	cmp	w1, #0x1
   15a0c:	54002260 	b.eq	15e58 <emmc_exec_cmd+0xa70>  // b.none
   15a10:	d2810401 	mov	x1, #0x820                 	// #2080
   15a14:	12a00020 	mov	w0, #0xfffeffff            	// #-65537
   15a18:	f2a23801 	movk	x1, #0x11c0, lsl #16
   15a1c:	b9000060 	str	w0, [x3]
   15a20:	52800603 	mov	w3, #0x30                  	// #48
   15a24:	b9000080 	str	w0, [x4]
   15a28:	72a00023 	movk	w3, #0x1, lsl #16
   15a2c:	b9000023 	str	w3, [x1]
   15a30:	d2811004 	mov	x4, #0x880                 	// #2176
   15a34:	d2810501 	mov	x1, #0x828                 	// #2088
   15a38:	f9401b80 	ldr	x0, [x28, #48]
   15a3c:	f2a23804 	movk	x4, #0x11c0, lsl #16
   15a40:	f2a23801 	movk	x1, #0x11c0, lsl #16
   15a44:	52800023 	mov	w3, #0x1                   	// #1
   15a48:	121d7000 	and	w0, w0, #0xfffffff8
   15a4c:	b9000080 	str	w0, [x4]
   15a50:	b9000023 	str	w3, [x1]
   15a54:	b9409f80 	ldr	w0, [x28, #156]
   15a58:	6b03001f 	cmp	w0, w3
   15a5c:	54ffd9e1 	b.ne	15598 <emmc_exec_cmd+0x1b0>  // b.any
   15a60:	17ffff95 	b	158b4 <emmc_exec_cmd+0x4cc>
   15a64:	528001e1 	mov	w1, #0xf                   	// #15
   15a68:	528001a0 	mov	w0, #0xd                   	// #13
   15a6c:	2a0103f3 	mov	w19, w1
   15a70:	940005dc 	bl	171e0 <emmc_write_error_info>
   15a74:	2a1303e0 	mov	w0, w19
   15a78:	a94153f3 	ldp	x19, x20, [sp, #16]
   15a7c:	a94573fb 	ldp	x27, x28, [sp, #80]
   15a80:	a8c77bfd 	ldp	x29, x30, [sp], #112
   15a84:	d65f03c0 	ret
   15a88:	52800001 	mov	w1, #0x0                   	// #0
   15a8c:	528001a0 	mov	w0, #0xd                   	// #13
   15a90:	52800013 	mov	w19, #0x0                   	// #0
   15a94:	940005d3 	bl	171e0 <emmc_write_error_info>
   15a98:	a94573fb 	ldp	x27, x28, [sp, #80]
   15a9c:	17fffea9 	b	15540 <emmc_exec_cmd+0x158>
   15aa0:	b9409f80 	ldr	w0, [x28, #156]
   15aa4:	7100041f 	cmp	w0, #0x1
   15aa8:	54fff060 	b.eq	158b4 <emmc_exec_cmd+0x4cc>  // b.none
   15aac:	940001a3 	bl	16138 <emmc_interrupt>
   15ab0:	b940a380 	ldr	w0, [x28, #160]
   15ab4:	7100041f 	cmp	w0, #0x1
   15ab8:	54ffe061 	b.ne	156c4 <emmc_exec_cmd+0x2dc>  // b.any
   15abc:	5280009a 	mov	w26, #0x4                   	// #4
   15ac0:	17fffe67 	b	1545c <emmc_exec_cmd+0x74>
   15ac4:	52914fe0 	mov	w0, #0x8a7f                	// #35455
   15ac8:	b90002c0 	str	w0, [x22]
   15acc:	b9409f80 	ldr	w0, [x28, #156]
   15ad0:	7100041f 	cmp	w0, #0x1
   15ad4:	54ffd621 	b.ne	15598 <emmc_exec_cmd+0x1b0>  // b.any
   15ad8:	17ffff77 	b	158b4 <emmc_exec_cmd+0x4cc>
   15adc:	b9409f80 	ldr	w0, [x28, #156]
   15ae0:	7100041f 	cmp	w0, #0x1
   15ae4:	54ffee80 	b.eq	158b4 <emmc_exec_cmd+0x4cc>  // b.none
   15ae8:	94000194 	bl	16138 <emmc_interrupt>
   15aec:	b940a380 	ldr	w0, [x28, #160]
   15af0:	7100041f 	cmp	w0, #0x1
   15af4:	54001320 	b.eq	15d58 <emmc_exec_cmd+0x970>  // b.none
   15af8:	52800073 	mov	w19, #0x3                   	// #3
   15afc:	17ffff28 	b	1579c <emmc_exec_cmd+0x3b4>
   15b00:	52800121 	mov	w1, #0x9                   	// #9
   15b04:	528001a0 	mov	w0, #0xd                   	// #13
   15b08:	2a0103f3 	mov	w19, w1
   15b0c:	940005b5 	bl	171e0 <emmc_write_error_info>
   15b10:	17fffe8c 	b	15540 <emmc_exec_cmd+0x158>
   15b14:	b9409f80 	ldr	w0, [x28, #156]
   15b18:	7100041f 	cmp	w0, #0x1
   15b1c:	54ffecc0 	b.eq	158b4 <emmc_exec_cmd+0x4cc>  // b.none
   15b20:	94000186 	bl	16138 <emmc_interrupt>
   15b24:	b940a380 	ldr	w0, [x28, #160]
   15b28:	7100041f 	cmp	w0, #0x1
   15b2c:	54ffebc1 	b.ne	158a4 <emmc_exec_cmd+0x4bc>  // b.any
   15b30:	b9409f80 	ldr	w0, [x28, #156]
   15b34:	7100041f 	cmp	w0, #0x1
   15b38:	54ffebe0 	b.eq	158b4 <emmc_exec_cmd+0x4cc>  // b.none
   15b3c:	9400017f 	bl	16138 <emmc_interrupt>
   15b40:	b940a380 	ldr	w0, [x28, #160]
   15b44:	7100041f 	cmp	w0, #0x1
   15b48:	54ffeae1 	b.ne	158a4 <emmc_exec_cmd+0x4bc>  // b.any
   15b4c:	5280015a 	mov	w26, #0xa                   	// #10
   15b50:	52800333 	mov	w19, #0x19                  	// #25
   15b54:	17fffe42 	b	1545c <emmc_exec_cmd+0x74>
   15b58:	b9409f80 	ldr	w0, [x28, #156]
   15b5c:	7100041f 	cmp	w0, #0x1
   15b60:	54ffeaa0 	b.eq	158b4 <emmc_exec_cmd+0x4cc>  // b.none
   15b64:	94000175 	bl	16138 <emmc_interrupt>
   15b68:	b940a380 	ldr	w0, [x28, #160]
   15b6c:	7100041f 	cmp	w0, #0x1
   15b70:	54ffd1c1 	b.ne	155a8 <emmc_exec_cmd+0x1c0>  // b.any
   15b74:	b9409f80 	ldr	w0, [x28, #156]
   15b78:	7100041f 	cmp	w0, #0x1
   15b7c:	54ffe9c0 	b.eq	158b4 <emmc_exec_cmd+0x4cc>  // b.none
   15b80:	9400016e 	bl	16138 <emmc_interrupt>
   15b84:	b940a380 	ldr	w0, [x28, #160]
   15b88:	7100041f 	cmp	w0, #0x1
   15b8c:	54ffd0e1 	b.ne	155a8 <emmc_exec_cmd+0x1c0>  // b.any
   15b90:	528000fa 	mov	w26, #0x7                   	// #7
   15b94:	17fffe32 	b	1545c <emmc_exec_cmd+0x74>
   15b98:	b9409f80 	ldr	w0, [x28, #156]
   15b9c:	7100041f 	cmp	w0, #0x1
   15ba0:	54ffe8a0 	b.eq	158b4 <emmc_exec_cmd+0x4cc>  // b.none
   15ba4:	94000165 	bl	16138 <emmc_interrupt>
   15ba8:	b940a380 	ldr	w0, [x28, #160]
   15bac:	7100041f 	cmp	w0, #0x1
   15bb0:	54ffe3a1 	b.ne	15824 <emmc_exec_cmd+0x43c>  // b.any
   15bb4:	b9409f80 	ldr	w0, [x28, #156]
   15bb8:	7100041f 	cmp	w0, #0x1
   15bbc:	54ffe7c0 	b.eq	158b4 <emmc_exec_cmd+0x4cc>  // b.none
   15bc0:	9400015e 	bl	16138 <emmc_interrupt>
   15bc4:	b940a380 	ldr	w0, [x28, #160]
   15bc8:	7100041f 	cmp	w0, #0x1
   15bcc:	54ffe2c1 	b.ne	15824 <emmc_exec_cmd+0x43c>  // b.any
   15bd0:	5280007a 	mov	w26, #0x3                   	// #3
   15bd4:	17fffe22 	b	1545c <emmc_exec_cmd+0x74>
   15bd8:	b9409f80 	ldr	w0, [x28, #156]
   15bdc:	7100041f 	cmp	w0, #0x1
   15be0:	54ffe6a0 	b.eq	158b4 <emmc_exec_cmd+0x4cc>  // b.none
   15be4:	94000155 	bl	16138 <emmc_interrupt>
   15be8:	b940a380 	ldr	w0, [x28, #160]
   15bec:	7100041f 	cmp	w0, #0x1
   15bf0:	54ffc781 	b.ne	154e0 <emmc_exec_cmd+0xf8>  // b.any
   15bf4:	b9409f80 	ldr	w0, [x28, #156]
   15bf8:	7100041f 	cmp	w0, #0x1
   15bfc:	54ffe5c0 	b.eq	158b4 <emmc_exec_cmd+0x4cc>  // b.none
   15c00:	9400014e 	bl	16138 <emmc_interrupt>
   15c04:	b940a380 	ldr	w0, [x28, #160]
   15c08:	7100041f 	cmp	w0, #0x1
   15c0c:	54ffc6a1 	b.ne	154e0 <emmc_exec_cmd+0xf8>  // b.any
   15c10:	5280005a 	mov	w26, #0x2                   	// #2
   15c14:	17fffe12 	b	1545c <emmc_exec_cmd+0x74>
   15c18:	b9409f80 	ldr	w0, [x28, #156]
   15c1c:	7100041f 	cmp	w0, #0x1
   15c20:	54ffe4a0 	b.eq	158b4 <emmc_exec_cmd+0x4cc>  // b.none
   15c24:	94000145 	bl	16138 <emmc_interrupt>
   15c28:	b940a380 	ldr	w0, [x28, #160]
   15c2c:	7100041f 	cmp	w0, #0x1
   15c30:	54ffc781 	b.ne	15520 <emmc_exec_cmd+0x138>  // b.any
   15c34:	b9409f80 	ldr	w0, [x28, #156]
   15c38:	7100041f 	cmp	w0, #0x1
   15c3c:	54ffe3c0 	b.eq	158b4 <emmc_exec_cmd+0x4cc>  // b.none
   15c40:	9400013e 	bl	16138 <emmc_interrupt>
   15c44:	b940a380 	ldr	w0, [x28, #160]
   15c48:	7100041f 	cmp	w0, #0x1
   15c4c:	54ffc6a1 	b.ne	15520 <emmc_exec_cmd+0x138>  // b.any
   15c50:	5280015a 	mov	w26, #0xa                   	// #10
   15c54:	2a1a03f3 	mov	w19, w26
   15c58:	17fffe01 	b	1545c <emmc_exec_cmd+0x74>
   15c5c:	b9409780 	ldr	w0, [x28, #148]
   15c60:	7100041f 	cmp	w0, #0x1
   15c64:	54000041 	b.ne	15c6c <emmc_exec_cmd+0x884>  // b.any
   15c68:	b900979f 	str	wzr, [x28, #148]
   15c6c:	f0000020 	adrp	x0, 1c000 <vprintf+0x418>
   15c70:	91172000 	add	x0, x0, #0x5c8
   15c74:	528002d3 	mov	w19, #0x16                  	// #22
   15c78:	9400147a 	bl	1ae60 <tf_log>
   15c7c:	97fffda3 	bl	15308 <emmc_softreset>
   15c80:	a9425bf5 	ldp	x21, x22, [sp, #32]
   15c84:	a94363f7 	ldp	x23, x24, [sp, #48]
   15c88:	a9446bf9 	ldp	x25, x26, [sp, #64]
   15c8c:	a94573fb 	ldp	x27, x28, [sp, #80]
   15c90:	17fffe2c 	b	15540 <emmc_exec_cmd+0x158>
   15c94:	b9409f80 	ldr	w0, [x28, #156]
   15c98:	7100041f 	cmp	w0, #0x1
   15c9c:	54ffe0c0 	b.eq	158b4 <emmc_exec_cmd+0x4cc>  // b.none
   15ca0:	94000126 	bl	16138 <emmc_interrupt>
   15ca4:	b940a380 	ldr	w0, [x28, #160]
   15ca8:	7100041f 	cmp	w0, #0x1
   15cac:	54ffe981 	b.ne	159dc <emmc_exec_cmd+0x5f4>  // b.any
   15cb0:	b9409f80 	ldr	w0, [x28, #156]
   15cb4:	7100041f 	cmp	w0, #0x1
   15cb8:	54ffdfe0 	b.eq	158b4 <emmc_exec_cmd+0x4cc>  // b.none
   15cbc:	9400011f 	bl	16138 <emmc_interrupt>
   15cc0:	b940a380 	ldr	w0, [x28, #160]
   15cc4:	7100041f 	cmp	w0, #0x1
   15cc8:	54ffe8a1 	b.ne	159dc <emmc_exec_cmd+0x5f4>  // b.any
   15ccc:	5280013a 	mov	w26, #0x9                   	// #9
   15cd0:	52800333 	mov	w19, #0x19                  	// #25
   15cd4:	17fffde2 	b	1545c <emmc_exec_cmd+0x74>
   15cd8:	b9409f80 	ldr	w0, [x28, #156]
   15cdc:	7100041f 	cmp	w0, #0x1
   15ce0:	54ffdea0 	b.eq	158b4 <emmc_exec_cmd+0x4cc>  // b.none
   15ce4:	94000115 	bl	16138 <emmc_interrupt>
   15ce8:	b940a380 	ldr	w0, [x28, #160]
   15cec:	7100041f 	cmp	w0, #0x1
   15cf0:	54ffd021 	b.ne	156f4 <emmc_exec_cmd+0x30c>  // b.any
   15cf4:	b9409f80 	ldr	w0, [x28, #156]
   15cf8:	7100041f 	cmp	w0, #0x1
   15cfc:	54ffddc0 	b.eq	158b4 <emmc_exec_cmd+0x4cc>  // b.none
   15d00:	9400010e 	bl	16138 <emmc_interrupt>
   15d04:	b940a380 	ldr	w0, [x28, #160]
   15d08:	7100041f 	cmp	w0, #0x1
   15d0c:	54ffcf41 	b.ne	156f4 <emmc_exec_cmd+0x30c>  // b.any
   15d10:	528000ba 	mov	w26, #0x5                   	// #5
   15d14:	17fffdd2 	b	1545c <emmc_exec_cmd+0x74>
   15d18:	b9409f80 	ldr	w0, [x28, #156]
   15d1c:	7100041f 	cmp	w0, #0x1
   15d20:	54ffdca0 	b.eq	158b4 <emmc_exec_cmd+0x4cc>  // b.none
   15d24:	94000105 	bl	16138 <emmc_interrupt>
   15d28:	b940a380 	ldr	w0, [x28, #160]
   15d2c:	7100041f 	cmp	w0, #0x1
   15d30:	54ffc6c1 	b.ne	15608 <emmc_exec_cmd+0x220>  // b.any
   15d34:	b9409f80 	ldr	w0, [x28, #156]
   15d38:	7100041f 	cmp	w0, #0x1
   15d3c:	54ffdbc0 	b.eq	158b4 <emmc_exec_cmd+0x4cc>  // b.none
   15d40:	940000fe 	bl	16138 <emmc_interrupt>
   15d44:	b940a380 	ldr	w0, [x28, #160]
   15d48:	7100041f 	cmp	w0, #0x1
   15d4c:	54ffc5e1 	b.ne	15608 <emmc_exec_cmd+0x220>  // b.any
   15d50:	5280011a 	mov	w26, #0x8                   	// #8
   15d54:	17fffdc2 	b	1545c <emmc_exec_cmd+0x74>
   15d58:	b9409f80 	ldr	w0, [x28, #156]
   15d5c:	7100041f 	cmp	w0, #0x1
   15d60:	54ffdaa0 	b.eq	158b4 <emmc_exec_cmd+0x4cc>  // b.none
   15d64:	940000f5 	bl	16138 <emmc_interrupt>
   15d68:	b940a380 	ldr	w0, [x28, #160]
   15d6c:	7100041f 	cmp	w0, #0x1
   15d70:	54ffec41 	b.ne	15af8 <emmc_exec_cmd+0x710>  // b.any
   15d74:	b9409f80 	ldr	w0, [x28, #156]
   15d78:	7100041f 	cmp	w0, #0x1
   15d7c:	54ffd9c0 	b.eq	158b4 <emmc_exec_cmd+0x4cc>  // b.none
   15d80:	940000ee 	bl	16138 <emmc_interrupt>
   15d84:	b940a380 	ldr	w0, [x28, #160]
   15d88:	7100041f 	cmp	w0, #0x1
   15d8c:	54ffeb61 	b.ne	15af8 <emmc_exec_cmd+0x710>  // b.any
   15d90:	5280013a 	mov	w26, #0x9                   	// #9
   15d94:	52800073 	mov	w19, #0x3                   	// #3
   15d98:	17fffdb1 	b	1545c <emmc_exec_cmd+0x74>
   15d9c:	b9409f80 	ldr	w0, [x28, #156]
   15da0:	7100041f 	cmp	w0, #0x1
   15da4:	54ffd880 	b.eq	158b4 <emmc_exec_cmd+0x4cc>  // b.none
   15da8:	940000e4 	bl	16138 <emmc_interrupt>
   15dac:	b940a380 	ldr	w0, [x28, #160]
   15db0:	7100041f 	cmp	w0, #0x1
   15db4:	54ffd5e1 	b.ne	15870 <emmc_exec_cmd+0x488>  // b.any
   15db8:	b9409f80 	ldr	w0, [x28, #156]
   15dbc:	7100041f 	cmp	w0, #0x1
   15dc0:	54ffd7a0 	b.eq	158b4 <emmc_exec_cmd+0x4cc>  // b.none
   15dc4:	940000dd 	bl	16138 <emmc_interrupt>
   15dc8:	b940a398 	ldr	w24, [x28, #160]
   15dcc:	7100071f 	cmp	w24, #0x1
   15dd0:	54ffd501 	b.ne	15870 <emmc_exec_cmd+0x488>  // b.any
   15dd4:	5280015a 	mov	w26, #0xa                   	// #10
   15dd8:	528000b3 	mov	w19, #0x5                   	// #5
   15ddc:	17fffda0 	b	1545c <emmc_exec_cmd+0x74>
   15de0:	52800241 	mov	w1, #0x12                  	// #18
   15de4:	528001a0 	mov	w0, #0xd                   	// #13
   15de8:	2a0103f3 	mov	w19, w1
   15dec:	17fffe7b 	b	157d8 <emmc_exec_cmd+0x3f0>
   15df0:	b9409f80 	ldr	w0, [x28, #156]
   15df4:	7100041f 	cmp	w0, #0x1
   15df8:	54ffd5e0 	b.eq	158b4 <emmc_exec_cmd+0x4cc>  // b.none
   15dfc:	940000cf 	bl	16138 <emmc_interrupt>
   15e00:	b940a380 	ldr	w0, [x28, #160]
   15e04:	7100041f 	cmp	w0, #0x1
   15e08:	54000060 	b.eq	15e14 <emmc_exec_cmd+0xa2c>  // b.none
   15e0c:	52800013 	mov	w19, #0x0                   	// #0
   15e10:	17fffe63 	b	1579c <emmc_exec_cmd+0x3b4>
   15e14:	b9409f80 	ldr	w0, [x28, #156]
   15e18:	7100041f 	cmp	w0, #0x1
   15e1c:	54ffd4c0 	b.eq	158b4 <emmc_exec_cmd+0x4cc>  // b.none
   15e20:	940000c6 	bl	16138 <emmc_interrupt>
   15e24:	b940a380 	ldr	w0, [x28, #160]
   15e28:	7100041f 	cmp	w0, #0x1
   15e2c:	54ffff01 	b.ne	15e0c <emmc_exec_cmd+0xa24>  // b.any
   15e30:	b9409f80 	ldr	w0, [x28, #156]
   15e34:	7100041f 	cmp	w0, #0x1
   15e38:	54ffd3e0 	b.eq	158b4 <emmc_exec_cmd+0x4cc>  // b.none
   15e3c:	940000bf 	bl	16138 <emmc_interrupt>
   15e40:	b940a380 	ldr	w0, [x28, #160]
   15e44:	7100041f 	cmp	w0, #0x1
   15e48:	54fffe21 	b.ne	15e0c <emmc_exec_cmd+0xa24>  // b.any
   15e4c:	52800013 	mov	w19, #0x0                   	// #0
   15e50:	5280013a 	mov	w26, #0x9                   	// #9
   15e54:	17fffd82 	b	1545c <emmc_exec_cmd+0x74>
   15e58:	d2810401 	mov	x1, #0x820                 	// #2080
   15e5c:	12a00040 	mov	w0, #0xfffdffff            	// #-131073
   15e60:	f2a23801 	movk	x1, #0x11c0, lsl #16
   15e64:	b9000060 	str	w0, [x3]
   15e68:	b9000080 	str	w0, [x4]
   15e6c:	52800603 	mov	w3, #0x30                  	// #48
   15e70:	b9000023 	str	w3, [x1]
   15e74:	17fffeef 	b	15a30 <emmc_exec_cmd+0x648>
   15e78:	d2800c00 	mov	x0, #0x60                  	// #96
   15e7c:	d2800a03 	mov	x3, #0x50                  	// #80
   15e80:	f2a23803 	movk	x3, #0x11c0, lsl #16
   15e84:	f2a23800 	movk	x0, #0x11c0, lsl #16
   15e88:	d2800801 	mov	x1, #0x40                  	// #64
   15e8c:	b10012bf 	cmn	x21, #0x4
   15e90:	b9400000 	ldr	w0, [x0]
   15e94:	f2a23801 	movk	x1, #0x11c0, lsl #16
   15e98:	b9400064 	ldr	w4, [x3]
   15e9c:	13846000 	extr	w0, w0, w4, #24
   15ea0:	39000ea0 	strb	w0, [x21, #3]
   15ea4:	53187c05 	lsr	w5, w0, #24
   15ea8:	53107c04 	lsr	w4, w0, #16
   15eac:	53087c00 	lsr	w0, w0, #8
   15eb0:	390002a5 	strb	w5, [x21]
   15eb4:	390006a4 	strb	w4, [x21, #1]
   15eb8:	39000aa0 	strb	w0, [x21, #2]
   15ebc:	b9400060 	ldr	w0, [x3]
   15ec0:	b9400023 	ldr	w3, [x1]
   15ec4:	13836000 	extr	w0, w0, w3, #24
   15ec8:	540007e0 	b.eq	15fc4 <emmc_exec_cmd+0xbdc>  // b.none
   15ecc:	d2800603 	mov	x3, #0x30                  	// #48
   15ed0:	53187c06 	lsr	w6, w0, #24
   15ed4:	53107c05 	lsr	w5, w0, #16
   15ed8:	53087c04 	lsr	w4, w0, #8
   15edc:	f2a23803 	movk	x3, #0x11c0, lsl #16
   15ee0:	390012a6 	strb	w6, [x21, #4]
   15ee4:	390016a5 	strb	w5, [x21, #5]
   15ee8:	b10022bf 	cmn	x21, #0x8
   15eec:	39001aa4 	strb	w4, [x21, #6]
   15ef0:	39001ea0 	strb	w0, [x21, #7]
   15ef4:	b9400020 	ldr	w0, [x1]
   15ef8:	b9400061 	ldr	w1, [x3]
   15efc:	13816000 	extr	w0, w0, w1, #24
   15f00:	540007a0 	b.eq	15ff4 <emmc_exec_cmd+0xc0c>  // b.none
   15f04:	53087c01 	lsr	w1, w0, #8
   15f08:	53187c05 	lsr	w5, w0, #24
   15f0c:	53107c04 	lsr	w4, w0, #16
   15f10:	390022a5 	strb	w5, [x21, #8]
   15f14:	390026a4 	strb	w4, [x21, #9]
   15f18:	b10032bf 	cmn	x21, #0xc
   15f1c:	39002aa1 	strb	w1, [x21, #10]
   15f20:	39002ea0 	strb	w0, [x21, #11]
   15f24:	b9400061 	ldr	w1, [x3]
   15f28:	53185c20 	lsl	w0, w1, #8
   15f2c:	54ffcf40 	b.eq	15914 <emmc_exec_cmd+0x52c>  // b.none
   15f30:	53187c03 	lsr	w3, w0, #24
   15f34:	53107c00 	lsr	w0, w0, #16
   15f38:	390032a3 	strb	w3, [x21, #12]
   15f3c:	390036a0 	strb	w0, [x21, #13]
   15f40:	39003aa1 	strb	w1, [x21, #14]
   15f44:	39003ebf 	strb	wzr, [x21, #15]
   15f48:	17fffe73 	b	15914 <emmc_exec_cmd+0x52c>
   15f4c:	7114001f 	cmp	w0, #0x500
   15f50:	54ffcf81 	b.ne	15940 <emmc_exec_cmd+0x558>  // b.any
   15f54:	b94002a0 	ldr	w0, [x21]
   15f58:	367fcf40 	tbz	w0, #15, 15940 <emmc_exec_cmd+0x558>
   15f5c:	b9409f80 	ldr	w0, [x28, #156]
   15f60:	7100041f 	cmp	w0, #0x1
   15f64:	54ffca80 	b.eq	158b4 <emmc_exec_cmd+0x4cc>  // b.none
   15f68:	94000074 	bl	16138 <emmc_interrupt>
   15f6c:	b940a380 	ldr	w0, [x28, #160]
   15f70:	7100041f 	cmp	w0, #0x1
   15f74:	54000060 	b.eq	15f80 <emmc_exec_cmd+0xb98>  // b.none
   15f78:	52800093 	mov	w19, #0x4                   	// #4
   15f7c:	17fffd6a 	b	15524 <emmc_exec_cmd+0x13c>
   15f80:	b9409f80 	ldr	w0, [x28, #156]
   15f84:	7100041f 	cmp	w0, #0x1
   15f88:	54ffc960 	b.eq	158b4 <emmc_exec_cmd+0x4cc>  // b.none
   15f8c:	9400006b 	bl	16138 <emmc_interrupt>
   15f90:	b940a380 	ldr	w0, [x28, #160]
   15f94:	7100041f 	cmp	w0, #0x1
   15f98:	54ffff01 	b.ne	15f78 <emmc_exec_cmd+0xb90>  // b.any
   15f9c:	b9409f80 	ldr	w0, [x28, #156]
   15fa0:	7100041f 	cmp	w0, #0x1
   15fa4:	54ffc880 	b.eq	158b4 <emmc_exec_cmd+0x4cc>  // b.none
   15fa8:	94000064 	bl	16138 <emmc_interrupt>
   15fac:	b940a380 	ldr	w0, [x28, #160]
   15fb0:	7100041f 	cmp	w0, #0x1
   15fb4:	54fffe21 	b.ne	15f78 <emmc_exec_cmd+0xb90>  // b.any
   15fb8:	5280015a 	mov	w26, #0xa                   	// #10
   15fbc:	52800093 	mov	w19, #0x4                   	// #4
   15fc0:	17fffd27 	b	1545c <emmc_exec_cmd+0x74>
   15fc4:	d2800603 	mov	x3, #0x30                  	// #48
   15fc8:	b9400020 	ldr	w0, [x1]
   15fcc:	f2a23803 	movk	x3, #0x11c0, lsl #16
   15fd0:	b9400061 	ldr	w1, [x3]
   15fd4:	13816000 	extr	w0, w0, w1, #24
   15fd8:	39002ea0 	strb	w0, [x21, #11]
   15fdc:	53187c04 	lsr	w4, w0, #24
   15fe0:	53107c01 	lsr	w1, w0, #16
   15fe4:	53087c00 	lsr	w0, w0, #8
   15fe8:	390022a4 	strb	w4, [x21, #8]
   15fec:	390026a1 	strb	w1, [x21, #9]
   15ff0:	39002aa0 	strb	w0, [x21, #10]
   15ff4:	b9400061 	ldr	w1, [x3]
   15ff8:	53185c20 	lsl	w0, w1, #8
   15ffc:	17ffffcd 	b	15f30 <emmc_exec_cmd+0xb48>
   16000:	52910fe0 	mov	w0, #0x887f                	// #34943
   16004:	b90002c0 	str	w0, [x22]
   16008:	b9409f80 	ldr	w0, [x28, #156]
   1600c:	7100041f 	cmp	w0, #0x1
   16010:	54ffc520 	b.eq	158b4 <emmc_exec_cmd+0x4cc>  // b.none
   16014:	94000049 	bl	16138 <emmc_interrupt>
   16018:	b940a383 	ldr	w3, [x28, #160]
   1601c:	7100047f 	cmp	w3, #0x1
   16020:	54ffb501 	b.ne	156c0 <emmc_exec_cmd+0x2d8>  // b.any
   16024:	b9409f80 	ldr	w0, [x28, #156]
   16028:	b9006fe3 	str	w3, [sp, #108]
   1602c:	7100041f 	cmp	w0, #0x1
   16030:	54ffc420 	b.eq	158b4 <emmc_exec_cmd+0x4cc>  // b.none
   16034:	94000041 	bl	16138 <emmc_interrupt>
   16038:	b940a39a 	ldr	w26, [x28, #160]
   1603c:	b9406fe3 	ldr	w3, [sp, #108]
   16040:	7100075f 	cmp	w26, #0x1
   16044:	54000100 	b.eq	16064 <emmc_exec_cmd+0xc7c>  // b.none
   16048:	2a0303f3 	mov	w19, w3
   1604c:	17fffd9d 	b	156c0 <emmc_exec_cmd+0x2d8>
   16050:	363ff860 	tbz	w0, #7, 15f5c <emmc_exec_cmd+0xb74>
   16054:	d0000020 	adrp	x0, 1c000 <vprintf+0x418>
   16058:	9116a000 	add	x0, x0, #0x5a8
   1605c:	94001381 	bl	1ae60 <tf_log>
   16060:	17ffffbf 	b	15f5c <emmc_exec_cmd+0xb74>
   16064:	b9409f80 	ldr	w0, [x28, #156]
   16068:	7100041f 	cmp	w0, #0x1
   1606c:	54ffc240 	b.eq	158b4 <emmc_exec_cmd+0x4cc>  // b.none
   16070:	94000032 	bl	16138 <emmc_interrupt>
   16074:	b940a393 	ldr	w19, [x28, #160]
   16078:	7100067f 	cmp	w19, #0x1
   1607c:	54ffd200 	b.eq	15abc <emmc_exec_cmd+0x6d4>  // b.none
   16080:	2a1a03f3 	mov	w19, w26
   16084:	17fffd8f 	b	156c0 <emmc_exec_cmd+0x2d8>

0000000000016088 <emmc_memcard_power>:
   16088:	12001c00 	and	w0, w0, #0xff
   1608c:	7100041f 	cmp	w0, #0x1
   16090:	540000e0 	b.eq	160ac <emmc_memcard_power+0x24>  // b.none
   16094:	d0000040 	adrp	x0, 20000 <__STACKS_START__+0x700>
   16098:	9128c000 	add	x0, x0, #0xa30
   1609c:	b900681f 	str	wzr, [x0, #104]
   160a0:	f9003c1f 	str	xzr, [x0, #120]
   160a4:	52800020 	mov	w0, #0x1                   	// #1
   160a8:	d65f03c0 	ret
   160ac:	d0000041 	adrp	x1, 20000 <__STACKS_START__+0x700>
   160b0:	b90a9820 	str	w0, [x1, #2712]
   160b4:	52800020 	mov	w0, #0x1                   	// #1
   160b8:	d65f03c0 	ret
   160bc:	00000000 	.inst	0x00000000 ; undefined

00000000000160c0 <emmc_init>:
   160c0:	d0000041 	adrp	x1, 20000 <__STACKS_START__+0x700>
   160c4:	9128c021 	add	x1, x1, #0xa30
   160c8:	aa0103e0 	mov	x0, x1
   160cc:	910cc022 	add	x2, x1, #0x330
   160d0:	3800141f 	strb	wzr, [x0], #1
   160d4:	eb02001f 	cmp	x0, x2
   160d8:	54ffffc1 	b.ne	160d0 <emmc_init+0x10>  // b.any
   160dc:	d2800e04 	mov	x4, #0x70                  	// #112
   160e0:	d2800f03 	mov	x3, #0x78                  	// #120
   160e4:	f2a23804 	movk	x4, #0x11c0, lsl #16
   160e8:	f2a23803 	movk	x3, #0x11c0, lsl #16
   160ec:	d2801002 	mov	x2, #0x80                  	// #128
   160f0:	52810000 	mov	w0, #0x800                 	// #2048
   160f4:	f2a23802 	movk	x2, #0x11c0, lsl #16
   160f8:	b900009f 	str	wzr, [x4]
   160fc:	b9000060 	str	w0, [x3]
   16100:	b900005f 	str	wzr, [x2]
   16104:	b9001880 	str	w0, [x4, #24]
   16108:	52981dc0 	mov	w0, #0xc0ee                	// #49390
   1610c:	b903187f 	str	wzr, [x3, #792]
   16110:	52800803 	mov	w3, #0x40                  	// #64
   16114:	b9002040 	str	w0, [x2, #32]
   16118:	52800022 	mov	w2, #0x1                   	// #1
   1611c:	b900209f 	str	wzr, [x4, #32]
   16120:	2a0203e0 	mov	w0, w2
   16124:	b900403f 	str	wzr, [x1, #64]
   16128:	b900643f 	str	wzr, [x1, #100]
   1612c:	b9007022 	str	w2, [x1, #112]
   16130:	2916fc23 	stp	w3, wzr, [x1, #180]
   16134:	d65f03c0 	ret

0000000000016138 <emmc_interrupt>:
   16138:	a9be7bfd 	stp	x29, x30, [sp, #-32]!
   1613c:	d2800e02 	mov	x2, #0x70                  	// #112
   16140:	f2a23802 	movk	x2, #0x11c0, lsl #16
   16144:	910003fd 	mov	x29, sp
   16148:	b9400040 	ldr	w0, [x2]
   1614c:	d2800f01 	mov	x1, #0x78                  	// #120
   16150:	f9000bf3 	str	x19, [sp, #16]
   16154:	d0000053 	adrp	x19, 20000 <__STACKS_START__+0x700>
   16158:	9128c273 	add	x19, x19, #0xa30
   1615c:	f2a23801 	movk	x1, #0x11c0, lsl #16
   16160:	d2801004 	mov	x4, #0x80                  	// #128
   16164:	d2801103 	mov	x3, #0x88                  	// #136
   16168:	f2a23804 	movk	x4, #0x11c0, lsl #16
   1616c:	f2a23803 	movk	x3, #0x11c0, lsl #16
   16170:	b9000660 	str	w0, [x19, #4]
   16174:	d280160b 	mov	x11, #0xb0                  	// #176
   16178:	f2a2380b 	movk	x11, #0x11c0, lsl #16
   1617c:	d280170a 	mov	x10, #0xb8                  	// #184
   16180:	b9400020 	ldr	w0, [x1]
   16184:	f2a2380a 	movk	x10, #0x11c0, lsl #16
   16188:	b9000a60 	str	w0, [x19, #8]
   1618c:	d2810806 	mov	x6, #0x840                 	// #2112
   16190:	f2a23806 	movk	x6, #0x11c0, lsl #16
   16194:	d2810a05 	mov	x5, #0x850                 	// #2128
   16198:	b9400660 	ldr	w0, [x19, #4]
   1619c:	f2a23805 	movk	x5, #0x11c0, lsl #16
   161a0:	b940008c 	ldr	w12, [x4]
   161a4:	d2810909 	mov	x9, #0x848                 	// #2120
   161a8:	f2a23809 	movk	x9, #0x11c0, lsl #16
   161ac:	d2810b08 	mov	x8, #0x858                 	// #2136
   161b0:	0a0c0000 	and	w0, w0, w12
   161b4:	b900be60 	str	w0, [x19, #188]
   161b8:	f2a23808 	movk	x8, #0x11c0, lsl #16
   161bc:	52900fe7 	mov	w7, #0x807f                	// #32895
   161c0:	b9400a60 	ldr	w0, [x19, #8]
   161c4:	b940006c 	ldr	w12, [x3]
   161c8:	0a0c0000 	and	w0, w0, w12
   161cc:	b900c260 	str	w0, [x19, #192]
   161d0:	b9400160 	ldr	w0, [x11]
   161d4:	b9000e60 	str	w0, [x19, #12]
   161d8:	b9400140 	ldr	w0, [x10]
   161dc:	b9001260 	str	w0, [x19, #16]
   161e0:	b94000c0 	ldr	w0, [x6]
   161e4:	b9001660 	str	w0, [x19, #20]
   161e8:	b94000a0 	ldr	w0, [x5]
   161ec:	b9001a60 	str	w0, [x19, #24]
   161f0:	b9401660 	ldr	w0, [x19, #20]
   161f4:	b9400129 	ldr	w9, [x9]
   161f8:	0a090000 	and	w0, w0, w9
   161fc:	b900c660 	str	w0, [x19, #196]
   16200:	b9401a60 	ldr	w0, [x19, #24]
   16204:	b9400108 	ldr	w8, [x8]
   16208:	0a080000 	and	w0, w0, w8
   1620c:	b900ca60 	str	w0, [x19, #200]
   16210:	b940c260 	ldr	w0, [x19, #192]
   16214:	6a07001f 	tst	w0, w7
   16218:	54000160 	b.eq	16244 <emmc_interrupt+0x10c>  // b.none
   1621c:	b900009f 	str	wzr, [x4]
   16220:	52810000 	mov	w0, #0x800                 	// #2048
   16224:	b9000060 	str	w0, [x3]
   16228:	b900005f 	str	wzr, [x2]
   1622c:	b9000020 	str	w0, [x1]
   16230:	b900a27f 	str	wzr, [x19, #160]
   16234:	52800000 	mov	w0, #0x0                   	// #0
   16238:	f9400bf3 	ldr	x19, [sp, #16]
   1623c:	a8c27bfd 	ldp	x29, x30, [sp], #32
   16240:	d65f03c0 	ret
   16244:	b940c260 	ldr	w0, [x19, #192]
   16248:	7218041f 	tst	w0, #0x300
   1624c:	540004a0 	b.eq	162e0 <emmc_interrupt+0x1a8>  // b.none
   16250:	b940c260 	ldr	w0, [x19, #192]
   16254:	37480920 	tbnz	w0, #9, 16378 <emmc_interrupt+0x240>
   16258:	b9400020 	ldr	w0, [x1]
   1625c:	12177800 	and	w0, w0, #0xfffffeff
   16260:	b9000020 	str	w0, [x1]
   16264:	f9401a63 	ldr	x3, [x19, #48]
   16268:	b9404a60 	ldr	w0, [x19, #72]
   1626c:	b4000f03 	cbz	x3, 1644c <emmc_interrupt+0x314>
   16270:	b9409261 	ldr	w1, [x19, #144]
   16274:	91200068 	add	x8, x3, #0x800
   16278:	7100043f 	cmp	w1, #0x1
   1627c:	54000941 	b.ne	163a4 <emmc_interrupt+0x26c>  // b.any
   16280:	34000dc0 	cbz	w0, 16438 <emmc_interrupt+0x300>
   16284:	53037c04 	lsr	w4, w0, #3
   16288:	34000824 	cbz	w4, 1638c <emmc_interrupt+0x254>
   1628c:	d2800f01 	mov	x1, #0x78                  	// #120
   16290:	d2801805 	mov	x5, #0xc0                  	// #192
   16294:	d2800000 	mov	x0, #0x0                   	// #0
   16298:	f2a23801 	movk	x1, #0x11c0, lsl #16
   1629c:	52900fe7 	mov	w7, #0x807f                	// #32895
   162a0:	f2a23805 	movk	x5, #0x11c0, lsl #16
   162a4:	b9402666 	ldr	w6, [x19, #36]
   162a8:	14000009 	b	162cc <emmc_interrupt+0x194>
   162ac:	f240141f 	tst	x0, #0x3f
   162b0:	7a400804 	ccmp	w0, #0x0, #0x4, eq  // eq = none
   162b4:	540003c1 	b.ne	1632c <emmc_interrupt+0x1f4>  // b.any
   162b8:	f94000a2 	ldr	x2, [x5]
   162bc:	f8207862 	str	x2, [x3, x0, lsl #3]
   162c0:	91000400 	add	x0, x0, #0x1
   162c4:	6b00009f 	cmp	w4, w0
   162c8:	54000609 	b.ls	16388 <emmc_interrupt+0x250>  // b.plast
   162cc:	710004df 	cmp	w6, #0x1
   162d0:	54fffee1 	b.ne	162ac <emmc_interrupt+0x174>  // b.any
   162d4:	f8607862 	ldr	x2, [x3, x0, lsl #3]
   162d8:	f90000a2 	str	x2, [x5]
   162dc:	17fffff9 	b	162c0 <emmc_interrupt+0x188>
   162e0:	b940c660 	ldr	w0, [x19, #196]
   162e4:	36800300 	tbz	w0, #16, 16344 <emmc_interrupt+0x20c>
   162e8:	b90000df 	str	wzr, [x6]
   162ec:	b90000bf 	str	wzr, [x5]
   162f0:	b9400020 	ldr	w0, [x1]
   162f4:	12167800 	and	w0, w0, #0xfffffdff
   162f8:	b9000020 	str	w0, [x1]
   162fc:	b940ca60 	ldr	w0, [x19, #200]
   16300:	36800340 	tbz	w0, #16, 16368 <emmc_interrupt+0x230>
   16304:	52800020 	mov	w0, #0x1                   	// #1
   16308:	b9009a60 	str	w0, [x19, #152]
   1630c:	b900a27f 	str	wzr, [x19, #160]
   16310:	52800000 	mov	w0, #0x0                   	// #0
   16314:	f9400bf3 	ldr	x19, [sp, #16]
   16318:	a8c27bfd 	ldp	x29, x30, [sp], #32
   1631c:	d65f03c0 	ret
   16320:	b9400022 	ldr	w2, [x1]
   16324:	6a07005f 	tst	w2, w7
   16328:	540009e1 	b.ne	16464 <emmc_interrupt+0x32c>  // b.any
   1632c:	b9400022 	ldr	w2, [x1]
   16330:	3647ff82 	tbz	w2, #8, 16320 <emmc_interrupt+0x1e8>
   16334:	b9400022 	ldr	w2, [x1]
   16338:	12177842 	and	w2, w2, #0xfffffeff
   1633c:	b9000022 	str	w2, [x1]
   16340:	17ffffde 	b	162b8 <emmc_interrupt+0x180>
   16344:	b940c660 	ldr	w0, [x19, #196]
   16348:	36a005c0 	tbz	w0, #20, 16400 <emmc_interrupt+0x2c8>
   1634c:	b90000df 	str	wzr, [x6]
   16350:	b90000bf 	str	wzr, [x5]
   16354:	b9400020 	ldr	w0, [x1]
   16358:	12177800 	and	w0, w0, #0xfffffeff
   1635c:	b9000020 	str	w0, [x1]
   16360:	b940ca60 	ldr	w0, [x19, #200]
   16364:	378ffd00 	tbnz	w0, #17, 16304 <emmc_interrupt+0x1cc>
   16368:	b900967f 	str	wzr, [x19, #148]
   1636c:	b900927f 	str	wzr, [x19, #144]
   16370:	b900a27f 	str	wzr, [x19, #160]
   16374:	17ffffe7 	b	16310 <emmc_interrupt+0x1d8>
   16378:	b9400020 	ldr	w0, [x1]
   1637c:	12167800 	and	w0, w0, #0xfffffdff
   16380:	b9000020 	str	w0, [x1]
   16384:	17ffffb8 	b	16264 <emmc_interrupt+0x12c>
   16388:	b9404a60 	ldr	w0, [x19, #72]
   1638c:	b900927f 	str	wzr, [x19, #144]
   16390:	51080000 	sub	w0, w0, #0x200
   16394:	f9001a68 	str	x8, [x19, #48]
   16398:	b9004a60 	str	w0, [x19, #72]
   1639c:	b900a27f 	str	wzr, [x19, #160]
   163a0:	17ffffdc 	b	16310 <emmc_interrupt+0x1d8>
   163a4:	51080000 	sub	w0, w0, #0x200
   163a8:	528001e1 	mov	w1, #0xf                   	// #15
   163ac:	f9001a68 	str	x8, [x19, #48]
   163b0:	b9004a60 	str	w0, [x19, #72]
   163b4:	52800000 	mov	w0, #0x0                   	// #0
   163b8:	9400038a 	bl	171e0 <emmc_write_error_info>
   163bc:	d2801000 	mov	x0, #0x80                  	// #128
   163c0:	d2801103 	mov	x3, #0x88                  	// #136
   163c4:	f2a23800 	movk	x0, #0x11c0, lsl #16
   163c8:	f2a23803 	movk	x3, #0x11c0, lsl #16
   163cc:	d2800e01 	mov	x1, #0x70                  	// #112
   163d0:	d2800f02 	mov	x2, #0x78                  	// #120
   163d4:	f2a23801 	movk	x1, #0x11c0, lsl #16
   163d8:	b900001f 	str	wzr, [x0]
   163dc:	f2a23802 	movk	x2, #0x11c0, lsl #16
   163e0:	52810000 	mov	w0, #0x800                 	// #2048
   163e4:	b9000060 	str	w0, [x3]
   163e8:	b900003f 	str	wzr, [x1]
   163ec:	52800021 	mov	w1, #0x1                   	// #1
   163f0:	b9000040 	str	w0, [x2]
   163f4:	b9009e61 	str	w1, [x19, #156]
   163f8:	b900a27f 	str	wzr, [x19, #160]
   163fc:	17ffffc5 	b	16310 <emmc_interrupt+0x1d8>
   16400:	b940be60 	ldr	w0, [x19, #188]
   16404:	37000100 	tbnz	w0, #0, 16424 <emmc_interrupt+0x2ec>
   16408:	b940be60 	ldr	w0, [x19, #188]
   1640c:	3617f140 	tbz	w0, #2, 16234 <emmc_interrupt+0xfc>
   16410:	b9400040 	ldr	w0, [x2]
   16414:	121d7800 	and	w0, w0, #0xfffffffb
   16418:	b9000040 	str	w0, [x2]
   1641c:	b900a27f 	str	wzr, [x19, #160]
   16420:	17ffff85 	b	16234 <emmc_interrupt+0xfc>
   16424:	b9400040 	ldr	w0, [x2]
   16428:	121f7800 	and	w0, w0, #0xfffffffe
   1642c:	b9000040 	str	w0, [x2]
   16430:	b900a27f 	str	wzr, [x19, #160]
   16434:	17ffffb7 	b	16310 <emmc_interrupt+0x1d8>
   16438:	12803fe0 	mov	w0, #0xfffffe00            	// #-512
   1643c:	528001e1 	mov	w1, #0xf                   	// #15
   16440:	f9001a68 	str	x8, [x19, #48]
   16444:	b9004a60 	str	w0, [x19, #72]
   16448:	17ffffdb 	b	163b4 <emmc_interrupt+0x27c>
   1644c:	51080000 	sub	w0, w0, #0x200
   16450:	d2810002 	mov	x2, #0x800                 	// #2048
   16454:	52800121 	mov	w1, #0x9                   	// #9
   16458:	f9001a62 	str	x2, [x19, #48]
   1645c:	b9004a60 	str	w0, [x19, #72]
   16460:	17ffffd5 	b	163b4 <emmc_interrupt+0x27c>
   16464:	b9404a60 	ldr	w0, [x19, #72]
   16468:	52800181 	mov	w1, #0xc                   	// #12
   1646c:	f9001a68 	str	x8, [x19, #48]
   16470:	51080000 	sub	w0, w0, #0x200
   16474:	b9004a60 	str	w0, [x19, #72]
   16478:	17ffffcf 	b	163b4 <emmc_interrupt+0x27c>
   1647c:	00000000 	.inst	0x00000000 ; undefined

0000000000016480 <emmc_set_timeout_register_value>:
   16480:	7100801f 	cmp	w0, #0x20
   16484:	540003e0 	b.eq	16500 <emmc_set_timeout_register_value+0x80>  // b.none
   16488:	540001a9 	b.ls	164bc <emmc_set_timeout_register_value+0x3c>  // b.plast
   1648c:	7102001f 	cmp	w0, #0x80
   16490:	52801001 	mov	w1, #0x80                  	// #128
   16494:	54000100 	b.eq	164b4 <emmc_set_timeout_register_value+0x34>  // b.none
   16498:	540002a9 	b.ls	164ec <emmc_set_timeout_register_value+0x6c>  // b.plast
   1649c:	7104001f 	cmp	w0, #0x100
   164a0:	52800e01 	mov	w1, #0x70                  	// #112
   164a4:	54000080 	b.eq	164b4 <emmc_set_timeout_register_value+0x34>  // b.none
   164a8:	7108001f 	cmp	w0, #0x200
   164ac:	52801c00 	mov	w0, #0xe0                  	// #224
   164b0:	1a800021 	csel	w1, w1, w0, eq  // eq = none
   164b4:	2a0103e0 	mov	w0, w1
   164b8:	d65f03c0 	ret
   164bc:	7100201f 	cmp	w0, #0x8
   164c0:	52801801 	mov	w1, #0xc0                  	// #192
   164c4:	54ffff80 	b.eq	164b4 <emmc_set_timeout_register_value+0x34>  // b.none
   164c8:	7100401f 	cmp	w0, #0x10
   164cc:	52801601 	mov	w1, #0xb0                  	// #176
   164d0:	54ffff20 	b.eq	164b4 <emmc_set_timeout_register_value+0x34>  // b.none
   164d4:	7100101f 	cmp	w0, #0x4
   164d8:	52801a01 	mov	w1, #0xd0                  	// #208
   164dc:	52801c00 	mov	w0, #0xe0                  	// #224
   164e0:	1a800021 	csel	w1, w1, w0, eq  // eq = none
   164e4:	2a0103e0 	mov	w0, w1
   164e8:	d65f03c0 	ret
   164ec:	7101001f 	cmp	w0, #0x40
   164f0:	52801201 	mov	w1, #0x90                  	// #144
   164f4:	52801c00 	mov	w0, #0xe0                  	// #224
   164f8:	1a800021 	csel	w1, w1, w0, eq  // eq = none
   164fc:	17ffffee 	b	164b4 <emmc_set_timeout_register_value+0x34>
   16500:	52801401 	mov	w1, #0xa0                  	// #160
   16504:	17ffffec 	b	164b4 <emmc_set_timeout_register_value+0x34>

0000000000016508 <emmc_clock_ctrl.part.0>:
   16508:	a9bf7bfd 	stp	x29, x30, [sp, #-16]!
   1650c:	52800241 	mov	w1, #0x12                  	// #18
   16510:	52800180 	mov	w0, #0xc                   	// #12
   16514:	910003fd 	mov	x29, sp
   16518:	94000332 	bl	171e0 <emmc_write_error_info>
   1651c:	52800000 	mov	w0, #0x0                   	// #0
   16520:	a8c17bfd 	ldp	x29, x30, [sp], #16
   16524:	d65f03c0 	ret

0000000000016528 <emmc_set_ext_csd>:
   16528:	a9be7bfd 	stp	x29, x30, [sp, #-32]!
   1652c:	2a0003e1 	mov	w1, w0
   16530:	529440c0 	mov	w0, #0xa206                	// #41478
   16534:	910003fd 	mov	x29, sp
   16538:	f9000bf3 	str	x19, [sp, #16]
   1653c:	d0000053 	adrp	x19, 20000 <__STACKS_START__+0x700>
   16540:	9128c273 	add	x19, x19, #0xa30
   16544:	9400033b 	bl	17230 <emmc_make_nontrans_cmd>
   16548:	529c1000 	mov	w0, #0xe080                	// #57472
   1654c:	72bfb7e0 	movk	w0, #0xfdbf, lsl #16
   16550:	f9406a61 	ldr	x1, [x19, #208]
   16554:	97fffba5 	bl	153e8 <emmc_exec_cmd>
   16558:	7100041f 	cmp	w0, #0x1
   1655c:	54000080 	b.eq	1656c <emmc_set_ext_csd+0x44>  // b.none
   16560:	f9400bf3 	ldr	x19, [sp, #16]
   16564:	a8c27bfd 	ldp	x29, x30, [sp], #32
   16568:	d65f03c0 	ret
   1656c:	52a00021 	mov	w1, #0x10000               	// #65536
   16570:	528421a0 	mov	w0, #0x210d                	// #8461
   16574:	9400032f 	bl	17230 <emmc_make_nontrans_cmd>
   16578:	f9406a61 	ldr	x1, [x19, #208]
   1657c:	529c1000 	mov	w0, #0xe080                	// #57472
   16580:	72bfb7e0 	movk	w0, #0xfdbf, lsl #16
   16584:	97fffb99 	bl	153e8 <emmc_exec_cmd>
   16588:	7100041f 	cmp	w0, #0x1
   1658c:	54fffea1 	b.ne	16560 <emmc_set_ext_csd+0x38>  // b.any
   16590:	2a0003e5 	mov	w5, w0
   16594:	52800004 	mov	w4, #0x0                   	// #0
   16598:	52804003 	mov	w3, #0x200                 	// #512
   1659c:	52800001 	mov	w1, #0x0                   	// #0
   165a0:	52982100 	mov	w0, #0xc108                	// #49416
   165a4:	d0000042 	adrp	x2, 20000 <__STACKS_START__+0x700>
   165a8:	912d2042 	add	x2, x2, #0xb48
   165ac:	94000361 	bl	17330 <emmc_make_trans_cmd>
   165b0:	f9406a61 	ldr	x1, [x19, #208]
   165b4:	529c1000 	mov	w0, #0xe080                	// #57472
   165b8:	f9400bf3 	ldr	x19, [sp, #16]
   165bc:	72bfb7e0 	movk	w0, #0xfdbf, lsl #16
   165c0:	a8c27bfd 	ldp	x29, x30, [sp], #32
   165c4:	17fffb89 	b	153e8 <emmc_exec_cmd>

00000000000165c8 <emmc_select_partition>:
   165c8:	d0000041 	adrp	x1, 20000 <__STACKS_START__+0x700>
   165cc:	9128c021 	add	x1, x1, #0xa30
   165d0:	a9bf7bfd 	stp	x29, x30, [sp, #-16]!
   165d4:	910003fd 	mov	x29, sp
   165d8:	b9407822 	ldr	w2, [x1, #120]
   165dc:	7100045f 	cmp	w2, #0x1
   165e0:	54000201 	b.ne	16620 <emmc_select_partition+0x58>  // b.any
   165e4:	721d701f 	tst	w0, #0xfffffff8
   165e8:	540002a1 	b.ne	1663c <emmc_select_partition+0x74>  // b.any
   165ec:	39472c21 	ldrb	w1, [x1, #459]
   165f0:	12000823 	and	w3, w1, #0x7
   165f4:	6b00007f 	cmp	w3, w0
   165f8:	54000081 	b.ne	16608 <emmc_select_partition+0x40>  // b.any
   165fc:	2a0203e0 	mov	w0, w2
   16600:	a8c17bfd 	ldp	x29, x30, [sp], #16
   16604:	d65f03c0 	ret
   16608:	a8c17bfd 	ldp	x29, x30, [sp], #16
   1660c:	121d7021 	and	w1, w1, #0xfffffff8
   16610:	2a000020 	orr	w0, w1, w0
   16614:	52a07662 	mov	w2, #0x3b30000             	// #62062592
   16618:	2a002040 	orr	w0, w2, w0, lsl #8
   1661c:	17ffffc3 	b	16528 <emmc_set_ext_csd>
   16620:	528001e1 	mov	w1, #0xf                   	// #15
   16624:	52800000 	mov	w0, #0x0                   	// #0
   16628:	940002ee 	bl	171e0 <emmc_write_error_info>
   1662c:	528001e2 	mov	w2, #0xf                   	// #15
   16630:	2a0203e0 	mov	w0, w2
   16634:	a8c17bfd 	ldp	x29, x30, [sp], #16
   16638:	d65f03c0 	ret
   1663c:	52800121 	mov	w1, #0x9                   	// #9
   16640:	52800000 	mov	w0, #0x0                   	// #0
   16644:	940002e7 	bl	171e0 <emmc_write_error_info>
   16648:	52800122 	mov	w2, #0x9                   	// #9
   1664c:	17ffffec 	b	165fc <emmc_select_partition+0x34>

0000000000016650 <emmc_set_request_mmc_clock>:
   16650:	a9bf7bfd 	stp	x29, x30, [sp, #-16]!
   16654:	910003fd 	mov	x29, sp
   16658:	b4000b60 	cbz	x0, 167c4 <emmc_set_request_mmc_clock+0x174>
   1665c:	d0000041 	adrp	x1, 20000 <__STACKS_START__+0x700>
   16660:	9128c021 	add	x1, x1, #0xa30
   16664:	b9407022 	ldr	w2, [x1, #112]
   16668:	7100045f 	cmp	w2, #0x1
   1666c:	540005a1 	b.ne	16720 <emmc_set_request_mmc_clock+0xd0>  // b.any
   16670:	b9406824 	ldr	w4, [x1, #104]
   16674:	7100049f 	cmp	w4, #0x1
   16678:	54000541 	b.ne	16720 <emmc_set_request_mmc_clock+0xd0>  // b.any
   1667c:	b9406c22 	ldr	w2, [x1, #108]
   16680:	7100045f 	cmp	w2, #0x1
   16684:	540007e0 	b.eq	16780 <emmc_set_request_mmc_clock+0x130>  // b.none
   16688:	d2800f02 	mov	x2, #0x78                  	// #120
   1668c:	f2a23802 	movk	x2, #0x11c0, lsl #16
   16690:	b9400042 	ldr	w2, [x2]
   16694:	37700862 	tbnz	w2, #14, 167a0 <emmc_set_request_mmc_clock+0x150>
   16698:	d2801202 	mov	x2, #0x90                  	// #144
   1669c:	b9400003 	ldr	w3, [x0]
   166a0:	f2a23802 	movk	x2, #0x11c0, lsl #16
   166a4:	7100807f 	cmp	w3, #0x20
   166a8:	b9400042 	ldr	w2, [x2]
   166ac:	12185c42 	and	w2, w2, #0xffffff00
   166b0:	54000a40 	b.eq	167f8 <emmc_set_request_mmc_clock+0x1a8>  // b.none
   166b4:	54000449 	b.ls	1673c <emmc_set_request_mmc_clock+0xec>  // b.plast
   166b8:	7102007f 	cmp	w3, #0x80
   166bc:	54000960 	b.eq	167e8 <emmc_set_request_mmc_clock+0x198>  // b.none
   166c0:	54000589 	b.ls	16770 <emmc_set_request_mmc_clock+0x120>  // b.plast
   166c4:	7104007f 	cmp	w3, #0x100
   166c8:	540008c0 	b.eq	167e0 <emmc_set_request_mmc_clock+0x190>  // b.none
   166cc:	7108007f 	cmp	w3, #0x200
   166d0:	32190040 	orr	w0, w2, #0x80
   166d4:	1a820002 	csel	w2, w0, w2, eq  // eq = none
   166d8:	d2801205 	mov	x5, #0x90                  	// #144
   166dc:	b9006023 	str	w3, [x1, #96]
   166e0:	f2a23805 	movk	x5, #0x11c0, lsl #16
   166e4:	d2800f00 	mov	x0, #0x78                  	// #120
   166e8:	f2a23800 	movk	x0, #0x11c0, lsl #16
   166ec:	b90000a2 	str	w2, [x5]
   166f0:	b9006c3f 	str	wzr, [x1, #108]
   166f4:	b9400000 	ldr	w0, [x0]
   166f8:	37700620 	tbnz	w0, #14, 167bc <emmc_set_request_mmc_clock+0x16c>
   166fc:	b94000a0 	ldr	w0, [x5]
   16700:	52800022 	mov	w2, #0x1                   	// #1
   16704:	b9006c22 	str	w2, [x1, #108]
   16708:	12002400 	and	w0, w0, #0x3ff
   1670c:	32180000 	orr	w0, w0, #0x100
   16710:	b90000a0 	str	w0, [x5]
   16714:	2a0403e0 	mov	w0, w4
   16718:	a8c17bfd 	ldp	x29, x30, [sp], #16
   1671c:	d65f03c0 	ret
   16720:	528001e1 	mov	w1, #0xf                   	// #15
   16724:	52800180 	mov	w0, #0xc                   	// #12
   16728:	940002ae 	bl	171e0 <emmc_write_error_info>
   1672c:	528001e4 	mov	w4, #0xf                   	// #15
   16730:	2a0403e0 	mov	w0, w4
   16734:	a8c17bfd 	ldp	x29, x30, [sp], #16
   16738:	d65f03c0 	ret
   1673c:	7100107f 	cmp	w3, #0x4
   16740:	54000580 	b.eq	167f0 <emmc_set_request_mmc_clock+0x1a0>  // b.none
   16744:	540000e9 	b.ls	16760 <emmc_set_request_mmc_clock+0x110>  // b.plast
   16748:	7100207f 	cmp	w3, #0x8
   1674c:	54000460 	b.eq	167d8 <emmc_set_request_mmc_clock+0x188>  // b.none
   16750:	7100407f 	cmp	w3, #0x10
   16754:	321e0040 	orr	w0, w2, #0x4
   16758:	1a820002 	csel	w2, w0, w2, eq  // eq = none
   1675c:	17ffffdf 	b	166d8 <emmc_set_request_mmc_clock+0x88>
   16760:	7100047f 	cmp	w3, #0x1
   16764:	32001c40 	orr	w0, w2, #0xff
   16768:	1a820002 	csel	w2, w0, w2, eq  // eq = none
   1676c:	17ffffdb 	b	166d8 <emmc_set_request_mmc_clock+0x88>
   16770:	7101007f 	cmp	w3, #0x40
   16774:	321c0040 	orr	w0, w2, #0x10
   16778:	1a820002 	csel	w2, w0, w2, eq  // eq = none
   1677c:	17ffffd7 	b	166d8 <emmc_set_request_mmc_clock+0x88>
   16780:	b9400002 	ldr	w2, [x0]
   16784:	b9406023 	ldr	w3, [x1, #96]
   16788:	6b02007f 	cmp	w3, w2
   1678c:	54fffd20 	b.eq	16730 <emmc_set_request_mmc_clock+0xe0>  // b.none
   16790:	d2800f02 	mov	x2, #0x78                  	// #120
   16794:	f2a23802 	movk	x2, #0x11c0, lsl #16
   16798:	b9400042 	ldr	w2, [x2]
   1679c:	3677f7e2 	tbz	w2, #14, 16698 <emmc_set_request_mmc_clock+0x48>
   167a0:	52800241 	mov	w1, #0x12                  	// #18
   167a4:	52800180 	mov	w0, #0xc                   	// #12
   167a8:	9400028e 	bl	171e0 <emmc_write_error_info>
   167ac:	52800004 	mov	w4, #0x0                   	// #0
   167b0:	2a0403e0 	mov	w0, w4
   167b4:	a8c17bfd 	ldp	x29, x30, [sp], #16
   167b8:	d65f03c0 	ret
   167bc:	a8c17bfd 	ldp	x29, x30, [sp], #16
   167c0:	17ffff52 	b	16508 <emmc_clock_ctrl.part.0>
   167c4:	52800121 	mov	w1, #0x9                   	// #9
   167c8:	52800180 	mov	w0, #0xc                   	// #12
   167cc:	94000285 	bl	171e0 <emmc_write_error_info>
   167d0:	52800124 	mov	w4, #0x9                   	// #9
   167d4:	17ffffd7 	b	16730 <emmc_set_request_mmc_clock+0xe0>
   167d8:	321f0042 	orr	w2, w2, #0x2
   167dc:	17ffffbf 	b	166d8 <emmc_set_request_mmc_clock+0x88>
   167e0:	321a0042 	orr	w2, w2, #0x40
   167e4:	17ffffbd 	b	166d8 <emmc_set_request_mmc_clock+0x88>
   167e8:	321b0042 	orr	w2, w2, #0x20
   167ec:	17ffffbb 	b	166d8 <emmc_set_request_mmc_clock+0x88>
   167f0:	32000042 	orr	w2, w2, #0x1
   167f4:	17ffffb9 	b	166d8 <emmc_set_request_mmc_clock+0x88>
   167f8:	321d0042 	orr	w2, w2, #0x8
   167fc:	17ffffb7 	b	166d8 <emmc_set_request_mmc_clock+0x88>

0000000000016800 <emmc_mount>:
   16800:	a9b57bfd 	stp	x29, x30, [sp, #-176]!
   16804:	910003fd 	mov	x29, sp
   16808:	a90153f3 	stp	x19, x20, [sp, #16]
   1680c:	d0000053 	adrp	x19, 20000 <__STACKS_START__+0x700>
   16810:	9128c273 	add	x19, x19, #0xa30
   16814:	b9407260 	ldr	w0, [x19, #112]
   16818:	7100041f 	cmp	w0, #0x1
   1681c:	54000321 	b.ne	16880 <emmc_mount+0x80>  // b.any
   16820:	b9406a60 	ldr	w0, [x19, #104]
   16824:	7100041f 	cmp	w0, #0x1
   16828:	540002c1 	b.ne	16880 <emmc_mount+0x80>  // b.any
   1682c:	d2800f00 	mov	x0, #0x78                  	// #120
   16830:	f2a23800 	movk	x0, #0x11c0, lsl #16
   16834:	b9400001 	ldr	w1, [x0]
   16838:	37700241 	tbnz	w1, #14, 16880 <emmc_mount+0x80>
   1683c:	a9025bf5 	stp	x21, x22, [sp, #32]
   16840:	52804015 	mov	w21, #0x200                 	// #512
   16844:	b9004ff5 	str	w21, [sp, #76]
   16848:	b9400000 	ldr	w0, [x0]
   1684c:	12120014 	and	w20, w0, #0x4000
   16850:	37700280 	tbnz	w0, #14, 168a0 <emmc_mount+0xa0>
   16854:	52800101 	mov	w1, #0x8                   	// #8
   16858:	910133e0 	add	x0, sp, #0x4c
   1685c:	b9005a61 	str	w1, [x19, #88]
   16860:	b900627f 	str	wzr, [x19, #96]
   16864:	97ffff7b 	bl	16650 <emmc_set_request_mmc_clock>
   16868:	2a0003f6 	mov	w22, w0
   1686c:	7100041f 	cmp	w0, #0x1
   16870:	54000440 	b.eq	168f8 <emmc_mount+0xf8>  // b.none
   16874:	52800080 	mov	w0, #0x4                   	// #4
   16878:	94000266 	bl	17210 <emmc_write_error_info_func_no>
   1687c:	1400000d 	b	168b0 <emmc_mount+0xb0>
   16880:	528001e1 	mov	w1, #0xf                   	// #15
   16884:	52800060 	mov	w0, #0x3                   	// #3
   16888:	2a0103f4 	mov	w20, w1
   1688c:	94000255 	bl	171e0 <emmc_write_error_info>
   16890:	2a1403e0 	mov	w0, w20
   16894:	a94153f3 	ldp	x19, x20, [sp, #16]
   16898:	a8cb7bfd 	ldp	x29, x30, [sp], #176
   1689c:	d65f03c0 	ret
   168a0:	528001e1 	mov	w1, #0xf                   	// #15
   168a4:	52800080 	mov	w0, #0x4                   	// #4
   168a8:	2a0103f4 	mov	w20, w1
   168ac:	9400024d 	bl	171e0 <emmc_write_error_info>
   168b0:	52800080 	mov	w0, #0x4                   	// #4
   168b4:	94000257 	bl	17210 <emmc_write_error_info_func_no>
   168b8:	d2800f00 	mov	x0, #0x78                  	// #120
   168bc:	f2a23800 	movk	x0, #0x11c0, lsl #16
   168c0:	b9400000 	ldr	w0, [x0]
   168c4:	37700960 	tbnz	w0, #14, 169f0 <emmc_mount+0x1f0>
   168c8:	d2801201 	mov	x1, #0x90                  	// #144
   168cc:	b9006e7f 	str	wzr, [x19, #108]
   168d0:	f2a23801 	movk	x1, #0x11c0, lsl #16
   168d4:	52805fe2 	mov	w2, #0x2ff                 	// #767
   168d8:	a9425bf5 	ldp	x21, x22, [sp, #32]
   168dc:	b9400020 	ldr	w0, [x1]
   168e0:	0a020000 	and	w0, w0, w2
   168e4:	b9000020 	str	w0, [x1]
   168e8:	2a1403e0 	mov	w0, w20
   168ec:	a94153f3 	ldp	x19, x20, [sp, #16]
   168f0:	a8cb7bfd 	ldp	x29, x30, [sp], #176
   168f4:	d65f03c0 	ret
   168f8:	52807d00 	mov	w0, #0x3e8                 	// #1000
   168fc:	a90363f7 	stp	x23, x24, [sp, #48]
   16900:	97fff086 	bl	12b18 <udelay>
   16904:	d2801400 	mov	x0, #0xa0                  	// #160
   16908:	528c1dc1 	mov	w1, #0x60ee                	// #24814
   1690c:	f2a23800 	movk	x0, #0x11c0, lsl #16
   16910:	2a1503e3 	mov	w3, w21
   16914:	2a1603e5 	mov	w5, w22
   16918:	52800004 	mov	w4, #0x0                   	// #0
   1691c:	b9000001 	str	w1, [x0]
   16920:	d0000057 	adrp	x23, 20000 <__STACKS_START__+0x700>
   16924:	52800001 	mov	w1, #0x0                   	// #0
   16928:	912d22e2 	add	x2, x23, #0xb48
   1692c:	52982100 	mov	w0, #0xc108                	// #49416
   16930:	94000280 	bl	17330 <emmc_make_trans_cmd>
   16934:	f9406a61 	ldr	x1, [x19, #208]
   16938:	529c1000 	mov	w0, #0xe080                	// #57472
   1693c:	72bfb7e0 	movk	w0, #0xfdbf, lsl #16
   16940:	b900a676 	str	w22, [x19, #164]
   16944:	97fffaa9 	bl	153e8 <emmc_exec_cmd>
   16948:	b900a67f 	str	wzr, [x19, #164]
   1694c:	7100041f 	cmp	w0, #0x1
   16950:	54000560 	b.eq	169fc <emmc_mount+0x1fc>  // b.none
   16954:	7100141f 	cmp	w0, #0x5
   16958:	54002f01 	b.ne	16f38 <emmc_mount+0x738>  // b.any
   1695c:	b900ae76 	str	w22, [x19, #172]
   16960:	d2801401 	mov	x1, #0xa0                  	// #160
   16964:	52981dc2 	mov	w2, #0xc0ee                	// #49390
   16968:	f2a23801 	movk	x1, #0x11c0, lsl #16
   1696c:	52800000 	mov	w0, #0x0                   	// #0
   16970:	b9000022 	str	w2, [x1]
   16974:	9400027f 	bl	17370 <emmc_send_idle_cmd>
   16978:	2a0003f6 	mov	w22, w0
   1697c:	7100041f 	cmp	w0, #0x1
   16980:	540002e1 	b.ne	169dc <emmc_mount+0x1dc>  // b.any
   16984:	52801900 	mov	w0, #0xc8                  	// #200
   16988:	97fff064 	bl	12b18 <udelay>
   1698c:	529c1018 	mov	w24, #0xe080                	// #57472
   16990:	52901001 	mov	w1, #0x8080                	// #32896
   16994:	52802595 	mov	w21, #0x12c                 	// #300
   16998:	72bfb7f8 	movk	w24, #0xfdbf, lsl #16
   1699c:	52928020 	mov	w0, #0x9401                	// #37889
   169a0:	72a81fe1 	movk	w1, #0x40ff, lsl #16
   169a4:	94000223 	bl	17230 <emmc_make_nontrans_cmd>
   169a8:	14000007 	b	169c4 <emmc_mount+0x1c4>
   169ac:	b940de60 	ldr	w0, [x19, #220]
   169b0:	37f802e0 	tbnz	w0, #31, 16a0c <emmc_mount+0x20c>
   169b4:	52807d00 	mov	w0, #0x3e8                 	// #1000
   169b8:	97fff058 	bl	12b18 <udelay>
   169bc:	710006b5 	subs	w21, w21, #0x1
   169c0:	540029a0 	b.eq	16ef4 <emmc_mount+0x6f4>  // b.none
   169c4:	f9406a61 	ldr	x1, [x19, #208]
   169c8:	2a1803e0 	mov	w0, w24
   169cc:	97fffa87 	bl	153e8 <emmc_exec_cmd>
   169d0:	2a0003f6 	mov	w22, w0
   169d4:	7100041f 	cmp	w0, #0x1
   169d8:	54fffea0 	b.eq	169ac <emmc_mount+0x1ac>  // b.none
   169dc:	52800080 	mov	w0, #0x4                   	// #4
   169e0:	2a1603f4 	mov	w20, w22
   169e4:	9400020b 	bl	17210 <emmc_write_error_info_func_no>
   169e8:	a94363f7 	ldp	x23, x24, [sp, #48]
   169ec:	17ffffb1 	b	168b0 <emmc_mount+0xb0>
   169f0:	97fffec6 	bl	16508 <emmc_clock_ctrl.part.0>
   169f4:	a9425bf5 	ldp	x21, x22, [sp, #32]
   169f8:	17ffffa6 	b	16890 <emmc_mount+0x90>
   169fc:	39472e60 	ldrb	w0, [x19, #459]
   16a00:	12000800 	and	w0, w0, #0x7
   16a04:	b900ae60 	str	w0, [x19, #172]
   16a08:	17ffffd6 	b	16960 <emmc_mount+0x160>
   16a0c:	12030400 	and	w0, w0, #0x60000000
   16a10:	52a80001 	mov	w1, #0x40000000            	// #1073741824
   16a14:	6b01001f 	cmp	w0, w1
   16a18:	540000c0 	b.eq	16a30 <emmc_mount+0x230>  // b.none
   16a1c:	52800001 	mov	w1, #0x0                   	// #0
   16a20:	52800080 	mov	w0, #0x4                   	// #4
   16a24:	940001ef 	bl	171e0 <emmc_write_error_info>
   16a28:	a94363f7 	ldp	x23, x24, [sp, #48]
   16a2c:	17ffffa1 	b	168b0 <emmc_mount+0xb0>
   16a30:	52800001 	mov	w1, #0x0                   	// #0
   16a34:	52926040 	mov	w0, #0x9302                	// #37634
   16a38:	b9007676 	str	w22, [x19, #116]
   16a3c:	940001fd 	bl	17230 <emmc_make_nontrans_cmd>
   16a40:	d0000042 	adrp	x2, 20000 <__STACKS_START__+0x700>
   16a44:	912ce042 	add	x2, x2, #0xb38
   16a48:	529c1000 	mov	w0, #0xe080                	// #57472
   16a4c:	aa0203e1 	mov	x1, x2
   16a50:	72bfb7e0 	movk	w0, #0xfdbf, lsl #16
   16a54:	f9006a62 	str	x2, [x19, #208]
   16a58:	97fffa64 	bl	153e8 <emmc_exec_cmd>
   16a5c:	2a0003f6 	mov	w22, w0
   16a60:	7100041f 	cmp	w0, #0x1
   16a64:	54fffbc1 	b.ne	169dc <emmc_mount+0x1dc>  // b.any
   16a68:	52a00021 	mov	w1, #0x10000               	// #65536
   16a6c:	52942060 	mov	w0, #0xa103                	// #41219
   16a70:	940001f0 	bl	17230 <emmc_make_nontrans_cmd>
   16a74:	f9406a61 	ldr	x1, [x19, #208]
   16a78:	529c1000 	mov	w0, #0xe080                	// #57472
   16a7c:	72bfb7e0 	movk	w0, #0xfdbf, lsl #16
   16a80:	97fffa5a 	bl	153e8 <emmc_exec_cmd>
   16a84:	2a0003f6 	mov	w22, w0
   16a88:	7100041f 	cmp	w0, #0x1
   16a8c:	54fffa81 	b.ne	169dc <emmc_mount+0x1dc>  // b.any
   16a90:	52a00021 	mov	w1, #0x10000               	// #65536
   16a94:	52846120 	mov	w0, #0x2309                	// #8969
   16a98:	940001e6 	bl	17230 <emmc_make_nontrans_cmd>
   16a9c:	d0000055 	adrp	x21, 20000 <__STACKS_START__+0x700>
   16aa0:	529c1000 	mov	w0, #0xe080                	// #57472
   16aa4:	912ca2b5 	add	x21, x21, #0xb28
   16aa8:	aa1503e1 	mov	x1, x21
   16aac:	72bfb7e0 	movk	w0, #0xfdbf, lsl #16
   16ab0:	f9006a75 	str	x21, [x19, #208]
   16ab4:	97fffa4d 	bl	153e8 <emmc_exec_cmd>
   16ab8:	2a0003f6 	mov	w22, w0
   16abc:	7100041f 	cmp	w0, #0x1
   16ac0:	54fff8e1 	b.ne	169dc <emmc_mount+0x1dc>  // b.any
   16ac4:	52800f42 	mov	w2, #0x7a                  	// #122
   16ac8:	52800fa1 	mov	w1, #0x7d                  	// #125
   16acc:	aa1503e0 	mov	x0, x21
   16ad0:	9400019a 	bl	17138 <emmc_bit_field>
   16ad4:	71000c1f 	cmp	w0, #0x3
   16ad8:	540021a9 	b.ls	16f0c <emmc_mount+0x70c>  // b.plast
   16adc:	52a00021 	mov	w1, #0x10000               	// #65536
   16ae0:	528420e0 	mov	w0, #0x2107                	// #8455
   16ae4:	940001d3 	bl	17230 <emmc_make_nontrans_cmd>
   16ae8:	f9406a61 	ldr	x1, [x19, #208]
   16aec:	529c1000 	mov	w0, #0xe080                	// #57472
   16af0:	72bfb7e0 	movk	w0, #0xfdbf, lsl #16
   16af4:	97fffa3d 	bl	153e8 <emmc_exec_cmd>
   16af8:	2a0003f6 	mov	w22, w0
   16afc:	7100041f 	cmp	w0, #0x1
   16b00:	54fff6e1 	b.ne	169dc <emmc_mount+0x1dc>  // b.any
   16b04:	d2884803 	mov	x3, #0x4240                	// #16960
   16b08:	d284e204 	mov	x4, #0x2710                	// #10000
   16b0c:	f2a001e3 	movk	x3, #0xf, lsl #16
   16b10:	f2d0d404 	movk	x4, #0x86a0, lsl #32
   16b14:	f2d2d003 	movk	x3, #0x9680, lsl #32
   16b18:	f2e00024 	movk	x4, #0x1, lsl #48
   16b1c:	f2e01303 	movk	x3, #0x98, lsl #48
   16b20:	9101c3f8 	add	x24, sp, #0x70
   16b24:	d2800802 	mov	x2, #0x40                  	// #64
   16b28:	aa1803e0 	mov	x0, x24
   16b2c:	d0000021 	adrp	x1, 1c000 <vprintf+0x418>
   16b30:	9117e021 	add	x1, x1, #0x5f8
   16b34:	a9050fe4 	stp	x4, x3, [sp, #80]
   16b38:	a9067fff 	stp	xzr, xzr, [sp, #96]
   16b3c:	b9007e76 	str	w22, [x19, #124]
   16b40:	940013b0 	bl	1ba00 <memcpy>
   16b44:	52800c02 	mov	w2, #0x60                  	// #96
   16b48:	52800ce1 	mov	w1, #0x67                  	// #103
   16b4c:	aa1503e0 	mov	x0, x21
   16b50:	9400017a 	bl	17138 <emmc_bit_field>
   16b54:	910143e2 	add	x2, sp, #0x50
   16b58:	d37e0801 	ubfiz	x1, x0, #2, #3
   16b5c:	d3431803 	ubfx	x3, x0, #3, #4
   16b60:	b8616841 	ldr	w1, [x2, x1]
   16b64:	b8637b00 	ldr	w0, [x24, x3, lsl #2]
   16b68:	1b017c00 	mul	w0, w0, w1
   16b6c:	34001d00 	cbz	w0, 16f0c <emmc_mount+0x70c>
   16b70:	528e9fe1 	mov	w1, #0x74ff                	// #29951
   16b74:	72a06321 	movk	w1, #0x319, lsl #16
   16b78:	6b01001f 	cmp	w0, w1
   16b7c:	54001d48 	b.hi	16f24 <emmc_mount+0x724>  // b.pmore
   16b80:	52859fe1 	mov	w1, #0x2cff                	// #11519
   16b84:	72a02621 	movk	w1, #0x131, lsl #16
   16b88:	6b01001f 	cmp	w0, w1
   16b8c:	52800101 	mov	w1, #0x8                   	// #8
   16b90:	52804000 	mov	w0, #0x200                 	// #512
   16b94:	1a819000 	csel	w0, w0, w1, ls  // ls = plast
   16b98:	b9004fe0 	str	w0, [sp, #76]
   16b9c:	b9404fe1 	ldr	w1, [sp, #76]
   16ba0:	910133e0 	add	x0, sp, #0x4c
   16ba4:	b9005a61 	str	w1, [x19, #88]
   16ba8:	97fffeaa 	bl	16650 <emmc_set_request_mmc_clock>
   16bac:	7100041f 	cmp	w0, #0x1
   16bb0:	54001c01 	b.ne	16f30 <emmc_mount+0x730>  // b.any
   16bb4:	b9404fe0 	ldr	w0, [sp, #76]
   16bb8:	d2801415 	mov	x21, #0xa0                  	// #160
   16bbc:	f2a23815 	movk	x21, #0x11c0, lsl #16
   16bc0:	97fffe30 	bl	16480 <emmc_set_timeout_register_value>
   16bc4:	2a0003e3 	mov	w3, w0
   16bc8:	b94002a2 	ldr	w2, [x21]
   16bcc:	52804001 	mov	w1, #0x200                 	// #512
   16bd0:	b900b663 	str	w3, [x19, #180]
   16bd4:	52842200 	mov	w0, #0x2110                	// #8464
   16bd8:	12186c42 	and	w2, w2, #0xffffff0f
   16bdc:	2a030042 	orr	w2, w2, w3
   16be0:	b90002a2 	str	w2, [x21]
   16be4:	94000193 	bl	17230 <emmc_make_nontrans_cmd>
   16be8:	f9406a61 	ldr	x1, [x19, #208]
   16bec:	529c1000 	mov	w0, #0xe080                	// #57472
   16bf0:	72bfb7e0 	movk	w0, #0xfdbf, lsl #16
   16bf4:	97fff9fd 	bl	153e8 <emmc_exec_cmd>
   16bf8:	2a0003f6 	mov	w22, w0
   16bfc:	7100041f 	cmp	w0, #0x1
   16c00:	54ffeee1 	b.ne	169dc <emmc_mount+0x1dc>  // b.any
   16c04:	d2801301 	mov	x1, #0x98                  	// #152
   16c08:	52804000 	mov	w0, #0x200                 	// #512
   16c0c:	f2a23801 	movk	x1, #0x11c0, lsl #16
   16c10:	2a1603e5 	mov	w5, w22
   16c14:	2a0003e3 	mov	w3, w0
   16c18:	52800004 	mov	w4, #0x0                   	// #0
   16c1c:	b9000020 	str	w0, [x1]
   16c20:	912d22e2 	add	x2, x23, #0xb48
   16c24:	52800001 	mov	w1, #0x0                   	// #0
   16c28:	52982100 	mov	w0, #0xc108                	// #49416
   16c2c:	940001c1 	bl	17330 <emmc_make_trans_cmd>
   16c30:	f9406a61 	ldr	x1, [x19, #208]
   16c34:	529c1000 	mov	w0, #0xe080                	// #57472
   16c38:	72bfb7e0 	movk	w0, #0xfdbf, lsl #16
   16c3c:	97fff9eb 	bl	153e8 <emmc_exec_cmd>
   16c40:	2a0003f6 	mov	w22, w0
   16c44:	7100041f 	cmp	w0, #0x1
   16c48:	54ffeca1 	b.ne	169dc <emmc_mount+0x1dc>  // b.any
   16c4c:	39472e60 	ldrb	w0, [x19, #459]
   16c50:	b9407e61 	ldr	w1, [x19, #124]
   16c54:	d3431400 	ubfx	x0, x0, #3, #3
   16c58:	b900aa60 	str	w0, [x19, #168]
   16c5c:	7100043f 	cmp	w1, #0x1
   16c60:	54000b81 	b.ne	16dd0 <emmc_mount+0x5d0>  // b.any
   16c64:	39477264 	ldrb	w4, [x19, #476]
   16c68:	52800103 	mov	w3, #0x8                   	// #8
   16c6c:	52800082 	mov	w2, #0x4                   	// #4
   16c70:	52802001 	mov	w1, #0x100                 	// #256
   16c74:	72a07721 	movk	w1, #0x3b9, lsl #16
   16c78:	529440c0 	mov	w0, #0xa206                	// #41478
   16c7c:	f27f009f 	tst	x4, #0x2
   16c80:	1a831042 	csel	w2, w2, w3, ne  // ne = any
   16c84:	b90073e2 	str	w2, [sp, #112]
   16c88:	9400016a 	bl	17230 <emmc_make_nontrans_cmd>
   16c8c:	f9406a61 	ldr	x1, [x19, #208]
   16c90:	529c1000 	mov	w0, #0xe080                	// #57472
   16c94:	72bfb7e0 	movk	w0, #0xfdbf, lsl #16
   16c98:	97fff9d4 	bl	153e8 <emmc_exec_cmd>
   16c9c:	2a0003f6 	mov	w22, w0
   16ca0:	7100041f 	cmp	w0, #0x1
   16ca4:	540008e1 	b.ne	16dc0 <emmc_mount+0x5c0>  // b.any
   16ca8:	b94073e1 	ldr	w1, [sp, #112]
   16cac:	aa1803e0 	mov	x0, x24
   16cb0:	b9005a61 	str	w1, [x19, #88]
   16cb4:	b900b276 	str	w22, [x19, #176]
   16cb8:	97fffe66 	bl	16650 <emmc_set_request_mmc_clock>
   16cbc:	7100041f 	cmp	w0, #0x1
   16cc0:	54000260 	b.eq	16d0c <emmc_mount+0x50c>  // b.none
   16cc4:	528000a0 	mov	w0, #0x5                   	// #5
   16cc8:	94000152 	bl	17210 <emmc_write_error_info_func_no>
   16ccc:	528000a0 	mov	w0, #0x5                   	// #5
   16cd0:	94000150 	bl	17210 <emmc_write_error_info_func_no>
   16cd4:	d2800f00 	mov	x0, #0x78                  	// #120
   16cd8:	f2a23800 	movk	x0, #0x11c0, lsl #16
   16cdc:	b9400000 	ldr	w0, [x0]
   16ce0:	37700820 	tbnz	w0, #14, 16de4 <emmc_mount+0x5e4>
   16ce4:	d2801201 	mov	x1, #0x90                  	// #144
   16ce8:	b9006e7f 	str	wzr, [x19, #108]
   16cec:	f2a23801 	movk	x1, #0x11c0, lsl #16
   16cf0:	52805fe2 	mov	w2, #0x2ff                 	// #767
   16cf4:	a9425bf5 	ldp	x21, x22, [sp, #32]
   16cf8:	b9400020 	ldr	w0, [x1]
   16cfc:	a94363f7 	ldp	x23, x24, [sp, #48]
   16d00:	0a020000 	and	w0, w0, w2
   16d04:	b9000020 	str	w0, [x1]
   16d08:	17fffee2 	b	16890 <emmc_mount+0x90>
   16d0c:	b94073e0 	ldr	w0, [sp, #112]
   16d10:	97fffddc 	bl	16480 <emmc_set_timeout_register_value>
   16d14:	2a0003e3 	mov	w3, w0
   16d18:	b94002a2 	ldr	w2, [x21]
   16d1c:	52a00021 	mov	w1, #0x10000               	// #65536
   16d20:	b900b663 	str	w3, [x19, #180]
   16d24:	528421a0 	mov	w0, #0x210d                	// #8461
   16d28:	12186c42 	and	w2, w2, #0xffffff0f
   16d2c:	2a030042 	orr	w2, w2, w3
   16d30:	b90002a2 	str	w2, [x21]
   16d34:	9400013f 	bl	17230 <emmc_make_nontrans_cmd>
   16d38:	f9406a61 	ldr	x1, [x19, #208]
   16d3c:	529c1000 	mov	w0, #0xe080                	// #57472
   16d40:	72bfa7e0 	movk	w0, #0xfd3f, lsl #16
   16d44:	97fff9a9 	bl	153e8 <emmc_exec_cmd>
   16d48:	2a0003f6 	mov	w22, w0
   16d4c:	7100041f 	cmp	w0, #0x1
   16d50:	54000381 	b.ne	16dc0 <emmc_mount+0x5c0>  // b.any
   16d54:	b9407e60 	ldr	w0, [x19, #124]
   16d58:	7100041f 	cmp	w0, #0x1
   16d5c:	540004c1 	b.ne	16df4 <emmc_mount+0x5f4>  // b.any
   16d60:	52800042 	mov	w2, #0x2                   	// #2
   16d64:	52804001 	mov	w1, #0x200                 	// #512
   16d68:	72a076e1 	movk	w1, #0x3b7, lsl #16
   16d6c:	529440c0 	mov	w0, #0xa206                	// #41478
   16d70:	b9004262 	str	w2, [x19, #64]
   16d74:	9400012f 	bl	17230 <emmc_make_nontrans_cmd>
   16d78:	f9406a61 	ldr	x1, [x19, #208]
   16d7c:	529c1000 	mov	w0, #0xe080                	// #57472
   16d80:	72bfb7e0 	movk	w0, #0xfdbf, lsl #16
   16d84:	97fff999 	bl	153e8 <emmc_exec_cmd>
   16d88:	2a0003f4 	mov	w20, w0
   16d8c:	7100041f 	cmp	w0, #0x1
   16d90:	540003e0 	b.eq	16e0c <emmc_mount+0x60c>  // b.none
   16d94:	2a0003f5 	mov	w21, w0
   16d98:	b900427f 	str	wzr, [x19, #64]
   16d9c:	2a1503e1 	mov	w1, w21
   16da0:	528000c0 	mov	w0, #0x6                   	// #6
   16da4:	9400010f 	bl	171e0 <emmc_write_error_info>
   16da8:	2a1503f4 	mov	w20, w21
   16dac:	d0000020 	adrp	x0, 1c000 <vprintf+0x418>
   16db0:	9118e000 	add	x0, x0, #0x638
   16db4:	9400102b 	bl	1ae60 <tf_log>
   16db8:	528000c0 	mov	w0, #0x6                   	// #6
   16dbc:	17ffffc5 	b	16cd0 <emmc_mount+0x4d0>
   16dc0:	528000a0 	mov	w0, #0x5                   	// #5
   16dc4:	2a1603f4 	mov	w20, w22
   16dc8:	94000112 	bl	17210 <emmc_write_error_info_func_no>
   16dcc:	17ffffc0 	b	16ccc <emmc_mount+0x4cc>
   16dd0:	528001e1 	mov	w1, #0xf                   	// #15
   16dd4:	528000a0 	mov	w0, #0x5                   	// #5
   16dd8:	2a0103f4 	mov	w20, w1
   16ddc:	94000101 	bl	171e0 <emmc_write_error_info>
   16de0:	17ffffbb 	b	16ccc <emmc_mount+0x4cc>
   16de4:	97fffdc9 	bl	16508 <emmc_clock_ctrl.part.0>
   16de8:	a9425bf5 	ldp	x21, x22, [sp, #32]
   16dec:	a94363f7 	ldp	x23, x24, [sp, #48]
   16df0:	17fffea8 	b	16890 <emmc_mount+0x90>
   16df4:	528001e1 	mov	w1, #0xf                   	// #15
   16df8:	528000c0 	mov	w0, #0x6                   	// #6
   16dfc:	2a0103f4 	mov	w20, w1
   16e00:	940000f8 	bl	171e0 <emmc_write_error_info>
   16e04:	528000c0 	mov	w0, #0x6                   	// #6
   16e08:	17ffffb2 	b	16cd0 <emmc_mount+0x4d0>
   16e0c:	b9404260 	ldr	w0, [x19, #64]
   16e10:	7100041f 	cmp	w0, #0x1
   16e14:	540001e0 	b.eq	16e50 <emmc_mount+0x650>  // b.none
   16e18:	34000620 	cbz	w0, 16edc <emmc_mount+0x6dc>
   16e1c:	7100081f 	cmp	w0, #0x2
   16e20:	54000520 	b.eq	16ec4 <emmc_mount+0x6c4>  // b.none
   16e24:	52800021 	mov	w1, #0x1                   	// #1
   16e28:	528000c0 	mov	w0, #0x6                   	// #6
   16e2c:	940000ed 	bl	171e0 <emmc_write_error_info>
   16e30:	d0000020 	adrp	x0, 1c000 <vprintf+0x418>
   16e34:	9118e000 	add	x0, x0, #0x638
   16e38:	9400100a 	bl	1ae60 <tf_log>
   16e3c:	52800020 	mov	w0, #0x1                   	// #1
   16e40:	b9007a60 	str	w0, [x19, #120]
   16e44:	a9425bf5 	ldp	x21, x22, [sp, #32]
   16e48:	a94363f7 	ldp	x23, x24, [sp, #48]
   16e4c:	17fffe91 	b	16890 <emmc_mount+0x90>
   16e50:	b94002a0 	ldr	w0, [x21]
   16e54:	12940001 	mov	w1, #0xffff5fff            	// #-40961
   16e58:	0a010000 	and	w0, w0, w1
   16e5c:	b90002a0 	str	w0, [x21]
   16e60:	52a00021 	mov	w1, #0x10000               	// #65536
   16e64:	528421a0 	mov	w0, #0x210d                	// #8461
   16e68:	940000f2 	bl	17230 <emmc_make_nontrans_cmd>
   16e6c:	f9406a61 	ldr	x1, [x19, #208]
   16e70:	529c1000 	mov	w0, #0xe080                	// #57472
   16e74:	72bfb7e0 	movk	w0, #0xfdbf, lsl #16
   16e78:	97fff95c 	bl	153e8 <emmc_exec_cmd>
   16e7c:	2a0003f5 	mov	w21, w0
   16e80:	7100041f 	cmp	w0, #0x1
   16e84:	54fff8c1 	b.ne	16d9c <emmc_mount+0x59c>  // b.any
   16e88:	2a0003e5 	mov	w5, w0
   16e8c:	912d22e2 	add	x2, x23, #0xb48
   16e90:	52800004 	mov	w4, #0x0                   	// #0
   16e94:	52804003 	mov	w3, #0x200                 	// #512
   16e98:	52800001 	mov	w1, #0x0                   	// #0
   16e9c:	52982100 	mov	w0, #0xc108                	// #49416
   16ea0:	94000124 	bl	17330 <emmc_make_trans_cmd>
   16ea4:	f9406a61 	ldr	x1, [x19, #208]
   16ea8:	529c1000 	mov	w0, #0xe080                	// #57472
   16eac:	72bfb7e0 	movk	w0, #0xfdbf, lsl #16
   16eb0:	97fff94e 	bl	153e8 <emmc_exec_cmd>
   16eb4:	2a0003f5 	mov	w21, w0
   16eb8:	7100041f 	cmp	w0, #0x1
   16ebc:	54fff701 	b.ne	16d9c <emmc_mount+0x59c>  // b.any
   16ec0:	17ffffdf 	b	16e3c <emmc_mount+0x63c>
   16ec4:	b94002a0 	ldr	w0, [x21]
   16ec8:	12940001 	mov	w1, #0xffff5fff            	// #-40961
   16ecc:	0a010000 	and	w0, w0, w1
   16ed0:	32130000 	orr	w0, w0, #0x2000
   16ed4:	b90002a0 	str	w0, [x21]
   16ed8:	17ffffe2 	b	16e60 <emmc_mount+0x660>
   16edc:	b94002a0 	ldr	w0, [x21]
   16ee0:	12940001 	mov	w1, #0xffff5fff            	// #-40961
   16ee4:	0a010000 	and	w0, w0, w1
   16ee8:	32110000 	orr	w0, w0, #0x8000
   16eec:	b90002a0 	str	w0, [x21]
   16ef0:	17ffffdc 	b	16e60 <emmc_mount+0x660>
   16ef4:	52800201 	mov	w1, #0x10                  	// #16
   16ef8:	52800080 	mov	w0, #0x4                   	// #4
   16efc:	2a0103f4 	mov	w20, w1
   16f00:	940000b8 	bl	171e0 <emmc_write_error_info>
   16f04:	a94363f7 	ldp	x23, x24, [sp, #48]
   16f08:	17fffe6a 	b	168b0 <emmc_mount+0xb0>
   16f0c:	52800221 	mov	w1, #0x11                  	// #17
   16f10:	52800080 	mov	w0, #0x4                   	// #4
   16f14:	2a0103f4 	mov	w20, w1
   16f18:	940000b2 	bl	171e0 <emmc_write_error_info>
   16f1c:	a94363f7 	ldp	x23, x24, [sp, #48]
   16f20:	17fffe64 	b	168b0 <emmc_mount+0xb0>
   16f24:	52800080 	mov	w0, #0x4                   	// #4
   16f28:	b9004fe0 	str	w0, [sp, #76]
   16f2c:	17ffff1c 	b	16b9c <emmc_mount+0x39c>
   16f30:	a94363f7 	ldp	x23, x24, [sp, #48]
   16f34:	17fffe50 	b	16874 <emmc_mount+0x74>
   16f38:	2a0003e1 	mov	w1, w0
   16f3c:	52800220 	mov	w0, #0x11                  	// #17
   16f40:	940000a8 	bl	171e0 <emmc_write_error_info>
   16f44:	94001033 	bl	1b010 <console_flush>
   16f48:	97ffecb4 	bl	12218 <do_panic>
   16f4c:	00000000 	.inst	0x00000000 ; undefined

0000000000016f50 <emmc_read_sector>:
   16f50:	a9b97bfd 	stp	x29, x30, [sp, #-112]!
   16f54:	910003fd 	mov	x29, sp
   16f58:	34000c22 	cbz	w2, 170dc <emmc_read_sector+0x18c>
   16f5c:	a90153f3 	stp	x19, x20, [sp, #16]
   16f60:	d0000054 	adrp	x20, 20000 <__STACKS_START__+0x700>
   16f64:	9128c294 	add	x20, x20, #0xa30
   16f68:	a90363f7 	stp	x23, x24, [sp, #48]
   16f6c:	aa0003f7 	mov	x23, x0
   16f70:	b9407a80 	ldr	w0, [x20, #120]
   16f74:	7100041f 	cmp	w0, #0x1
   16f78:	540009e1 	b.ne	170b4 <emmc_read_sector+0x164>  // b.any
   16f7c:	2a2303e3 	mvn	w3, w3
   16f80:	2a0103f8 	mov	w24, w1
   16f84:	a9025bf5 	stp	x21, x22, [sp, #32]
   16f88:	12000076 	and	w22, w3, #0x1
   16f8c:	529c1015 	mov	w21, #0xe080                	// #57472
   16f90:	a9046bf9 	stp	x25, x26, [sp, #64]
   16f94:	d280041a 	mov	x26, #0x20                  	// #32
   16f98:	12001ec0 	and	w0, w22, #0xff
   16f9c:	a90573fb 	stp	x27, x28, [sp, #80]
   16fa0:	d280051b 	mov	x27, #0x28                  	// #40
   16fa4:	2a0203fc 	mov	w28, w2
   16fa8:	529ffff3 	mov	w19, #0xffff                	// #65535
   16fac:	72bfb7f5 	movk	w21, #0xfdbf, lsl #16
   16fb0:	f2a2381b 	movk	x27, #0x11c0, lsl #16
   16fb4:	f2a2381a 	movk	x26, #0x11c0, lsl #16
   16fb8:	b9006be0 	str	w0, [sp, #104]
   16fbc:	d503201f 	nop
   16fc0:	6b13039f 	cmp	w28, w19
   16fc4:	529422e0 	mov	w0, #0xa117                	// #41239
   16fc8:	1a939399 	csel	w25, w28, w19, ls  // ls = plast
   16fcc:	2a1903e1 	mov	w1, w25
   16fd0:	94000098 	bl	17230 <emmc_make_nontrans_cmd>
   16fd4:	f9406a81 	ldr	x1, [x20, #208]
   16fd8:	2a1503e0 	mov	w0, w21
   16fdc:	97fff903 	bl	153e8 <emmc_exec_cmd>
   16fe0:	2a0003e2 	mov	w2, w0
   16fe4:	7100041f 	cmp	w0, #0x1
   16fe8:	54000120 	b.eq	1700c <emmc_read_sector+0xbc>  // b.none
   16fec:	2a0203e0 	mov	w0, w2
   16ff0:	a94153f3 	ldp	x19, x20, [sp, #16]
   16ff4:	a9425bf5 	ldp	x21, x22, [sp, #32]
   16ff8:	a94363f7 	ldp	x23, x24, [sp, #48]
   16ffc:	a9446bf9 	ldp	x25, x26, [sp, #64]
   17000:	a94573fb 	ldp	x27, x28, [sp, #80]
   17004:	a8c77bfd 	ldp	x29, x30, [sp], #112
   17008:	d65f03c0 	ret
   1700c:	d2806c01 	mov	x1, #0x360                 	// #864
   17010:	b9000379 	str	w25, [x27]
   17014:	f2a23801 	movk	x1, #0x11c0, lsl #16
   17018:	52802000 	mov	w0, #0x100                 	// #256
   1701c:	b9000340 	str	w0, [x26]
   17020:	52820240 	mov	w0, #0x1012                	// #4114
   17024:	b9000020 	str	w0, [x1]
   17028:	aa1703e2 	mov	x2, x23
   1702c:	2a1603e5 	mov	w5, w22
   17030:	52800004 	mov	w4, #0x0                   	// #0
   17034:	53175b23 	lsl	w3, w25, #9
   17038:	2a1803e1 	mov	w1, w24
   1703c:	52882240 	mov	w0, #0x4112                	// #16658
   17040:	940000bc 	bl	17330 <emmc_make_trans_cmd>
   17044:	f9406a81 	ldr	x1, [x20, #208]
   17048:	2a1503e0 	mov	w0, w21
   1704c:	97fff8e7 	bl	153e8 <emmc_exec_cmd>
   17050:	2a0003e2 	mov	w2, w0
   17054:	7100041f 	cmp	w0, #0x1
   17058:	54fffca1 	b.ne	16fec <emmc_read_sector+0x9c>  // b.any
   1705c:	52a00021 	mov	w1, #0x10000               	// #65536
   17060:	528421a0 	mov	w0, #0x210d                	// #8461
   17064:	94000073 	bl	17230 <emmc_make_nontrans_cmd>
   17068:	f9406a81 	ldr	x1, [x20, #208]
   1706c:	2a1503e0 	mov	w0, w21
   17070:	97fff8de 	bl	153e8 <emmc_exec_cmd>
   17074:	2a0003e2 	mov	w2, w0
   17078:	7100041f 	cmp	w0, #0x1
   1707c:	54fffb81 	b.ne	16fec <emmc_read_sector+0x9c>  // b.any
   17080:	b9406be0 	ldr	w0, [sp, #104]
   17084:	350003c0 	cbnz	w0, 170fc <emmc_read_sector+0x1ac>
   17088:	b940da80 	ldr	w0, [x20, #216]
   1708c:	d3776321 	ubfiz	x1, x25, #9, #25
   17090:	8b0102f7 	add	x23, x23, x1
   17094:	0b190318 	add	w24, w24, w25
   17098:	364004a0 	tbz	w0, #8, 1712c <emmc_read_sector+0x1dc>
   1709c:	b9408a80 	ldr	w0, [x20, #136]
   170a0:	7100101f 	cmp	w0, #0x4
   170a4:	54000381 	b.ne	17114 <emmc_read_sector+0x1c4>  // b.any
   170a8:	6b19039c 	subs	w28, w28, w25
   170ac:	54fff8a1 	b.ne	16fc0 <emmc_read_sector+0x70>  // b.any
   170b0:	17ffffcf 	b	16fec <emmc_read_sector+0x9c>
   170b4:	528001e1 	mov	w1, #0xf                   	// #15
   170b8:	528001c0 	mov	w0, #0xe                   	// #14
   170bc:	b9006be1 	str	w1, [sp, #104]
   170c0:	94000048 	bl	171e0 <emmc_write_error_info>
   170c4:	b9406be2 	ldr	w2, [sp, #104]
   170c8:	a94153f3 	ldp	x19, x20, [sp, #16]
   170cc:	2a0203e0 	mov	w0, w2
   170d0:	a94363f7 	ldp	x23, x24, [sp, #48]
   170d4:	a8c77bfd 	ldp	x29, x30, [sp], #112
   170d8:	d65f03c0 	ret
   170dc:	52800121 	mov	w1, #0x9                   	// #9
   170e0:	528001c0 	mov	w0, #0xe                   	// #14
   170e4:	b9006be1 	str	w1, [sp, #104]
   170e8:	9400003e 	bl	171e0 <emmc_write_error_info>
   170ec:	b9406be2 	ldr	w2, [sp, #104]
   170f0:	a8c77bfd 	ldp	x29, x30, [sp], #112
   170f4:	2a0203e0 	mov	w0, w2
   170f8:	d65f03c0 	ret
   170fc:	d3777f21 	ubfiz	x1, x25, #9, #32
   17100:	aa1703e0 	mov	x0, x23
   17104:	b9006fe2 	str	w2, [sp, #108]
   17108:	97ffec50 	bl	12248 <flush_dcache_range>
   1710c:	b9406fe2 	ldr	w2, [sp, #108]
   17110:	17ffffde 	b	17088 <emmc_read_sector+0x138>
   17114:	52800261 	mov	w1, #0x13                  	// #19
   17118:	528001c0 	mov	w0, #0xe                   	// #14
   1711c:	b9006be1 	str	w1, [sp, #104]
   17120:	94000030 	bl	171e0 <emmc_write_error_info>
   17124:	b9406be2 	ldr	w2, [sp, #104]
   17128:	17ffffb1 	b	16fec <emmc_read_sector+0x9c>
   1712c:	52800241 	mov	w1, #0x12                  	// #18
   17130:	17fffffa 	b	17118 <emmc_read_sector+0x1c8>
   17134:	00000000 	.inst	0x00000000 ; undefined

0000000000017138 <emmc_bit_field>:
   17138:	53037c25 	lsr	w5, w1, #3
   1713c:	528001e4 	mov	w4, #0xf                   	// #15
   17140:	4b050083 	sub	w3, w4, w5
   17144:	53037c46 	lsr	w6, w2, #3
   17148:	6b0600bf 	cmp	w5, w6
   1714c:	38634803 	ldrb	w3, [x0, w3, uxtw]
   17150:	54000260 	b.eq	1719c <emmc_bit_field+0x64>  // b.none
   17154:	4b060084 	sub	w4, w4, w6
   17158:	52800206 	mov	w6, #0x10                  	// #16
   1715c:	4b0500c6 	sub	w6, w6, w5
   17160:	6b0400df 	cmp	w6, w4
   17164:	540002e0 	b.eq	171c0 <emmc_bit_field+0x88>  // b.none
   17168:	52800227 	mov	w7, #0x11                  	// #17
   1716c:	4b0500e7 	sub	w7, w7, w5
   17170:	6b0400ff 	cmp	w7, w4
   17174:	38664806 	ldrb	w6, [x0, w6, uxtw]
   17178:	38674804 	ldrb	w4, [x0, w7, uxtw]
   1717c:	54000280 	b.eq	171cc <emmc_bit_field+0x94>  // b.none
   17180:	52800247 	mov	w7, #0x12                  	// #18
   17184:	4b0500e5 	sub	w5, w7, w5
   17188:	53103cc6 	lsl	w6, w6, #16
   1718c:	2a0360c3 	orr	w3, w6, w3, lsl #24
   17190:	38654800 	ldrb	w0, [x0, w5, uxtw]
   17194:	2a042004 	orr	w4, w0, w4, lsl #8
   17198:	2a030083 	orr	w3, w4, w3
   1719c:	4b020021 	sub	w1, w1, w2
   171a0:	52800020 	mov	w0, #0x1                   	// #1
   171a4:	11000421 	add	w1, w1, #0x1
   171a8:	12000842 	and	w2, w2, #0x7
   171ac:	1ac12001 	lsl	w1, w0, w1
   171b0:	51000420 	sub	w0, w1, #0x1
   171b4:	1ac22462 	lsr	w2, w3, w2
   171b8:	0a020000 	and	w0, w0, w2
   171bc:	d65f03c0 	ret
   171c0:	38664800 	ldrb	w0, [x0, w6, uxtw]
   171c4:	2a032003 	orr	w3, w0, w3, lsl #8
   171c8:	17fffff5 	b	1719c <emmc_bit_field+0x64>
   171cc:	53185cc6 	lsl	w6, w6, #8
   171d0:	2a0340c3 	orr	w3, w6, w3, lsl #16
   171d4:	2a040063 	orr	w3, w3, w4
   171d8:	17fffff1 	b	1719c <emmc_bit_field+0x64>
   171dc:	00000000 	.inst	0x00000000 ; undefined

00000000000171e0 <emmc_write_error_info>:
   171e0:	b0000042 	adrp	x2, 20000 <__STACKS_START__+0x700>
   171e4:	9128c044 	add	x4, x2, #0xa30
   171e8:	12003c00 	and	w0, w0, #0xffff
   171ec:	2a0103e3 	mov	w3, w1
   171f0:	79146040 	strh	w0, [x2, #2608]
   171f4:	2a0103e2 	mov	w2, w1
   171f8:	2a0003e1 	mov	w1, w0
   171fc:	b0000020 	adrp	x0, 1c000 <vprintf+0x418>
   17200:	911d4000 	add	x0, x0, #0x750
   17204:	79000483 	strh	w3, [x4, #2]
   17208:	14000f16 	b	1ae60 <tf_log>
   1720c:	00000000 	.inst	0x00000000 ; undefined

0000000000017210 <emmc_write_error_info_func_no>:
   17210:	b0000043 	adrp	x3, 20000 <__STACKS_START__+0x700>
   17214:	12003c00 	and	w0, w0, #0xffff
   17218:	2a0003e1 	mov	w1, w0
   1721c:	b0000022 	adrp	x2, 1c000 <vprintf+0x418>
   17220:	79146060 	strh	w0, [x3, #2608]
   17224:	911de040 	add	x0, x2, #0x778
   17228:	14000f0e 	b	1ae60 <tf_log>
   1722c:	00000000 	.inst	0x00000000 ; undefined

0000000000017230 <emmc_make_nontrans_cmd>:
   17230:	b0000024 	adrp	x4, 1c000 <vprintf+0x418>
   17234:	92401406 	and	x6, x0, #0x3f
   17238:	91196084 	add	x4, x4, #0x658
   1723c:	b0000042 	adrp	x2, 20000 <__STACKS_START__+0x700>
   17240:	9128c042 	add	x2, x2, #0xa30
   17244:	d2c000c5 	mov	x5, #0x600000000           	// #25769803776
   17248:	12180c03 	and	w3, w0, #0xf00
   1724c:	b8667884 	ldr	w4, [x4, x6, lsl #2]
   17250:	710c007f 	cmp	w3, #0x300
   17254:	29038440 	stp	w0, w1, [x2, #28]
   17258:	2904905f 	stp	wzr, w4, [x2, #36]
   1725c:	a9037c5f 	stp	xzr, xzr, [x2, #48]
   17260:	b900445f 	str	wzr, [x2, #68]
   17264:	f9002445 	str	x5, [x2, #72]
   17268:	540002c0 	b.eq	172c0 <emmc_make_nontrans_cmd+0x90>  // b.none
   1726c:	54000169 	b.ls	17298 <emmc_make_nontrans_cmd+0x68>  // b.plast
   17270:	7114007f 	cmp	w3, #0x500
   17274:	54000320 	b.eq	172d8 <emmc_make_nontrans_cmd+0xa8>  // b.none
   17278:	7118007f 	cmp	w3, #0x600
   1727c:	54000360 	b.eq	172e8 <emmc_make_nontrans_cmd+0xb8>  // b.none
   17280:	7110007f 	cmp	w3, #0x400
   17284:	540003a0 	b.eq	172f8 <emmc_make_nontrans_cmd+0xc8>  // b.none
   17288:	b0000040 	adrp	x0, 20000 <__STACKS_START__+0x700>
   1728c:	91352000 	add	x0, x0, #0xd48
   17290:	f9006840 	str	x0, [x2, #208]
   17294:	d65f03c0 	ret
   17298:	7104007f 	cmp	w3, #0x100
   1729c:	54000360 	b.eq	17308 <emmc_make_nontrans_cmd+0xd8>  // b.none
   172a0:	7108007f 	cmp	w3, #0x200
   172a4:	540003a0 	b.eq	17318 <emmc_make_nontrans_cmd+0xe8>  // b.none
   172a8:	35ffff03 	cbnz	w3, 17288 <emmc_make_nontrans_cmd+0x58>
   172ac:	b0000040 	adrp	x0, 20000 <__STACKS_START__+0x700>
   172b0:	91352000 	add	x0, x0, #0xd48
   172b4:	b9004c5f 	str	wzr, [x2, #76]
   172b8:	f9006840 	str	x0, [x2, #208]
   172bc:	d65f03c0 	ret
   172c0:	52800221 	mov	w1, #0x11                  	// #17
   172c4:	b0000040 	adrp	x0, 20000 <__STACKS_START__+0x700>
   172c8:	91352000 	add	x0, x0, #0xd48
   172cc:	b9004c41 	str	w1, [x2, #76]
   172d0:	f9006840 	str	x0, [x2, #208]
   172d4:	d65f03c0 	ret
   172d8:	b0000040 	adrp	x0, 20000 <__STACKS_START__+0x700>
   172dc:	912c4000 	add	x0, x0, #0xb10
   172e0:	f9006840 	str	x0, [x2, #208]
   172e4:	d65f03c0 	ret
   172e8:	b0000040 	adrp	x0, 20000 <__STACKS_START__+0x700>
   172ec:	912c5000 	add	x0, x0, #0xb14
   172f0:	f9006840 	str	x0, [x2, #208]
   172f4:	d65f03c0 	ret
   172f8:	b0000040 	adrp	x0, 20000 <__STACKS_START__+0x700>
   172fc:	912c3000 	add	x0, x0, #0xb0c
   17300:	f9006840 	str	x0, [x2, #208]
   17304:	d65f03c0 	ret
   17308:	b0000040 	adrp	x0, 20000 <__STACKS_START__+0x700>
   1730c:	912c2000 	add	x0, x0, #0xb08
   17310:	f9006840 	str	x0, [x2, #208]
   17314:	d65f03c0 	ret
   17318:	32160084 	orr	w4, w4, #0x400
   1731c:	b0000040 	adrp	x0, 20000 <__STACKS_START__+0x700>
   17320:	912c2000 	add	x0, x0, #0xb08
   17324:	b9002844 	str	w4, [x2, #40]
   17328:	f9006840 	str	x0, [x2, #208]
   1732c:	d65f03c0 	ret

0000000000017330 <emmc_make_trans_cmd>:
   17330:	aa0203e8 	mov	x8, x2
   17334:	2a0303e7 	mov	w7, w3
   17338:	2a0403ea 	mov	w10, w4
   1733c:	2a0503e9 	mov	w9, w5
   17340:	a9bf7bfd 	stp	x29, x30, [sp, #-16]!
   17344:	910003fd 	mov	x29, sp
   17348:	97ffffba 	bl	17230 <emmc_make_nontrans_cmd>
   1734c:	b0000040 	adrp	x0, 20000 <__STACKS_START__+0x700>
   17350:	9128c000 	add	x0, x0, #0xa30
   17354:	b900240a 	str	w10, [x0, #36]
   17358:	a9032008 	stp	x8, x8, [x0, #48]
   1735c:	29089c07 	stp	w7, w7, [x0, #68]
   17360:	b9008009 	str	w9, [x0, #128]
   17364:	a8c17bfd 	ldp	x29, x30, [sp], #16
   17368:	d65f03c0 	ret
   1736c:	00000000 	.inst	0x00000000 ; undefined

0000000000017370 <emmc_send_idle_cmd>:
   17370:	a9be7bfd 	stp	x29, x30, [sp, #-32]!
   17374:	b0000047 	adrp	x7, 20000 <__STACKS_START__+0x700>
   17378:	9128c0e7 	add	x7, x7, #0xa30
   1737c:	910003fd 	mov	x29, sp
   17380:	52800102 	mov	w2, #0x8                   	// #8
   17384:	2a0003e1 	mov	w1, w0
   17388:	b90090ff 	str	wzr, [x7, #144]
   1738c:	52800000 	mov	w0, #0x0                   	// #0
   17390:	b9008cff 	str	wzr, [x7, #140]
   17394:	b90094ff 	str	wzr, [x7, #148]
   17398:	f9003cff 	str	xzr, [x7, #120]
   1739c:	b90098ff 	str	wzr, [x7, #152]
   173a0:	b9009cff 	str	wzr, [x7, #156]
   173a4:	b90040ff 	str	wzr, [x7, #64]
   173a8:	b90058e2 	str	w2, [x7, #88]
   173ac:	b90088ff 	str	wzr, [x7, #136]
   173b0:	b900a0ff 	str	wzr, [x7, #160]
   173b4:	97ffff9f 	bl	17230 <emmc_make_nontrans_cmd>
   173b8:	f94068e1 	ldr	x1, [x7, #208]
   173bc:	529c1000 	mov	w0, #0xe080                	// #57472
   173c0:	72bfb7e0 	movk	w0, #0xfdbf, lsl #16
   173c4:	97fff809 	bl	153e8 <emmc_exec_cmd>
   173c8:	7100041f 	cmp	w0, #0x1
   173cc:	54000060 	b.eq	173d8 <emmc_send_idle_cmd+0x68>  // b.none
   173d0:	a8c27bfd 	ldp	x29, x30, [sp], #32
   173d4:	d65f03c0 	ret
   173d8:	52804001 	mov	w1, #0x200                 	// #512
   173dc:	910073e0 	add	x0, sp, #0x1c
   173e0:	b9001fe1 	str	w1, [sp, #28]
   173e4:	97fffc9b 	bl	16650 <emmc_set_request_mmc_clock>
   173e8:	a8c27bfd 	ldp	x29, x30, [sp], #32
   173ec:	d65f03c0 	ret

00000000000173f0 <device_type_emmcdrv>:
   173f0:	52800040 	mov	w0, #0x2                   	// #2
   173f4:	d65f03c0 	ret

00000000000173f8 <emmcdrv_block_seek>:
   173f8:	7100043f 	cmp	w1, #0x1
   173fc:	540000a1 	b.ne	17410 <emmcdrv_block_seek+0x18>  // b.any
   17400:	f9400401 	ldr	x1, [x0, #8]
   17404:	52800000 	mov	w0, #0x0                   	// #0
   17408:	f9000822 	str	x2, [x1, #16]
   1740c:	d65f03c0 	ret
   17410:	12801000 	mov	w0, #0xffffff7f            	// #-129
   17414:	d65f03c0 	ret

0000000000017418 <emmcdrv_dev_open>:
   17418:	b0000022 	adrp	x2, 1c000 <vprintf+0x418>
   1741c:	52800000 	mov	w0, #0x0                   	// #0
   17420:	91214042 	add	x2, x2, #0x850
   17424:	f9000022 	str	x2, [x1]
   17428:	d65f03c0 	ret
   1742c:	00000000 	.inst	0x00000000 ; undefined

0000000000017430 <emmcdrv_dev_close>:
   17430:	52800000 	mov	w0, #0x0                   	// #0
   17434:	d65f03c0 	ret

0000000000017438 <emmcdrv_block_close>:
   17438:	a9be7bfd 	stp	x29, x30, [sp, #-32]!
   1743c:	d2800402 	mov	x2, #0x20                  	// #32
   17440:	52800001 	mov	w1, #0x0                   	// #0
   17444:	910003fd 	mov	x29, sp
   17448:	f9000bf3 	str	x19, [sp, #16]
   1744c:	aa0003f3 	mov	x19, x0
   17450:	b0000040 	adrp	x0, 20000 <__STACKS_START__+0x700>
   17454:	91358000 	add	x0, x0, #0xd60
   17458:	94001186 	bl	1ba70 <memset>
   1745c:	f900067f 	str	xzr, [x19, #8]
   17460:	52800000 	mov	w0, #0x0                   	// #0
   17464:	f9400bf3 	ldr	x19, [sp, #16]
   17468:	a8c27bfd 	ldp	x29, x30, [sp], #32
   1746c:	d65f03c0 	ret

0000000000017470 <emmcdrv_block_read>:
   17470:	d109c3ff 	sub	sp, sp, #0x270
   17474:	aa0203e5 	mov	x5, x2
   17478:	a9007bfd 	stp	x29, x30, [sp]
   1747c:	910003fd 	mov	x29, sp
   17480:	a9046bf9 	stp	x25, x26, [sp, #64]
   17484:	f940041a 	ldr	x26, [x0, #8]
   17488:	a90153f3 	stp	x19, x20, [sp, #16]
   1748c:	b0000020 	adrp	x0, 1c000 <vprintf+0x418>
   17490:	a9025bf5 	stp	x21, x22, [sp, #32]
   17494:	aa0303f5 	mov	x21, x3
   17498:	911f0000 	add	x0, x0, #0x7c0
   1749c:	a9408f53 	ldp	x19, x3, [x26, #8]
   174a0:	a90363f7 	stp	x23, x24, [sp, #48]
   174a4:	d1000458 	sub	x24, x2, #0x1
   174a8:	a90573fb 	stp	x27, x28, [sp, #80]
   174ac:	aa0203fb 	mov	x27, x2
   174b0:	b9401b42 	ldr	w2, [x26, #24]
   174b4:	aa0103f6 	mov	x22, x1
   174b8:	d2800014 	mov	x20, #0x0                   	// #0
   174bc:	8b030273 	add	x19, x19, x3
   174c0:	8b130318 	add	x24, x24, x19
   174c4:	aa1303e3 	mov	x3, x19
   174c8:	d349fe73 	lsr	x19, x19, #9
   174cc:	d349ff18 	lsr	x24, x24, #9
   174d0:	2a1303e4 	mov	w4, w19
   174d4:	4b130319 	sub	w25, w24, w19
   174d8:	2a1303f7 	mov	w23, w19
   174dc:	1100073c 	add	w28, w25, #0x1
   174e0:	2a1c03e6 	mov	w6, w28
   174e4:	94000e5f 	bl	1ae60 <tf_log>
   174e8:	a9408342 	ldp	x2, x0, [x26, #8]
   174ec:	0b000042 	add	w2, w2, w0
   174f0:	72002044 	ands	w4, w2, #0x1ff
   174f4:	540005e1 	b.ne	175b0 <emmcdrv_block_read+0x140>  // b.any
   174f8:	0b1b0042 	add	w2, w2, w27
   174fc:	7100039f 	cmp	w28, #0x0
   17500:	12002053 	and	w19, w2, #0x1ff
   17504:	7a401a64 	ccmp	w19, #0x0, #0x4, ne  // ne = any
   17508:	540001e1 	b.ne	17544 <emmcdrv_block_read+0xd4>  // b.any
   1750c:	3500041c 	cbnz	w28, 1758c <emmcdrv_block_read+0x11c>
   17510:	f9400b41 	ldr	x1, [x26, #16]
   17514:	f90002bb 	str	x27, [x21]
   17518:	52800000 	mov	w0, #0x0                   	// #0
   1751c:	8b1b003b 	add	x27, x1, x27
   17520:	f9000b5b 	str	x27, [x26, #16]
   17524:	a9407bfd 	ldp	x29, x30, [sp]
   17528:	a94153f3 	ldp	x19, x20, [sp, #16]
   1752c:	a9425bf5 	ldp	x21, x22, [sp, #32]
   17530:	a94363f7 	ldp	x23, x24, [sp, #48]
   17534:	a9446bf9 	ldp	x25, x26, [sp, #64]
   17538:	a94573fb 	ldp	x27, x28, [sp, #80]
   1753c:	9109c3ff 	add	sp, sp, #0x270
   17540:	d65f03c0 	ret
   17544:	d2804002 	mov	x2, #0x200                 	// #512
   17548:	52800001 	mov	w1, #0x0                   	// #0
   1754c:	9101c3e0 	add	x0, sp, #0x70
   17550:	94001148 	bl	1ba70 <memset>
   17554:	2a1803e1 	mov	w1, w24
   17558:	9101c3e0 	add	x0, sp, #0x70
   1755c:	52800003 	mov	w3, #0x0                   	// #0
   17560:	52800022 	mov	w2, #0x1                   	// #1
   17564:	97fffe7b 	bl	16f50 <emmc_read_sector>
   17568:	7100041f 	cmp	w0, #0x1
   1756c:	540001e1 	b.ne	175a8 <emmcdrv_block_read+0x138>  // b.any
   17570:	2a1303e2 	mov	w2, w19
   17574:	8b160360 	add	x0, x27, x22
   17578:	5100079c 	sub	w28, w28, #0x1
   1757c:	9101c3e1 	add	x1, sp, #0x70
   17580:	cb020000 	sub	x0, x0, x2
   17584:	9400111f 	bl	1ba00 <memcpy>
   17588:	34fffc5c 	cbz	w28, 17510 <emmcdrv_block_read+0xa0>
   1758c:	2a1c03e2 	mov	w2, w28
   17590:	2a1703e1 	mov	w1, w23
   17594:	8b160280 	add	x0, x20, x22
   17598:	52800003 	mov	w3, #0x0                   	// #0
   1759c:	97fffe6d 	bl	16f50 <emmc_read_sector>
   175a0:	7100041f 	cmp	w0, #0x1
   175a4:	54fffb60 	b.eq	17510 <emmcdrv_block_read+0xa0>  // b.none
   175a8:	12801000 	mov	w0, #0xffffff7f            	// #-129
   175ac:	17ffffde 	b	17524 <emmcdrv_block_read+0xb4>
   175b0:	d2804002 	mov	x2, #0x200                 	// #512
   175b4:	52800001 	mov	w1, #0x0                   	// #0
   175b8:	9101c3e0 	add	x0, sp, #0x70
   175bc:	b9006fe4 	str	w4, [sp, #108]
   175c0:	9400112c 	bl	1ba70 <memset>
   175c4:	9101c3e0 	add	x0, sp, #0x70
   175c8:	52800003 	mov	w3, #0x0                   	// #0
   175cc:	52800022 	mov	w2, #0x1                   	// #1
   175d0:	2a1303e1 	mov	w1, w19
   175d4:	97fffe5f 	bl	16f50 <emmc_read_sector>
   175d8:	7100041f 	cmp	w0, #0x1
   175dc:	b9406fe4 	ldr	w4, [sp, #108]
   175e0:	54fffe41 	b.ne	175a8 <emmcdrv_block_read+0x138>  // b.any
   175e4:	52804014 	mov	w20, #0x200                 	// #512
   175e8:	4b040294 	sub	w20, w20, w4
   175ec:	eb14037f 	cmp	x27, x20
   175f0:	2a0403e1 	mov	w1, w4
   175f4:	9a949374 	csel	x20, x27, x20, ls  // ls = plast
   175f8:	9101c3e0 	add	x0, sp, #0x70
   175fc:	8b010001 	add	x1, x0, x1
   17600:	aa1403e2 	mov	x2, x20
   17604:	aa1603e0 	mov	x0, x22
   17608:	940010fe 	bl	1ba00 <memcpy>
   1760c:	a9408342 	ldp	x2, x0, [x26, #8]
   17610:	11000677 	add	w23, w19, #0x1
   17614:	2a1903fc 	mov	w28, w25
   17618:	0b000042 	add	w2, w2, w0
   1761c:	17ffffb7 	b	174f8 <emmcdrv_block_read+0x88>

0000000000017620 <emmcdrv_block_open>:
   17620:	b0000043 	adrp	x3, 20000 <__STACKS_START__+0x700>
   17624:	b94d6060 	ldr	w0, [x3, #3424]
   17628:	35000340 	cbnz	w0, 17690 <emmcdrv_block_open+0x70>
   1762c:	a9be7bfd 	stp	x29, x30, [sp, #-32]!
   17630:	b0000044 	adrp	x4, 20000 <__STACKS_START__+0x700>
   17634:	52800025 	mov	w5, #0x1                   	// #1
   17638:	910003fd 	mov	x29, sp
   1763c:	b94ad884 	ldr	w4, [x4, #2776]
   17640:	b0000020 	adrp	x0, 1c000 <vprintf+0x418>
   17644:	a90153f3 	stp	x19, x20, [sp, #16]
   17648:	aa0203f4 	mov	x20, x2
   1764c:	91358073 	add	x19, x3, #0xd60
   17650:	f9400022 	ldr	x2, [x1]
   17654:	911e6000 	add	x0, x0, #0x798
   17658:	b90d6065 	str	w5, [x3, #3424]
   1765c:	2a0403e1 	mov	w1, w4
   17660:	a900fe62 	stp	x2, xzr, [x19, #8]
   17664:	b9001a64 	str	w4, [x19, #24]
   17668:	94000dfe 	bl	1ae60 <tf_log>
   1766c:	b9401a60 	ldr	w0, [x19, #24]
   17670:	97fffbd6 	bl	165c8 <emmc_select_partition>
   17674:	7100041f 	cmp	w0, #0x1
   17678:	54000101 	b.ne	17698 <emmcdrv_block_open+0x78>  // b.any
   1767c:	52800000 	mov	w0, #0x0                   	// #0
   17680:	f9000693 	str	x19, [x20, #8]
   17684:	a94153f3 	ldp	x19, x20, [sp, #16]
   17688:	a8c27bfd 	ldp	x29, x30, [sp], #32
   1768c:	d65f03c0 	ret
   17690:	12801040 	mov	w0, #0xffffff7d            	// #-131
   17694:	d65f03c0 	ret
   17698:	12801000 	mov	w0, #0xffffff7f            	// #-129
   1769c:	17fffffa 	b	17684 <emmcdrv_block_open+0x64>

00000000000176a0 <register_io_dev_emmcdrv>:
   176a0:	a9be7bfd 	stp	x29, x30, [sp, #-32]!
   176a4:	910003fd 	mov	x29, sp
   176a8:	f9000bf3 	str	x19, [sp, #16]
   176ac:	aa0003f3 	mov	x19, x0
   176b0:	b0000020 	adrp	x0, 1c000 <vprintf+0x418>
   176b4:	91214000 	add	x0, x0, #0x850
   176b8:	97ffeee0 	bl	13238 <io_register_device>
   176bc:	35000080 	cbnz	w0, 176cc <register_io_dev_emmcdrv+0x2c>
   176c0:	b0000021 	adrp	x1, 1c000 <vprintf+0x418>
   176c4:	91200021 	add	x1, x1, #0x800
   176c8:	f9000261 	str	x1, [x19]
   176cc:	f9400bf3 	ldr	x19, [sp, #16]
   176d0:	a8c27bfd 	ldp	x29, x30, [sp], #32
   176d4:	d65f03c0 	ret

00000000000176d8 <device_type_sddrv>:
   176d8:	52800040 	mov	w0, #0x2                   	// #2
   176dc:	d65f03c0 	ret

00000000000176e0 <sddrv_block_seek>:
   176e0:	7100043f 	cmp	w1, #0x1
   176e4:	540000a1 	b.ne	176f8 <sddrv_block_seek+0x18>  // b.any
   176e8:	f9400401 	ldr	x1, [x0, #8]
   176ec:	52800000 	mov	w0, #0x0                   	// #0
   176f0:	f9000822 	str	x2, [x1, #16]
   176f4:	d65f03c0 	ret
   176f8:	12801000 	mov	w0, #0xffffff7f            	// #-129
   176fc:	d65f03c0 	ret

0000000000017700 <sddrv_dev_open>:
   17700:	b0000022 	adrp	x2, 1c000 <vprintf+0x418>
   17704:	52800000 	mov	w0, #0x0                   	// #0
   17708:	91236042 	add	x2, x2, #0x8d8
   1770c:	f9000022 	str	x2, [x1]
   17710:	d65f03c0 	ret
   17714:	00000000 	.inst	0x00000000 ; undefined

0000000000017718 <sddrv_dev_close>:
   17718:	52800000 	mov	w0, #0x0                   	// #0
   1771c:	d65f03c0 	ret

0000000000017720 <sddrv_block_close>:
   17720:	a9be7bfd 	stp	x29, x30, [sp, #-32]!
   17724:	d2800402 	mov	x2, #0x20                  	// #32
   17728:	52800001 	mov	w1, #0x0                   	// #0
   1772c:	910003fd 	mov	x29, sp
   17730:	f9000bf3 	str	x19, [sp, #16]
   17734:	aa0003f3 	mov	x19, x0
   17738:	b0000040 	adrp	x0, 20000 <__STACKS_START__+0x700>
   1773c:	91360000 	add	x0, x0, #0xd80
   17740:	940010cc 	bl	1ba70 <memset>
   17744:	f900067f 	str	xzr, [x19, #8]
   17748:	52800000 	mov	w0, #0x0                   	// #0
   1774c:	f9400bf3 	ldr	x19, [sp, #16]
   17750:	a8c27bfd 	ldp	x29, x30, [sp], #32
   17754:	d65f03c0 	ret

0000000000017758 <sddrv_block_open>:
   17758:	b0000043 	adrp	x3, 20000 <__STACKS_START__+0x700>
   1775c:	b94d8060 	ldr	w0, [x3, #3456]
   17760:	350002c0 	cbnz	w0, 177b8 <sddrv_block_open+0x60>
   17764:	a9be7bfd 	stp	x29, x30, [sp, #-32]!
   17768:	52800025 	mov	w5, #0x1                   	// #1
   1776c:	b0000020 	adrp	x0, 1c000 <vprintf+0x418>
   17770:	910003fd 	mov	x29, sp
   17774:	a90153f3 	stp	x19, x20, [sp, #16]
   17778:	aa0203f4 	mov	x20, x2
   1777c:	b0000042 	adrp	x2, 20000 <__STACKS_START__+0x700>
   17780:	f9400024 	ldr	x4, [x1]
   17784:	91360073 	add	x19, x3, #0xd80
   17788:	b94ad842 	ldr	w2, [x2, #2776]
   1778c:	91218000 	add	x0, x0, #0x860
   17790:	b90d8065 	str	w5, [x3, #3456]
   17794:	2a0203e1 	mov	w1, w2
   17798:	a900fe64 	stp	x4, xzr, [x19, #8]
   1779c:	b9001a62 	str	w2, [x19, #24]
   177a0:	94000db0 	bl	1ae60 <tf_log>
   177a4:	f9000693 	str	x19, [x20, #8]
   177a8:	52800000 	mov	w0, #0x0                   	// #0
   177ac:	a94153f3 	ldp	x19, x20, [sp, #16]
   177b0:	a8c27bfd 	ldp	x29, x30, [sp], #32
   177b4:	d65f03c0 	ret
   177b8:	12801040 	mov	w0, #0xffffff7d            	// #-131
   177bc:	d65f03c0 	ret

00000000000177c0 <sddrv_block_read>:
   177c0:	d109c3ff 	sub	sp, sp, #0x270
   177c4:	aa0203e5 	mov	x5, x2
   177c8:	a9007bfd 	stp	x29, x30, [sp]
   177cc:	910003fd 	mov	x29, sp
   177d0:	a9046bf9 	stp	x25, x26, [sp, #64]
   177d4:	f940041a 	ldr	x26, [x0, #8]
   177d8:	a90153f3 	stp	x19, x20, [sp, #16]
   177dc:	b0000020 	adrp	x0, 1c000 <vprintf+0x418>
   177e0:	a9025bf5 	stp	x21, x22, [sp, #32]
   177e4:	aa0303f5 	mov	x21, x3
   177e8:	911f0000 	add	x0, x0, #0x7c0
   177ec:	a9408f53 	ldp	x19, x3, [x26, #8]
   177f0:	a90363f7 	stp	x23, x24, [sp, #48]
   177f4:	d1000458 	sub	x24, x2, #0x1
   177f8:	a90573fb 	stp	x27, x28, [sp, #80]
   177fc:	aa0203fb 	mov	x27, x2
   17800:	b9401b42 	ldr	w2, [x26, #24]
   17804:	aa0103f6 	mov	x22, x1
   17808:	d2800014 	mov	x20, #0x0                   	// #0
   1780c:	8b030273 	add	x19, x19, x3
   17810:	8b130318 	add	x24, x24, x19
   17814:	aa1303e3 	mov	x3, x19
   17818:	d349fe73 	lsr	x19, x19, #9
   1781c:	d349ff18 	lsr	x24, x24, #9
   17820:	2a1303e4 	mov	w4, w19
   17824:	4b130319 	sub	w25, w24, w19
   17828:	2a1303f7 	mov	w23, w19
   1782c:	1100073c 	add	w28, w25, #0x1
   17830:	2a1c03e6 	mov	w6, w28
   17834:	94000d8b 	bl	1ae60 <tf_log>
   17838:	a9408342 	ldp	x2, x0, [x26, #8]
   1783c:	0b000042 	add	w2, w2, w0
   17840:	72002043 	ands	w3, w2, #0x1ff
   17844:	54000561 	b.ne	178f0 <sddrv_block_read+0x130>  // b.any
   17848:	0b1b0042 	add	w2, w2, w27
   1784c:	7100039f 	cmp	w28, #0x0
   17850:	12002053 	and	w19, w2, #0x1ff
   17854:	7a401a64 	ccmp	w19, #0x0, #0x4, ne  // ne = any
   17858:	540001e1 	b.ne	17894 <sddrv_block_read+0xd4>  // b.any
   1785c:	350003dc 	cbnz	w28, 178d4 <sddrv_block_read+0x114>
   17860:	f9400b41 	ldr	x1, [x26, #16]
   17864:	f90002bb 	str	x27, [x21]
   17868:	52800000 	mov	w0, #0x0                   	// #0
   1786c:	8b1b003b 	add	x27, x1, x27
   17870:	f9000b5b 	str	x27, [x26, #16]
   17874:	a9407bfd 	ldp	x29, x30, [sp]
   17878:	a94153f3 	ldp	x19, x20, [sp, #16]
   1787c:	a9425bf5 	ldp	x21, x22, [sp, #32]
   17880:	a94363f7 	ldp	x23, x24, [sp, #48]
   17884:	a9446bf9 	ldp	x25, x26, [sp, #64]
   17888:	a94573fb 	ldp	x27, x28, [sp, #80]
   1788c:	9109c3ff 	add	sp, sp, #0x270
   17890:	d65f03c0 	ret
   17894:	d2804002 	mov	x2, #0x200                 	// #512
   17898:	52800001 	mov	w1, #0x0                   	// #0
   1789c:	9101c3e0 	add	x0, sp, #0x70
   178a0:	94001074 	bl	1ba70 <memset>
   178a4:	2a1803e1 	mov	w1, w24
   178a8:	9101c3e0 	add	x0, sp, #0x70
   178ac:	52800022 	mov	w2, #0x1                   	// #1
   178b0:	94000826 	bl	19948 <esd_read_sect>
   178b4:	350001a0 	cbnz	w0, 178e8 <sddrv_block_read+0x128>
   178b8:	2a1303e2 	mov	w2, w19
   178bc:	8b160360 	add	x0, x27, x22
   178c0:	5100079c 	sub	w28, w28, #0x1
   178c4:	9101c3e1 	add	x1, sp, #0x70
   178c8:	cb020000 	sub	x0, x0, x2
   178cc:	9400104d 	bl	1ba00 <memcpy>
   178d0:	34fffc9c 	cbz	w28, 17860 <sddrv_block_read+0xa0>
   178d4:	2a1c03e2 	mov	w2, w28
   178d8:	2a1703e1 	mov	w1, w23
   178dc:	8b160280 	add	x0, x20, x22
   178e0:	9400081a 	bl	19948 <esd_read_sect>
   178e4:	34fffbe0 	cbz	w0, 17860 <sddrv_block_read+0xa0>
   178e8:	12801000 	mov	w0, #0xffffff7f            	// #-129
   178ec:	17ffffe2 	b	17874 <sddrv_block_read+0xb4>
   178f0:	d2804002 	mov	x2, #0x200                 	// #512
   178f4:	52800001 	mov	w1, #0x0                   	// #0
   178f8:	9101c3e0 	add	x0, sp, #0x70
   178fc:	b9006fe3 	str	w3, [sp, #108]
   17900:	9400105c 	bl	1ba70 <memset>
   17904:	9101c3e0 	add	x0, sp, #0x70
   17908:	52800022 	mov	w2, #0x1                   	// #1
   1790c:	2a1303e1 	mov	w1, w19
   17910:	9400080e 	bl	19948 <esd_read_sect>
   17914:	b9406fe3 	ldr	w3, [sp, #108]
   17918:	35fffe80 	cbnz	w0, 178e8 <sddrv_block_read+0x128>
   1791c:	52804014 	mov	w20, #0x200                 	// #512
   17920:	4b030294 	sub	w20, w20, w3
   17924:	eb14037f 	cmp	x27, x20
   17928:	2a0303e1 	mov	w1, w3
   1792c:	9a949374 	csel	x20, x27, x20, ls  // ls = plast
   17930:	9101c3e0 	add	x0, sp, #0x70
   17934:	8b010001 	add	x1, x0, x1
   17938:	aa1403e2 	mov	x2, x20
   1793c:	aa1603e0 	mov	x0, x22
   17940:	94001030 	bl	1ba00 <memcpy>
   17944:	a9408342 	ldp	x2, x0, [x26, #8]
   17948:	11000677 	add	w23, w19, #0x1
   1794c:	2a1903fc 	mov	w28, w25
   17950:	0b000042 	add	w2, w2, w0
   17954:	17ffffbd 	b	17848 <sddrv_block_read+0x88>

0000000000017958 <register_io_dev_sddrv>:
   17958:	a9be7bfd 	stp	x29, x30, [sp, #-32]!
   1795c:	910003fd 	mov	x29, sp
   17960:	f9000bf3 	str	x19, [sp, #16]
   17964:	aa0003f3 	mov	x19, x0
   17968:	b0000020 	adrp	x0, 1c000 <vprintf+0x418>
   1796c:	91236000 	add	x0, x0, #0x8d8
   17970:	97ffee32 	bl	13238 <io_register_device>
   17974:	35000080 	cbnz	w0, 17984 <register_io_dev_sddrv+0x2c>
   17978:	b0000021 	adrp	x1, 1c000 <vprintf+0x418>
   1797c:	91222021 	add	x1, x1, #0x888
   17980:	f9000261 	str	x1, [x19]
   17984:	f9400bf3 	ldr	x19, [sp, #16]
   17988:	a8c27bfd 	ldp	x29, x30, [sp], #32
   1798c:	d65f03c0 	ret

0000000000017990 <pfc_setup>:
   17990:	d2860282 	mov	x2, #0x3014                	// #12308
   17994:	52800807 	mov	w7, #0x40                  	// #64
   17998:	f2a22062 	movk	x2, #0x1103, lsl #16
   1799c:	b0000020 	adrp	x0, 1c000 <vprintf+0x418>
   179a0:	52800021 	mov	w1, #0x1                   	// #1
   179a4:	9123a000 	add	x0, x0, #0x8e8
   179a8:	b900005f 	str	wzr, [x2]
   179ac:	2a0103e6 	mov	w6, w1
   179b0:	b9000047 	str	w7, [x2]
   179b4:	91090008 	add	x8, x0, #0x240
   179b8:	52800005 	mov	w5, #0x0                   	// #0
   179bc:	52800004 	mov	w4, #0x0                   	// #0
   179c0:	52800003 	mov	w3, #0x0                   	// #0
   179c4:	710004df 	cmp	w6, #0x1
   179c8:	54000081 	b.ne	179d8 <pfc_setup+0x48>  // b.any
   179cc:	f9400402 	ldr	x2, [x0, #8]
   179d0:	39404006 	ldrb	w6, [x0, #16]
   179d4:	39000046 	strb	w6, [x2]
   179d8:	7100043f 	cmp	w1, #0x1
   179dc:	54000081 	b.ne	179ec <pfc_setup+0x5c>  // b.any
   179e0:	f9401001 	ldr	x1, [x0, #32]
   179e4:	b9402802 	ldr	w2, [x0, #40]
   179e8:	b9000022 	str	w2, [x1]
   179ec:	7100047f 	cmp	w3, #0x1
   179f0:	54000061 	b.ne	179fc <pfc_setup+0x6c>  // b.any
   179f4:	a9438801 	ldp	x1, x2, [x0, #56]
   179f8:	f9000022 	str	x2, [x1]
   179fc:	7100049f 	cmp	w4, #0x1
   17a00:	54000061 	b.ne	17a0c <pfc_setup+0x7c>  // b.any
   17a04:	a9450801 	ldp	x1, x2, [x0, #80]
   17a08:	f9000022 	str	x2, [x1]
   17a0c:	710004bf 	cmp	w5, #0x1
   17a10:	54000061 	b.ne	17a1c <pfc_setup+0x8c>  // b.any
   17a14:	a9468801 	ldp	x1, x2, [x0, #104]
   17a18:	f9000022 	str	x2, [x1]
   17a1c:	91024000 	add	x0, x0, #0x90
   17a20:	eb00011f 	cmp	x8, x0
   17a24:	54000120 	b.eq	17a48 <pfc_setup+0xb8>  // b.none
   17a28:	b9400006 	ldr	w6, [x0]
   17a2c:	b9401801 	ldr	w1, [x0, #24]
   17a30:	b9403003 	ldr	w3, [x0, #48]
   17a34:	710004df 	cmp	w6, #0x1
   17a38:	b9404804 	ldr	w4, [x0, #72]
   17a3c:	b9406005 	ldr	w5, [x0, #96]
   17a40:	54fffcc1 	b.ne	179d8 <pfc_setup+0x48>  // b.any
   17a44:	17ffffe2 	b	179cc <pfc_setup+0x3c>
   17a48:	d2860280 	mov	x0, #0x3014                	// #12308
   17a4c:	d2820a02 	mov	x2, #0x1050                	// #4176
   17a50:	f2a22060 	movk	x0, #0x1103, lsl #16
   17a54:	f2a22062 	movk	x2, #0x1103, lsl #16
   17a58:	52801003 	mov	w3, #0x80                  	// #128
   17a5c:	d2838a04 	mov	x4, #0x1c50                	// #7248
   17a60:	b900001f 	str	wzr, [x0]
   17a64:	f2a22064 	movk	x4, #0x1103, lsl #16
   17a68:	3207c3e1 	mov	w1, #0x2020202             	// #33686018
   17a6c:	b9000003 	str	w3, [x0]
   17a70:	d2828a03 	mov	x3, #0x1450                	// #5200
   17a74:	f2c04041 	movk	x1, #0x202, lsl #32
   17a78:	f2a22063 	movk	x3, #0x1103, lsl #16
   17a7c:	f9000041 	str	x1, [x2]
   17a80:	3200c3e0 	mov	w0, #0x1010101             	// #16843009
   17a84:	f900009f 	str	xzr, [x4]
   17a88:	f2c02020 	movk	x0, #0x101, lsl #32
   17a8c:	f9000060 	str	x0, [x3]
   17a90:	f9000441 	str	x1, [x2, #8]
   17a94:	d2838c01 	mov	x1, #0x1c60                	// #7264
   17a98:	f900049f 	str	xzr, [x4, #8]
   17a9c:	f2a22061 	movk	x1, #0x1103, lsl #16
   17aa0:	f9000460 	str	x0, [x3, #8]
   17aa4:	d2804040 	mov	x0, #0x202                 	// #514
   17aa8:	f2a00040 	movk	x0, #0x2, lsl #16
   17aac:	d2860009 	mov	x9, #0x3000                	// #12288
   17ab0:	f9000840 	str	x0, [x2, #16]
   17ab4:	f2a22069 	movk	x9, #0x1103, lsl #16
   17ab8:	d2860088 	mov	x8, #0x3004                	// #12292
   17abc:	f900003f 	str	xzr, [x1]
   17ac0:	d2a00024 	mov	x4, #0x10000               	// #65536
   17ac4:	f2a22068 	movk	x8, #0x1103, lsl #16
   17ac8:	f9000864 	str	x4, [x3, #16]
   17acc:	52800022 	mov	w2, #0x1                   	// #1
   17ad0:	b9000122 	str	w2, [x9]
   17ad4:	b0000020 	adrp	x0, 1c000 <vprintf+0x418>
   17ad8:	b900011f 	str	wzr, [x8]
   17adc:	912ca000 	add	x0, x0, #0xb28
   17ae0:	2a0203e3 	mov	w3, w2
   17ae4:	9109000a 	add	x10, x0, #0x240
   17ae8:	2a0203e1 	mov	w1, w2
   17aec:	2a0203e7 	mov	w7, w2
   17af0:	2a0203e6 	mov	w6, w2
   17af4:	2a0203e5 	mov	w5, w2
   17af8:	2a0203e4 	mov	w4, w2
   17afc:	7100047f 	cmp	w3, #0x1
   17b00:	54000081 	b.ne	17b10 <pfc_setup+0x180>  // b.any
   17b04:	f9400402 	ldr	x2, [x0, #8]
   17b08:	39404003 	ldrb	w3, [x0, #16]
   17b0c:	39000043 	strb	w3, [x2]
   17b10:	7100049f 	cmp	w4, #0x1
   17b14:	54000081 	b.ne	17b24 <pfc_setup+0x194>  // b.any
   17b18:	f9401002 	ldr	x2, [x0, #32]
   17b1c:	b9402803 	ldr	w3, [x0, #40]
   17b20:	b9000043 	str	w3, [x2]
   17b24:	710004bf 	cmp	w5, #0x1
   17b28:	54000061 	b.ne	17b34 <pfc_setup+0x1a4>  // b.any
   17b2c:	a9438c02 	ldp	x2, x3, [x0, #56]
   17b30:	f9000043 	str	x3, [x2]
   17b34:	710004df 	cmp	w6, #0x1
   17b38:	54000061 	b.ne	17b44 <pfc_setup+0x1b4>  // b.any
   17b3c:	a9450c02 	ldp	x2, x3, [x0, #80]
   17b40:	f9000043 	str	x3, [x2]
   17b44:	710004ff 	cmp	w7, #0x1
   17b48:	54000061 	b.ne	17b54 <pfc_setup+0x1c4>  // b.any
   17b4c:	a9468c02 	ldp	x2, x3, [x0, #104]
   17b50:	f9000043 	str	x3, [x2]
   17b54:	7100043f 	cmp	w1, #0x1
   17b58:	54000061 	b.ne	17b64 <pfc_setup+0x1d4>  // b.any
   17b5c:	a9480801 	ldp	x1, x2, [x0, #128]
   17b60:	f9000022 	str	x2, [x1]
   17b64:	91024000 	add	x0, x0, #0x90
   17b68:	eb0a001f 	cmp	x0, x10
   17b6c:	54000140 	b.eq	17b94 <pfc_setup+0x204>  // b.none
   17b70:	b9400003 	ldr	w3, [x0]
   17b74:	b9401804 	ldr	w4, [x0, #24]
   17b78:	b9403005 	ldr	w5, [x0, #48]
   17b7c:	7100047f 	cmp	w3, #0x1
   17b80:	b9404806 	ldr	w6, [x0, #72]
   17b84:	b9406007 	ldr	w7, [x0, #96]
   17b88:	b9407801 	ldr	w1, [x0, #120]
   17b8c:	54fffc21 	b.ne	17b10 <pfc_setup+0x180>  // b.any
   17b90:	17ffffdd 	b	17b04 <pfc_setup+0x174>
   17b94:	d65f03c0 	ret

0000000000017b98 <esddev_init>:
   17b98:	52800000 	mov	w0, #0x0                   	// #0
   17b9c:	d65f03c0 	ret

0000000000017ba0 <esddev_power_on>:
   17ba0:	52800000 	mov	w0, #0x0                   	// #0
   17ba4:	d65f03c0 	ret

0000000000017ba8 <esddev_write_data>:
   17ba8:	52800000 	mov	w0, #0x0                   	// #0
   17bac:	d65f03c0 	ret

0000000000017bb0 <esddev_get_clockdiv>:
   17bb0:	7100181f 	cmp	w0, #0x6
   17bb4:	540000a8 	b.hi	17bc8 <esddev_get_clockdiv+0x18>  // b.pmore
   17bb8:	b0000021 	adrp	x1, 1c000 <vprintf+0x418>
   17bbc:	9135a021 	add	x1, x1, #0xd68
   17bc0:	b8605820 	ldr	w0, [x1, w0, uxtw #2]
   17bc4:	d65f03c0 	ret
   17bc8:	52801000 	mov	w0, #0x80                  	// #128
   17bcc:	d65f03c0 	ret

0000000000017bd0 <esddev_set_port>:
   17bd0:	52800000 	mov	w0, #0x0                   	// #0
   17bd4:	d65f03c0 	ret

0000000000017bd8 <esddev_int_wait>:
   17bd8:	7100001f 	cmp	w0, #0x0
   17bdc:	5400030d 	b.le	17c3c <esddev_int_wait+0x64>
   17be0:	a9be7bfd 	stp	x29, x30, [sp, #-32]!
   17be4:	910003fd 	mov	x29, sp
   17be8:	a90153f3 	stp	x19, x20, [sp, #16]
   17bec:	2a0003f4 	mov	w20, w0
   17bf0:	52800013 	mov	w19, #0x0                   	// #0
   17bf4:	14000004 	b	17c04 <esddev_int_wait+0x2c>
   17bf8:	97ffebc8 	bl	12b18 <udelay>
   17bfc:	6b13029f 	cmp	w20, w19
   17c00:	54000140 	b.eq	17c28 <esddev_int_wait+0x50>  // b.none
   17c04:	94000433 	bl	18cd0 <esd_check_int>
   17c08:	11000673 	add	w19, w19, #0x1
   17c0c:	2a0003e1 	mov	w1, w0
   17c10:	52807d00 	mov	w0, #0x3e8                 	// #1000
   17c14:	35ffff21 	cbnz	w1, 17bf8 <esddev_int_wait+0x20>
   17c18:	2a0103e0 	mov	w0, w1
   17c1c:	a94153f3 	ldp	x19, x20, [sp, #16]
   17c20:	a8c27bfd 	ldp	x29, x30, [sp], #32
   17c24:	d65f03c0 	ret
   17c28:	12800001 	mov	w1, #0xffffffff            	// #-1
   17c2c:	2a0103e0 	mov	w0, w1
   17c30:	a94153f3 	ldp	x19, x20, [sp, #16]
   17c34:	a8c27bfd 	ldp	x29, x30, [sp], #32
   17c38:	d65f03c0 	ret
   17c3c:	12800001 	mov	w1, #0xffffffff            	// #-1
   17c40:	2a0103e0 	mov	w0, w1
   17c44:	d65f03c0 	ret

0000000000017c48 <esddev_loc_cpu>:
   17c48:	52800000 	mov	w0, #0x0                   	// #0
   17c4c:	d65f03c0 	ret

0000000000017c50 <esddev_unl_cpu>:
   17c50:	52800000 	mov	w0, #0x0                   	// #0
   17c54:	d65f03c0 	ret

0000000000017c58 <esddev_init_dma>:
   17c58:	12800000 	mov	w0, #0xffffffff            	// #-1
   17c5c:	d65f03c0 	ret

0000000000017c60 <esddev_wait_dma_end>:
   17c60:	12800000 	mov	w0, #0xffffffff            	// #-1
   17c64:	d65f03c0 	ret

0000000000017c68 <esddev_disable_dma>:
   17c68:	12800000 	mov	w0, #0xffffffff            	// #-1
   17c6c:	d65f03c0 	ret

0000000000017c70 <esddev_read_data>:
   17c70:	11000c42 	add	w2, w2, #0x3
   17c74:	f240041f 	tst	x0, #0x3
   17c78:	53027c42 	lsr	w2, w2, #2
   17c7c:	54000161 	b.ne	17ca8 <esddev_read_data+0x38>  // b.any
   17c80:	34000102 	cbz	w2, 17ca0 <esddev_read_data+0x30>
   17c84:	51000442 	sub	w2, w2, #0x1
   17c88:	91000442 	add	x2, x2, #0x1
   17c8c:	8b020802 	add	x2, x0, x2, lsl #2
   17c90:	b9400023 	ldr	w3, [x1]
   17c94:	b8004403 	str	w3, [x0], #4
   17c98:	eb02001f 	cmp	x0, x2
   17c9c:	54ffffa1 	b.ne	17c90 <esddev_read_data+0x20>  // b.any
   17ca0:	52800000 	mov	w0, #0x0                   	// #0
   17ca4:	d65f03c0 	ret
   17ca8:	34ffffc2 	cbz	w2, 17ca0 <esddev_read_data+0x30>
   17cac:	51000443 	sub	w3, w2, #0x1
   17cb0:	91000463 	add	x3, x3, #0x1
   17cb4:	8b030803 	add	x3, x0, x3, lsl #2
   17cb8:	b9400022 	ldr	w2, [x1]
   17cbc:	91001000 	add	x0, x0, #0x4
   17cc0:	381fc002 	sturb	w2, [x0, #-4]
   17cc4:	53087c45 	lsr	w5, w2, #8
   17cc8:	53107c44 	lsr	w4, w2, #16
   17ccc:	381fd005 	sturb	w5, [x0, #-3]
   17cd0:	53187c42 	lsr	w2, w2, #24
   17cd4:	381fe004 	sturb	w4, [x0, #-2]
   17cd8:	eb03001f 	cmp	x0, x3
   17cdc:	381ff002 	sturb	w2, [x0, #-1]
   17ce0:	54fffec1 	b.ne	17cb8 <esddev_read_data+0x48>  // b.any
   17ce4:	52800000 	mov	w0, #0x0                   	// #0
   17ce8:	d65f03c0 	ret
   17cec:	00000000 	.inst	0x00000000 ; undefined

0000000000017cf0 <esd_check_media>:
   17cf0:	d0000041 	adrp	x1, 21000 <sd_drv_work_area+0x58>
   17cf4:	b0000040 	adrp	x0, 20000 <__STACKS_START__+0x700>
   17cf8:	91368000 	add	x0, x0, #0xda0
   17cfc:	b9844c21 	ldrsw	x1, [x1, #1100]
   17d00:	f8617800 	ldr	x0, [x0, x1, lsl #3]
   17d04:	f100001f 	cmp	x0, #0x0
   17d08:	5a9f13e0 	csetm	w0, eq  // eq = none
   17d0c:	d65f03c0 	ret

0000000000017d10 <_sd_check_media>:
   17d10:	52800000 	mov	w0, #0x0                   	// #0
   17d14:	d65f03c0 	ret

0000000000017d18 <_sd_get_ext_cd_int>:
   17d18:	39411402 	ldrb	w2, [x0, #69]
   17d1c:	34000662 	cbz	w2, 17de8 <_sd_get_ext_cd_int+0xd0>
   17d20:	d2807e01 	mov	x1, #0x3f0                 	// #1008
   17d24:	d2807c05 	mov	x5, #0x3e0                 	// #992
   17d28:	f2a23801 	movk	x1, #0x11c0, lsl #16
   17d2c:	f2a23805 	movk	x5, #0x11c0, lsl #16
   17d30:	51000442 	sub	w2, w2, #0x1
   17d34:	52800104 	mov	w4, #0x8                   	// #8
   17d38:	f9400021 	ldr	x1, [x1]
   17d3c:	0b020442 	add	w2, w2, w2, lsl #1
   17d40:	f94000a6 	ldr	x6, [x5]
   17d44:	2a2103e1 	mvn	w1, w1
   17d48:	12003c21 	and	w1, w1, #0xffff
   17d4c:	12003c43 	and	w3, w2, #0xffff
   17d50:	0a060021 	and	w1, w1, w6
   17d54:	2a2103e2 	mvn	w2, w1
   17d58:	92403c42 	and	x2, x2, #0xffff
   17d5c:	f90000a2 	str	x2, [x5]
   17d60:	1ac32821 	asr	w1, w1, w3
   17d64:	360003c1 	tbz	w1, #0, 17ddc <_sd_get_ext_cd_int+0xc4>
   17d68:	d2807f01 	mov	x1, #0x3f8                 	// #1016
   17d6c:	d2807d05 	mov	x5, #0x3e8                 	// #1000
   17d70:	f2a23801 	movk	x1, #0x11c0, lsl #16
   17d74:	f2a23805 	movk	x5, #0x11c0, lsl #16
   17d78:	f9400022 	ldr	x2, [x1]
   17d7c:	f94000a1 	ldr	x1, [x5]
   17d80:	2a2203e2 	mvn	w2, w2
   17d84:	12003c42 	and	w2, w2, #0xffff
   17d88:	0a010042 	and	w2, w2, w1
   17d8c:	2a2203e1 	mvn	w1, w2
   17d90:	92403c21 	and	x1, x1, #0xffff
   17d94:	f90000a1 	str	x1, [x5]
   17d98:	1ac32842 	asr	w2, w2, w3
   17d9c:	370001a2 	tbnz	w2, #0, 17dd0 <_sd_get_ext_cd_int+0xb8>
   17da0:	32170081 	orr	w1, w4, #0x200
   17da4:	f27f005f 	tst	x2, #0x2
   17da8:	12003c21 	and	w1, w1, #0xffff
   17dac:	1a841024 	csel	w4, w1, w4, ne  // ne = any
   17db0:	79404c01 	ldrh	w1, [x0, #38]
   17db4:	12806303 	mov	w3, #0xfffffce7            	// #-793
   17db8:	2a0403e2 	mov	w2, w4
   17dbc:	0a030021 	and	w1, w1, w3
   17dc0:	2a010081 	orr	w1, w4, w1
   17dc4:	79004c01 	strh	w1, [x0, #38]
   17dc8:	2a0203e0 	mov	w0, w2
   17dcc:	d65f03c0 	ret
   17dd0:	32180081 	orr	w1, w4, #0x100
   17dd4:	12003c24 	and	w4, w1, #0xffff
   17dd8:	17fffff6 	b	17db0 <_sd_get_ext_cd_int+0x98>
   17ddc:	d3410421 	ubfx	x1, x1, #1, #1
   17de0:	531c6c24 	lsl	w4, w1, #4
   17de4:	17ffffe1 	b	17d68 <_sd_get_ext_cd_int+0x50>
   17de8:	12800002 	mov	w2, #0xffffffff            	// #-1
   17dec:	17fffff7 	b	17dc8 <_sd_get_ext_cd_int+0xb0>

0000000000017df0 <_sd_set_arg>:
   17df0:	d2800203 	mov	x3, #0x10                  	// #16
   17df4:	d2800300 	mov	x0, #0x18                  	// #24
   17df8:	f2a23803 	movk	x3, #0x11c0, lsl #16
   17dfc:	f2a23800 	movk	x0, #0x11c0, lsl #16
   17e00:	92403c42 	and	x2, x2, #0xffff
   17e04:	92403c21 	and	x1, x1, #0xffff
   17e08:	f9000062 	str	x2, [x3]
   17e0c:	f9000001 	str	x1, [x0]
   17e10:	d65f03c0 	ret
   17e14:	00000000 	.inst	0x00000000 ; undefined

0000000000017e18 <_sd_check_resp_error>:
   17e18:	a9be7bfd 	stp	x29, x30, [sp, #-32]!
   17e1c:	910003fd 	mov	x29, sp
   17e20:	a90153f3 	stp	x19, x20, [sp, #16]
   17e24:	aa0003f3 	mov	x19, x0
   17e28:	39408401 	ldrb	w1, [x0, #33]
   17e2c:	b9406800 	ldr	w0, [x0, #104]
   17e30:	7100043f 	cmp	w1, #0x1
   17e34:	540001c0 	b.eq	17e6c <_sd_check_resp_error+0x54>  // b.none
   17e38:	13107c00 	asr	w0, w0, #16
   17e3c:	121d7400 	and	w0, w0, #0xfffffff9
   17e40:	940009e8 	bl	1a5e0 <_sd_bit_search>
   17e44:	2a0003f4 	mov	w20, w0
   17e48:	3100041f 	cmn	w0, #0x1
   17e4c:	54000281 	b.ne	17e9c <_sd_check_resp_error+0x84>  // b.any
   17e50:	b9406a60 	ldr	w0, [x19, #104]
   17e54:	37180320 	tbnz	w0, #3, 17eb8 <_sd_check_resp_error+0xa0>
   17e58:	52800014 	mov	w20, #0x0                   	// #0
   17e5c:	2a1403e0 	mov	w0, w20
   17e60:	a94153f3 	ldp	x19, x20, [sp, #16]
   17e64:	a8c27bfd 	ldp	x29, x30, [sp], #32
   17e68:	d65f03c0 	ret
   17e6c:	121d7400 	and	w0, w0, #0xfffffff9
   17e70:	940009dc 	bl	1a5e0 <_sd_bit_search>
   17e74:	b0000021 	adrp	x1, 1c000 <vprintf+0x418>
   17e78:	91362021 	add	x1, x1, #0xd88
   17e7c:	52800014 	mov	w20, #0x0                   	// #0
   17e80:	b860d821 	ldr	w1, [x1, w0, sxtw #2]
   17e84:	aa1303e0 	mov	x0, x19
   17e88:	940009de 	bl	1a600 <_sd_set_err>
   17e8c:	2a1403e0 	mov	w0, w20
   17e90:	a94153f3 	ldp	x19, x20, [sp, #16]
   17e94:	a8c27bfd 	ldp	x29, x30, [sp], #32
   17e98:	d65f03c0 	ret
   17e9c:	b0000021 	adrp	x1, 1c000 <vprintf+0x418>
   17ea0:	9137a021 	add	x1, x1, #0xde8
   17ea4:	aa1303e0 	mov	x0, x19
   17ea8:	b874d821 	ldr	w1, [x1, w20, sxtw #2]
   17eac:	12800014 	mov	w20, #0xffffffff            	// #-1
   17eb0:	940009d4 	bl	1a600 <_sd_set_err>
   17eb4:	17ffffea 	b	17e5c <_sd_check_resp_error+0x44>
   17eb8:	aa1303e0 	mov	x0, x19
   17ebc:	12800281 	mov	w1, #0xffffffeb            	// #-21
   17ec0:	940009d0 	bl	1a600 <_sd_set_err>
   17ec4:	17ffffe6 	b	17e5c <_sd_check_resp_error+0x44>

0000000000017ec8 <_sd_get_resp>:
   17ec8:	aa0003e2 	mov	x2, x0
   17ecc:	7100143f 	cmp	w1, #0x5
   17ed0:	54000e00 	b.eq	18090 <_sd_get_resp+0x1c8>  // b.none
   17ed4:	5400042d 	b.le	17f58 <_sd_get_resp+0x90>
   17ed8:	7100203f 	cmp	w1, #0x8
   17edc:	540011e0 	b.eq	18118 <_sd_get_resp+0x250>  // b.none
   17ee0:	5400020c 	b.gt	17f20 <_sd_get_resp+0x58>
   17ee4:	7100183f 	cmp	w1, #0x6
   17ee8:	540012c0 	b.eq	18140 <_sd_get_resp+0x278>  // b.none
   17eec:	71001c3f 	cmp	w1, #0x7
   17ef0:	540003e1 	b.ne	17f6c <_sd_get_resp+0xa4>  // b.any
   17ef4:	d2800703 	mov	x3, #0x38                  	// #56
   17ef8:	d2800600 	mov	x0, #0x30                  	// #48
   17efc:	f2a23803 	movk	x3, #0x11c0, lsl #16
   17f00:	f2a23800 	movk	x0, #0x11c0, lsl #16
   17f04:	52800001 	mov	w1, #0x0                   	// #0
   17f08:	f9400063 	ldr	x3, [x3]
   17f0c:	79013843 	strh	w3, [x2, #156]
   17f10:	f9400000 	ldr	x0, [x0]
   17f14:	79013c40 	strh	w0, [x2, #158]
   17f18:	2a0103e0 	mov	w0, w1
   17f1c:	d65f03c0 	ret
   17f20:	7100243f 	cmp	w1, #0x9
   17f24:	540007a0 	b.eq	18018 <_sd_get_resp+0x150>  // b.none
   17f28:	7100283f 	cmp	w1, #0xa
   17f2c:	54000201 	b.ne	17f6c <_sd_get_resp+0xa4>  // b.any
   17f30:	d2800703 	mov	x3, #0x38                  	// #56
   17f34:	d2800600 	mov	x0, #0x30                  	// #48
   17f38:	f2a23803 	movk	x3, #0x11c0, lsl #16
   17f3c:	f2a23800 	movk	x0, #0x11c0, lsl #16
   17f40:	52800001 	mov	w1, #0x0                   	// #0
   17f44:	f9400063 	ldr	x3, [x3]
   17f48:	7900e843 	strh	w3, [x2, #116]
   17f4c:	f9400000 	ldr	x0, [x0]
   17f50:	7900ec40 	strh	w0, [x2, #118]
   17f54:	17fffff1 	b	17f18 <_sd_get_resp+0x50>
   17f58:	7100083f 	cmp	w1, #0x2
   17f5c:	5400012c 	b.gt	17f80 <_sd_get_resp+0xb8>
   17f60:	7100003f 	cmp	w1, #0x0
   17f64:	5400076c 	b.gt	18050 <_sd_get_resp+0x188>
   17f68:	54fffd80 	b.eq	17f18 <_sd_get_resp+0x50>  // b.none
   17f6c:	12800c40 	mov	w0, #0xffffff9d            	// #-99
   17f70:	12800001 	mov	w1, #0xffffffff            	// #-1
   17f74:	b9003840 	str	w0, [x2, #56]
   17f78:	b900685f 	str	wzr, [x2, #104]
   17f7c:	17ffffe7 	b	17f18 <_sd_get_resp+0x50>
   17f80:	71000c3f 	cmp	w1, #0x3
   17f84:	54000720 	b.eq	18068 <_sd_get_resp+0x1a0>  // b.none
   17f88:	7100103f 	cmp	w1, #0x4
   17f8c:	54ffff01 	b.ne	17f6c <_sd_get_resp+0xa4>  // b.any
   17f90:	d2800d01 	mov	x1, #0x68                  	// #104
   17f94:	d2800c08 	mov	x8, #0x60                  	// #96
   17f98:	d2800b07 	mov	x7, #0x58                  	// #88
   17f9c:	d2800a06 	mov	x6, #0x50                  	// #80
   17fa0:	d2800905 	mov	x5, #0x48                  	// #72
   17fa4:	d2800804 	mov	x4, #0x40                  	// #64
   17fa8:	d2800703 	mov	x3, #0x38                  	// #56
   17fac:	d2800600 	mov	x0, #0x30                  	// #48
   17fb0:	f2a23801 	movk	x1, #0x11c0, lsl #16
   17fb4:	f2a23808 	movk	x8, #0x11c0, lsl #16
   17fb8:	f2a23807 	movk	x7, #0x11c0, lsl #16
   17fbc:	f2a23806 	movk	x6, #0x11c0, lsl #16
   17fc0:	f2a23805 	movk	x5, #0x11c0, lsl #16
   17fc4:	f2a23804 	movk	x4, #0x11c0, lsl #16
   17fc8:	f2a23803 	movk	x3, #0x11c0, lsl #16
   17fcc:	f2a23800 	movk	x0, #0x11c0, lsl #16
   17fd0:	f9400029 	ldr	x9, [x1]
   17fd4:	52800001 	mov	w1, #0x0                   	// #0
   17fd8:	f9400108 	ldr	x8, [x8]
   17fdc:	7900f049 	strh	w9, [x2, #120]
   17fe0:	f94000e7 	ldr	x7, [x7]
   17fe4:	7900f448 	strh	w8, [x2, #122]
   17fe8:	f94000c6 	ldr	x6, [x6]
   17fec:	7900f847 	strh	w7, [x2, #124]
   17ff0:	f94000a5 	ldr	x5, [x5]
   17ff4:	7900fc46 	strh	w6, [x2, #126]
   17ff8:	f9400084 	ldr	x4, [x4]
   17ffc:	79010045 	strh	w5, [x2, #128]
   18000:	f9400063 	ldr	x3, [x3]
   18004:	79010444 	strh	w4, [x2, #130]
   18008:	f9400000 	ldr	x0, [x0]
   1800c:	79010843 	strh	w3, [x2, #132]
   18010:	79010c40 	strh	w0, [x2, #134]
   18014:	17ffffc1 	b	17f18 <_sd_get_resp+0x50>
   18018:	d2800701 	mov	x1, #0x38                  	// #56
   1801c:	d2800604 	mov	x4, #0x30                  	// #48
   18020:	f2a23801 	movk	x1, #0x11c0, lsl #16
   18024:	f2a23804 	movk	x4, #0x11c0, lsl #16
   18028:	52996003 	mov	w3, #0xcb00                	// #51968
   1802c:	f9400021 	ldr	x1, [x1]
   18030:	f9400084 	ldr	x4, [x4]
   18034:	2a014081 	orr	w1, w4, w1, lsl #16
   18038:	b9006841 	str	w1, [x2, #104]
   1803c:	6a03003f 	tst	w1, w3
   18040:	54000941 	b.ne	18168 <_sd_get_resp+0x2a0>  // b.any
   18044:	52800001 	mov	w1, #0x0                   	// #0
   18048:	2a0103e0 	mov	w0, w1
   1804c:	d65f03c0 	ret
   18050:	d2800701 	mov	x1, #0x38                  	// #56
   18054:	d2800604 	mov	x4, #0x30                  	// #48
   18058:	f2a23801 	movk	x1, #0x11c0, lsl #16
   1805c:	f2a23804 	movk	x4, #0x11c0, lsl #16
   18060:	1283fee3 	mov	w3, #0xffffe008            	// #-8184
   18064:	17fffff2 	b	1802c <_sd_get_resp+0x164>
   18068:	d2800703 	mov	x3, #0x38                  	// #56
   1806c:	d2800600 	mov	x0, #0x30                  	// #48
   18070:	f2a23803 	movk	x3, #0x11c0, lsl #16
   18074:	f2a23800 	movk	x0, #0x11c0, lsl #16
   18078:	52800001 	mov	w1, #0x0                   	// #0
   1807c:	f9400063 	ldr	x3, [x3]
   18080:	79014043 	strh	w3, [x2, #160]
   18084:	f9400000 	ldr	x0, [x0]
   18088:	79014440 	strh	w0, [x2, #162]
   1808c:	17ffffa3 	b	17f18 <_sd_get_resp+0x50>
   18090:	d2800d01 	mov	x1, #0x68                  	// #104
   18094:	d2800c08 	mov	x8, #0x60                  	// #96
   18098:	d2800b07 	mov	x7, #0x58                  	// #88
   1809c:	d2800a06 	mov	x6, #0x50                  	// #80
   180a0:	d2800905 	mov	x5, #0x48                  	// #72
   180a4:	d2800804 	mov	x4, #0x40                  	// #64
   180a8:	d2800703 	mov	x3, #0x38                  	// #56
   180ac:	d2800600 	mov	x0, #0x30                  	// #48
   180b0:	f2a23801 	movk	x1, #0x11c0, lsl #16
   180b4:	f2a23808 	movk	x8, #0x11c0, lsl #16
   180b8:	f2a23807 	movk	x7, #0x11c0, lsl #16
   180bc:	f2a23806 	movk	x6, #0x11c0, lsl #16
   180c0:	f2a23805 	movk	x5, #0x11c0, lsl #16
   180c4:	f2a23804 	movk	x4, #0x11c0, lsl #16
   180c8:	f2a23803 	movk	x3, #0x11c0, lsl #16
   180cc:	f2a23800 	movk	x0, #0x11c0, lsl #16
   180d0:	f9400029 	ldr	x9, [x1]
   180d4:	52800001 	mov	w1, #0x0                   	// #0
   180d8:	f9400108 	ldr	x8, [x8]
   180dc:	79011049 	strh	w9, [x2, #136]
   180e0:	f94000e7 	ldr	x7, [x7]
   180e4:	79011448 	strh	w8, [x2, #138]
   180e8:	f94000c6 	ldr	x6, [x6]
   180ec:	79011847 	strh	w7, [x2, #140]
   180f0:	f94000a5 	ldr	x5, [x5]
   180f4:	79011c46 	strh	w6, [x2, #142]
   180f8:	f9400084 	ldr	x4, [x4]
   180fc:	79012045 	strh	w5, [x2, #144]
   18100:	f9400063 	ldr	x3, [x3]
   18104:	79012444 	strh	w4, [x2, #146]
   18108:	f9400000 	ldr	x0, [x0]
   1810c:	79012843 	strh	w3, [x2, #148]
   18110:	79012c40 	strh	w0, [x2, #150]
   18114:	17ffff81 	b	17f18 <_sd_get_resp+0x50>
   18118:	d2800703 	mov	x3, #0x38                  	// #56
   1811c:	d2800600 	mov	x0, #0x30                  	// #48
   18120:	f2a23803 	movk	x3, #0x11c0, lsl #16
   18124:	f2a23800 	movk	x0, #0x11c0, lsl #16
   18128:	52800001 	mov	w1, #0x0                   	// #0
   1812c:	f9400063 	ldr	x3, [x3]
   18130:	7900e043 	strh	w3, [x2, #112]
   18134:	f9400000 	ldr	x0, [x0]
   18138:	7900e440 	strh	w0, [x2, #114]
   1813c:	17ffff77 	b	17f18 <_sd_get_resp+0x50>
   18140:	d2800703 	mov	x3, #0x38                  	// #56
   18144:	d2800600 	mov	x0, #0x30                  	// #48
   18148:	f2a23803 	movk	x3, #0x11c0, lsl #16
   1814c:	f2a23800 	movk	x0, #0x11c0, lsl #16
   18150:	52800001 	mov	w1, #0x0                   	// #0
   18154:	f9400063 	ldr	x3, [x3]
   18158:	7900d843 	strh	w3, [x2, #108]
   1815c:	f9400000 	ldr	x0, [x0]
   18160:	7900dc40 	strh	w0, [x2, #110]
   18164:	17ffff6d 	b	17f18 <_sd_get_resp+0x50>
   18168:	17ffff2c 	b	17e18 <_sd_check_resp_error>
   1816c:	00000000 	.inst	0x00000000 ; undefined

0000000000018170 <_sd_check_csd>:
   18170:	39408405 	ldrb	w5, [x0, #33]
   18174:	52800004 	mov	w4, #0x0                   	// #0
   18178:	710040bf 	cmp	w5, #0x10
   1817c:	54000060 	b.eq	18188 <_sd_check_csd+0x18>  // b.none
   18180:	79411004 	ldrh	w4, [x0, #136]
   18184:	d3461c84 	ubfx	x4, x4, #6, #2
   18188:	79411802 	ldrh	w2, [x0, #140]
   1818c:	90000021 	adrp	x1, 1c000 <vprintf+0x418>
   18190:	90000023 	adrp	x3, 1c000 <vprintf+0x418>
   18194:	9138e021 	add	x1, x1, #0xe38
   18198:	9138a063 	add	x3, x3, #0xe28
   1819c:	39005404 	strb	w4, [x0, #21]
   181a0:	d3482847 	ubfx	x7, x2, #8, #3
   181a4:	d34b3846 	ubfx	x6, x2, #11, #4
   181a8:	528270e4 	mov	w4, #0x1387                	// #4999
   181ac:	78677821 	ldrh	w1, [x1, x7, lsl #1]
   181b0:	38664863 	ldrb	w3, [x3, w6, uxtw]
   181b4:	1b037c21 	mul	w1, w1, w3
   181b8:	6b04003f 	cmp	w1, w4
   181bc:	5400052d 	b.le	18260 <_sd_check_csd+0xf0>
   181c0:	528000c1 	mov	w1, #0x6                   	// #6
   181c4:	39005801 	strb	w1, [x0, #22]
   181c8:	79412c01 	ldrh	w1, [x0, #150]
   181cc:	531c1c43 	ubfiz	w3, w2, #4, #8
   181d0:	79411c04 	ldrh	w4, [x0, #142]
   181d4:	12800e67 	mov	w7, #0xffffff8c            	// #-116
   181d8:	12001c22 	and	w2, w1, #0xff
   181dc:	39408808 	ldrb	w8, [x0, #34]
   181e0:	53037c21 	lsr	w1, w1, #3
   181e4:	121a0046 	and	w6, w2, #0x40
   181e8:	121f0421 	and	w1, w1, #0x6
   181ec:	2a443063 	orr	w3, w3, w4, lsr #12
   181f0:	2a080021 	orr	w1, w1, w8
   181f4:	0a070042 	and	w2, w2, w7
   181f8:	79003003 	strh	w3, [x0, #24]
   181fc:	39006806 	strb	w6, [x0, #26]
   18200:	39006c02 	strb	w2, [x0, #27]
   18204:	39008801 	strb	w1, [x0, #34]
   18208:	373805c2 	tbnz	w2, #7, 182c0 <_sd_check_csd+0x150>
   1820c:	79412402 	ldrh	w2, [x0, #146]
   18210:	79412803 	ldrh	w3, [x0, #148]
   18214:	37280145 	tbnz	w5, #5, 1823c <_sd_check_csd+0xcc>
   18218:	531d0441 	ubfiz	w1, w2, #3, #2
   1821c:	d3421842 	ubfx	x2, x2, #2, #5
   18220:	2a433421 	orr	w1, w1, w3, lsr #13
   18224:	52800003 	mov	w3, #0x0                   	// #0
   18228:	11000421 	add	w1, w1, #0x1
   1822c:	1b010441 	madd	w1, w2, w1, w1
   18230:	b9001001 	str	w1, [x0, #16]
   18234:	2a0303e0 	mov	w0, w3
   18238:	d65f03c0 	ret
   1823c:	d3483861 	ubfx	x1, x3, #8, #7
   18240:	531f1442 	ubfiz	w2, w2, #1, #6
   18244:	2a433c42 	orr	w2, w2, w3, lsr #15
   18248:	11000421 	add	w1, w1, #0x1
   1824c:	52800003 	mov	w3, #0x0                   	// #0
   18250:	1b010441 	madd	w1, w2, w1, w1
   18254:	b9001001 	str	w1, [x0, #16]
   18258:	2a0303e0 	mov	w0, w3
   1825c:	d65f03c0 	ret
   18260:	71270c3f 	cmp	w1, #0x9c3
   18264:	5400008d 	b.le	18274 <_sd_check_csd+0x104>
   18268:	528000a1 	mov	w1, #0x5                   	// #5
   1826c:	39005801 	strb	w1, [x0, #22]
   18270:	17ffffd6 	b	181c8 <_sd_check_csd+0x58>
   18274:	711f3c3f 	cmp	w1, #0x7cf
   18278:	540000c8 	b.hi	18290 <_sd_check_csd+0x120>  // b.pmore
   1827c:	710f9c3f 	cmp	w1, #0x3e7
   18280:	540000e9 	b.ls	1829c <_sd_check_csd+0x12c>  // b.plast
   18284:	52800061 	mov	w1, #0x3                   	// #3
   18288:	39005801 	strb	w1, [x0, #22]
   1828c:	17ffffcf 	b	181c8 <_sd_check_csd+0x58>
   18290:	52800081 	mov	w1, #0x4                   	// #4
   18294:	39005801 	strb	w1, [x0, #22]
   18298:	17ffffcc 	b	181c8 <_sd_check_csd+0x58>
   1829c:	7107cc3f 	cmp	w1, #0x1f3
   182a0:	54000089 	b.ls	182b0 <_sd_check_csd+0x140>  // b.plast
   182a4:	52800041 	mov	w1, #0x2                   	// #2
   182a8:	39005801 	strb	w1, [x0, #22]
   182ac:	17ffffc7 	b	181c8 <_sd_check_csd+0x58>
   182b0:	71018c3f 	cmp	w1, #0x63
   182b4:	1a9f97e1 	cset	w1, hi  // hi = pmore
   182b8:	39005801 	strb	w1, [x0, #22]
   182bc:	17ffffc3 	b	181c8 <_sd_check_csd+0x58>
   182c0:	a9bf7bfd 	stp	x29, x30, [sp, #-16]!
   182c4:	12800661 	mov	w1, #0xffffffcc            	// #-52
   182c8:	910003fd 	mov	x29, sp
   182cc:	940008cd 	bl	1a600 <_sd_set_err>
   182d0:	12800003 	mov	w3, #0xffffffff            	// #-1
   182d4:	2a0303e0 	mov	w0, w3
   182d8:	a8c17bfd 	ldp	x29, x30, [sp], #16
   182dc:	d65f03c0 	ret

00000000000182e0 <_sd_check_info2_err>:
   182e0:	a9be7bfd 	stp	x29, x30, [sp, #-32]!
   182e4:	910003fd 	mov	x29, sp
   182e8:	f9000bf3 	str	x19, [sp, #16]
   182ec:	aa0003f3 	mov	x19, x0
   182f0:	79405000 	ldrh	w0, [x0, #40]
   182f4:	12115c00 	and	w0, w0, #0xffff807f
   182f8:	940008ba 	bl	1a5e0 <_sd_bit_search>
   182fc:	3100041f 	cmn	w0, #0x1
   18300:	54000260 	b.eq	1834c <_sd_check_info2_err+0x6c>  // b.none
   18304:	34000160 	cbz	w0, 18330 <_sd_check_info2_err+0x50>
   18308:	51002401 	sub	w1, w0, #0x9
   1830c:	90000022 	adrp	x2, 1c000 <vprintf+0x418>
   18310:	91372042 	add	x2, x2, #0xdc8
   18314:	aa1303e0 	mov	x0, x19
   18318:	b861d841 	ldr	w1, [x2, w1, sxtw #2]
   1831c:	940008b9 	bl	1a600 <_sd_set_err>
   18320:	52800000 	mov	w0, #0x0                   	// #0
   18324:	f9400bf3 	ldr	x19, [sp, #16]
   18328:	a8c27bfd 	ldp	x29, x30, [sp], #32
   1832c:	d65f03c0 	ret
   18330:	aa1303e0 	mov	x0, x19
   18334:	12800aa1 	mov	w1, #0xffffffaa            	// #-86
   18338:	940008b2 	bl	1a600 <_sd_set_err>
   1833c:	52800000 	mov	w0, #0x0                   	// #0
   18340:	f9400bf3 	ldr	x19, [sp, #16]
   18344:	a8c27bfd 	ldp	x29, x30, [sp], #32
   18348:	d65f03c0 	ret
   1834c:	aa1303e0 	mov	x0, x19
   18350:	52800001 	mov	w1, #0x0                   	// #0
   18354:	940008ab 	bl	1a600 <_sd_set_err>
   18358:	52800000 	mov	w0, #0x0                   	// #0
   1835c:	f9400bf3 	ldr	x19, [sp, #16]
   18360:	a8c27bfd 	ldp	x29, x30, [sp], #32
   18364:	d65f03c0 	ret

0000000000018368 <_sd_send_cmd>:
   18368:	a9bd7bfd 	stp	x29, x30, [sp, #-48]!
   1836c:	910003fd 	mov	x29, sp
   18370:	a90153f3 	stp	x19, x20, [sp, #16]
   18374:	12003c34 	and	w20, w1, #0xffff
   18378:	aa0003f3 	mov	x19, x0
   1837c:	f90013f5 	str	x21, [sp, #32]
   18380:	71009a9f 	cmp	w20, #0x26
   18384:	b900381f 	str	wzr, [x0, #56]
   18388:	54000860 	b.eq	18494 <_sd_send_cmd+0x12c>  // b.none
   1838c:	7101ba9f 	cmp	w20, #0x6e
   18390:	528385a2 	mov	w2, #0x1c2d                	// #7213
   18394:	7a471a84 	ccmp	w20, #0x7, #0x4, ne  // ne = any
   18398:	52800c95 	mov	w21, #0x64                  	// #100
   1839c:	1a9f17e0 	cset	w0, eq  // eq = none
   183a0:	7114ae9f 	cmp	w20, #0x52b
   183a4:	7a4c1a84 	ccmp	w20, #0xc, #0x4, ne  // ne = any
   183a8:	52807d01 	mov	w1, #0x3e8                 	// #1000
   183ac:	1a9f1400 	csinc	w0, w0, wzr, ne  // ne = any
   183b0:	6b02029f 	cmp	w20, w2
   183b4:	1a9f1400 	csinc	w0, w0, wzr, ne  // ne = any
   183b8:	7100001f 	cmp	w0, #0x0
   183bc:	1a8102b5 	csel	w21, w21, w1, eq  // eq = none
   183c0:	52800021 	mov	w1, #0x1                   	// #1
   183c4:	52800002 	mov	w2, #0x0                   	// #0
   183c8:	aa1303e0 	mov	x0, x19
   183cc:	940001c1 	bl	18ad0 <_sd_set_int_mask>
   183d0:	d2a23801 	mov	x1, #0x11c00000            	// #297795584
   183d4:	2a1503e0 	mov	w0, w21
   183d8:	b9000034 	str	w20, [x1]
   183dc:	97fffdff 	bl	17bd8 <esddev_int_wait>
   183e0:	35000420 	cbnz	w0, 18464 <_sd_send_cmd+0xfc>
   183e4:	128fffe2 	mov	w2, #0xffff8000            	// #-32768
   183e8:	52800021 	mov	w1, #0x1                   	// #1
   183ec:	aa1303e0 	mov	x0, x19
   183f0:	940001d6 	bl	18b48 <_sd_clear_int_mask>
   183f4:	d2800f03 	mov	x3, #0x78                  	// #120
   183f8:	79405264 	ldrh	w4, [x19, #40]
   183fc:	f2a23803 	movk	x3, #0x11c0, lsl #16
   18400:	aa1303e0 	mov	x0, x19
   18404:	f9400061 	ldr	x1, [x3]
   18408:	12115c21 	and	w1, w1, #0xffff807f
   1840c:	12003c21 	and	w1, w1, #0xffff
   18410:	2a2103e2 	mvn	w2, w1
   18414:	2a040021 	orr	w1, w1, w4
   18418:	92403c42 	and	x2, x2, #0xffff
   1841c:	f9000062 	str	x2, [x3]
   18420:	79005261 	strh	w1, [x19, #40]
   18424:	97ffffaf 	bl	182e0 <_sd_check_info2_err>
   18428:	79404e60 	ldrh	w0, [x19, #38]
   1842c:	36000140 	tbz	w0, #0, 18454 <_sd_send_cmd+0xec>
   18430:	128ff002 	mov	w2, #0xffff807f            	// #-32641
   18434:	52800021 	mov	w1, #0x1                   	// #1
   18438:	aa1303e0 	mov	x0, x19
   1843c:	940001e3 	bl	18bc8 <_sd_clear_info>
   18440:	b9403a60 	ldr	w0, [x19, #56]
   18444:	a94153f3 	ldp	x19, x20, [sp, #16]
   18448:	f94013f5 	ldr	x21, [sp, #32]
   1844c:	a8c37bfd 	ldp	x29, x30, [sp], #48
   18450:	d65f03c0 	ret
   18454:	12800ae1 	mov	w1, #0xffffffa8            	// #-88
   18458:	aa1303e0 	mov	x0, x19
   1845c:	94000869 	bl	1a600 <_sd_set_err>
   18460:	17fffff4 	b	18430 <_sd_send_cmd+0xc8>
   18464:	12800101 	mov	w1, #0xfffffff7            	// #-9
   18468:	aa1303e0 	mov	x0, x19
   1846c:	94000865 	bl	1a600 <_sd_set_err>
   18470:	128fffe2 	mov	w2, #0xffff8000            	// #-32768
   18474:	52800021 	mov	w1, #0x1                   	// #1
   18478:	aa1303e0 	mov	x0, x19
   1847c:	940001b3 	bl	18b48 <_sd_clear_int_mask>
   18480:	b9403a60 	ldr	w0, [x19, #56]
   18484:	a94153f3 	ldp	x19, x20, [sp, #16]
   18488:	f94013f5 	ldr	x21, [sp, #32]
   1848c:	a8c37bfd 	ldp	x29, x30, [sp], #48
   18490:	d65f03c0 	ret
   18494:	5284e215 	mov	w21, #0x2710                	// #10000
   18498:	17ffffca 	b	183c0 <_sd_send_cmd+0x58>
   1849c:	00000000 	.inst	0x00000000 ; undefined

00000000000184a0 <_sd_send_acmd>:
   184a0:	a9bc7bfd 	stp	x29, x30, [sp, #-64]!
   184a4:	910003fd 	mov	x29, sp
   184a8:	a90363f7 	stp	x23, x24, [sp, #48]
   184ac:	d2800217 	mov	x23, #0x10                  	// #16
   184b0:	f2a23817 	movk	x23, #0x11c0, lsl #16
   184b4:	a90153f3 	stp	x19, x20, [sp, #16]
   184b8:	12003c54 	and	w20, w2, #0xffff
   184bc:	79413802 	ldrh	w2, [x0, #156]
   184c0:	a9025bf5 	stp	x21, x22, [sp, #32]
   184c4:	d2800316 	mov	x22, #0x18                  	// #24
   184c8:	f2a23816 	movk	x22, #0x11c0, lsl #16
   184cc:	92403c42 	and	x2, x2, #0xffff
   184d0:	f90002ff 	str	xzr, [x23]
   184d4:	f90002c2 	str	x2, [x22]
   184d8:	12003c38 	and	w24, w1, #0xffff
   184dc:	aa0003f3 	mov	x19, x0
   184e0:	12003c75 	and	w21, w3, #0xffff
   184e4:	528006e1 	mov	w1, #0x37                  	// #55
   184e8:	97ffffa0 	bl	18368 <_sd_send_cmd>
   184ec:	35000260 	cbnz	w0, 18538 <_sd_send_acmd+0x98>
   184f0:	52800021 	mov	w1, #0x1                   	// #1
   184f4:	aa1303e0 	mov	x0, x19
   184f8:	97fffe74 	bl	17ec8 <_sd_get_resp>
   184fc:	350001e0 	cbnz	w0, 18538 <_sd_send_acmd+0x98>
   18500:	92403eb5 	and	x21, x21, #0xffff
   18504:	f90002f5 	str	x21, [x23]
   18508:	92403e94 	and	x20, x20, #0xffff
   1850c:	f90002d4 	str	x20, [x22]
   18510:	2a1803e1 	mov	w1, w24
   18514:	aa1303e0 	mov	x0, x19
   18518:	97ffff94 	bl	18368 <_sd_send_cmd>
   1851c:	7100001f 	cmp	w0, #0x0
   18520:	5a9f03e0 	csetm	w0, ne  // ne = any
   18524:	a94153f3 	ldp	x19, x20, [sp, #16]
   18528:	a9425bf5 	ldp	x21, x22, [sp, #32]
   1852c:	a94363f7 	ldp	x23, x24, [sp, #48]
   18530:	a8c47bfd 	ldp	x29, x30, [sp], #64
   18534:	d65f03c0 	ret
   18538:	12800000 	mov	w0, #0xffffffff            	// #-1
   1853c:	17fffffa 	b	18524 <_sd_send_acmd+0x84>

0000000000018540 <_sd_card_send_cmd_arg>:
   18540:	a9be7bfd 	stp	x29, x30, [sp, #-32]!
   18544:	d2800206 	mov	x6, #0x10                  	// #16
   18548:	f2a23806 	movk	x6, #0x11c0, lsl #16
   1854c:	910003fd 	mov	x29, sp
   18550:	d2800305 	mov	x5, #0x18                  	// #24
   18554:	f2a23805 	movk	x5, #0x11c0, lsl #16
   18558:	a90153f3 	stp	x19, x20, [sp, #16]
   1855c:	92403c84 	and	x4, x4, #0xffff
   18560:	92403c63 	and	x3, x3, #0xffff
   18564:	f90000c4 	str	x4, [x6]
   18568:	2a0203f4 	mov	w20, w2
   1856c:	f90000a3 	str	x3, [x5]
   18570:	aa0003f3 	mov	x19, x0
   18574:	97ffff7d 	bl	18368 <_sd_send_cmd>
   18578:	34000080 	cbz	w0, 18588 <_sd_card_send_cmd_arg+0x48>
   1857c:	a94153f3 	ldp	x19, x20, [sp, #16]
   18580:	a8c27bfd 	ldp	x29, x30, [sp], #32
   18584:	d65f03c0 	ret
   18588:	2a1403e1 	mov	w1, w20
   1858c:	aa1303e0 	mov	x0, x19
   18590:	a94153f3 	ldp	x19, x20, [sp, #16]
   18594:	a8c27bfd 	ldp	x29, x30, [sp], #32
   18598:	17fffe4c 	b	17ec8 <_sd_get_resp>
   1859c:	00000000 	.inst	0x00000000 ; undefined

00000000000185a0 <_sd_card_send_ocr>:
   185a0:	a9ba7bfd 	stp	x29, x30, [sp, #-96]!
   185a4:	910003fd 	mov	x29, sp
   185a8:	a90153f3 	stp	x19, x20, [sp, #16]
   185ac:	2a0103f4 	mov	w20, w1
   185b0:	aa0003f3 	mov	x19, x0
   185b4:	a9025bf5 	stp	x21, x22, [sp, #32]
   185b8:	51008036 	sub	w22, w1, #0x20
   185bc:	52801915 	mov	w21, #0xc8                  	// #200
   185c0:	a90363f7 	stp	x23, x24, [sp, #48]
   185c4:	d2800318 	mov	x24, #0x18                  	// #24
   185c8:	52800017 	mov	w23, #0x0                   	// #0
   185cc:	a9046bf9 	stp	x25, x26, [sp, #64]
   185d0:	d280061a 	mov	x26, #0x30                  	// #48
   185d4:	d2800219 	mov	x25, #0x10                  	// #16
   185d8:	f9002bfb 	str	x27, [sp, #80]
   185dc:	d280071b 	mov	x27, #0x38                  	// #56
   185e0:	f2a2381a 	movk	x26, #0x11c0, lsl #16
   185e4:	f2a23819 	movk	x25, #0x11c0, lsl #16
   185e8:	f2a23818 	movk	x24, #0x11c0, lsl #16
   185ec:	f2a2381b 	movk	x27, #0x11c0, lsl #16
   185f0:	7100429f 	cmp	w20, #0x10
   185f4:	54000900 	b.eq	18714 <_sd_card_send_ocr+0x174>  // b.none
   185f8:	5400034c 	b.gt	18660 <_sd_card_send_ocr+0xc0>
   185fc:	34000a14 	cbz	w20, 1873c <_sd_card_send_ocr+0x19c>
   18600:	7100069f 	cmp	w20, #0x1
   18604:	54000721 	b.ne	186e8 <_sd_card_send_ocr+0x148>  // b.any
   18608:	b9403662 	ldr	w2, [x19, #52]
   1860c:	5288e0a1 	mov	w1, #0x4705                	// #18181
   18610:	aa1303e0 	mov	x0, x19
   18614:	92403c43 	and	x3, x2, #0xffff
   18618:	f9000323 	str	x3, [x25]
   1861c:	53107c42 	lsr	w2, w2, #16
   18620:	f9000302 	str	x2, [x24]
   18624:	97ffff51 	bl	18368 <_sd_send_cmd>
   18628:	34000520 	cbz	w0, 186cc <_sd_card_send_ocr+0x12c>
   1862c:	b9403a61 	ldr	w1, [x19, #56]
   18630:	3100103f 	cmn	w1, #0x4
   18634:	54000440 	b.eq	186bc <_sd_card_send_ocr+0x11c>  // b.none
   18638:	52800017 	mov	w23, #0x0                   	// #0
   1863c:	710006b5 	subs	w21, w21, #0x1
   18640:	54fffd81 	b.ne	185f0 <_sd_card_send_ocr+0x50>  // b.any
   18644:	a94153f3 	ldp	x19, x20, [sp, #16]
   18648:	a9425bf5 	ldp	x21, x22, [sp, #32]
   1864c:	a94363f7 	ldp	x23, x24, [sp, #48]
   18650:	a9446bf9 	ldp	x25, x26, [sp, #64]
   18654:	f9402bfb 	ldr	x27, [sp, #80]
   18658:	a8c67bfd 	ldp	x29, x30, [sp], #96
   1865c:	d65f03c0 	ret
   18660:	710006df 	cmp	w22, #0x1
   18664:	54000428 	b.hi	186e8 <_sd_card_send_ocr+0x148>  // b.pmore
   18668:	39410e60 	ldrb	w0, [x19, #67]
   1866c:	b9403662 	ldr	w2, [x19, #52]
   18670:	7102001f 	cmp	w0, #0x80
   18674:	54000960 	b.eq	187a0 <_sd_card_send_ocr+0x200>  // b.none
   18678:	2a0203e3 	mov	w3, w2
   1867c:	52800d21 	mov	w1, #0x69                  	// #105
   18680:	53107c42 	lsr	w2, w2, #16
   18684:	aa1303e0 	mov	x0, x19
   18688:	97ffff86 	bl	184a0 <_sd_send_acmd>
   1868c:	35fffd00 	cbnz	w0, 1862c <_sd_card_send_ocr+0x8c>
   18690:	f9400360 	ldr	x0, [x27]
   18694:	7900da60 	strh	w0, [x19, #108]
   18698:	f9400341 	ldr	x1, [x26]
   1869c:	7900de61 	strh	w1, [x19, #110]
   186a0:	37780200 	tbnz	w0, #15, 186e0 <_sd_card_send_ocr+0x140>
   186a4:	528000a0 	mov	w0, #0x5                   	// #5
   186a8:	97fffd4c 	bl	17bd8 <esddev_int_wait>
   186ac:	b9403a61 	ldr	w1, [x19, #56]
   186b0:	12800000 	mov	w0, #0xffffffff            	// #-1
   186b4:	3100103f 	cmn	w1, #0x4
   186b8:	54fffc01 	b.ne	18638 <_sd_card_send_ocr+0x98>  // b.any
   186bc:	110006f7 	add	w23, w23, #0x1
   186c0:	71000eff 	cmp	w23, #0x3
   186c4:	54fffbc1 	b.ne	1863c <_sd_card_send_ocr+0x9c>  // b.any
   186c8:	17ffffdf 	b	18644 <_sd_card_send_ocr+0xa4>
   186cc:	f9400360 	ldr	x0, [x27]
   186d0:	7900e260 	strh	w0, [x19, #112]
   186d4:	f9400341 	ldr	x1, [x26]
   186d8:	7900e661 	strh	w1, [x19, #114]
   186dc:	367ffe40 	tbz	w0, #15, 186a4 <_sd_card_send_ocr+0x104>
   186e0:	52800000 	mov	w0, #0x0                   	// #0
   186e4:	17ffffd8 	b	18644 <_sd_card_send_ocr+0xa4>
   186e8:	12800c41 	mov	w1, #0xffffff9d            	// #-99
   186ec:	b9003a61 	str	w1, [x19, #56]
   186f0:	b9006a7f 	str	wzr, [x19, #104]
   186f4:	12800000 	mov	w0, #0xffffffff            	// #-1
   186f8:	a94153f3 	ldp	x19, x20, [sp, #16]
   186fc:	a9425bf5 	ldp	x21, x22, [sp, #32]
   18700:	a94363f7 	ldp	x23, x24, [sp, #48]
   18704:	a9446bf9 	ldp	x25, x26, [sp, #64]
   18708:	f9402bfb 	ldr	x27, [sp, #80]
   1870c:	a8c67bfd 	ldp	x29, x30, [sp], #96
   18710:	d65f03c0 	ret
   18714:	b9403662 	ldr	w2, [x19, #52]
   18718:	52800021 	mov	w1, #0x1                   	// #1
   1871c:	aa1303e0 	mov	x0, x19
   18720:	92403c43 	and	x3, x2, #0xffff
   18724:	f9000323 	str	x3, [x25]
   18728:	53107c42 	lsr	w2, w2, #16
   1872c:	f9000302 	str	x2, [x24]
   18730:	97ffff0e 	bl	18368 <_sd_send_cmd>
   18734:	34fffae0 	cbz	w0, 18690 <_sd_card_send_ocr+0xf0>
   18738:	17ffffbd 	b	1862c <_sd_card_send_ocr+0x8c>
   1873c:	d2800203 	mov	x3, #0x10                  	// #16
   18740:	d2800302 	mov	x2, #0x18                  	// #24
   18744:	f2a23803 	movk	x3, #0x11c0, lsl #16
   18748:	f2a23802 	movk	x2, #0x11c0, lsl #16
   1874c:	5288e0a1 	mov	w1, #0x4705                	// #18181
   18750:	aa1303e0 	mov	x0, x19
   18754:	f900007f 	str	xzr, [x3]
   18758:	f900005f 	str	xzr, [x2]
   1875c:	97ffff03 	bl	18368 <_sd_send_cmd>
   18760:	35fff720 	cbnz	w0, 18644 <_sd_card_send_ocr+0xa4>
   18764:	d2800702 	mov	x2, #0x38                  	// #56
   18768:	d2800601 	mov	x1, #0x30                  	// #48
   1876c:	f2a23802 	movk	x2, #0x11c0, lsl #16
   18770:	f2a23801 	movk	x1, #0x11c0, lsl #16
   18774:	a9425bf5 	ldp	x21, x22, [sp, #32]
   18778:	f9400042 	ldr	x2, [x2]
   1877c:	7900e262 	strh	w2, [x19, #112]
   18780:	f9400021 	ldr	x1, [x1]
   18784:	7900e661 	strh	w1, [x19, #114]
   18788:	a94153f3 	ldp	x19, x20, [sp, #16]
   1878c:	a94363f7 	ldp	x23, x24, [sp, #48]
   18790:	a9446bf9 	ldp	x25, x26, [sp, #64]
   18794:	f9402bfb 	ldr	x27, [sp, #80]
   18798:	a8c67bfd 	ldp	x29, x30, [sp], #96
   1879c:	d65f03c0 	ret
   187a0:	32020042 	orr	w2, w2, #0x40000000
   187a4:	b9003662 	str	w2, [x19, #52]
   187a8:	17ffffb4 	b	18678 <_sd_card_send_ocr+0xd8>
   187ac:	00000000 	.inst	0x00000000 ; undefined

00000000000187b0 <_sd_send_mcmd>:
   187b0:	a9be7bfd 	stp	x29, x30, [sp, #-32]!
   187b4:	d2800205 	mov	x5, #0x10                  	// #16
   187b8:	f2a23805 	movk	x5, #0x11c0, lsl #16
   187bc:	910003fd 	mov	x29, sp
   187c0:	d2800304 	mov	x4, #0x18                  	// #24
   187c4:	f2a23804 	movk	x4, #0x11c0, lsl #16
   187c8:	f9000bf3 	str	x19, [sp, #16]
   187cc:	92403c46 	and	x6, x2, #0xffff
   187d0:	d2a23803 	mov	x3, #0x11c00000            	// #297795584
   187d4:	f90000a6 	str	x6, [x5]
   187d8:	53107c42 	lsr	w2, w2, #16
   187dc:	12003c21 	and	w1, w1, #0xffff
   187e0:	f9000082 	str	x2, [x4]
   187e4:	aa0003f3 	mov	x19, x0
   187e8:	b9000061 	str	w1, [x3]
   187ec:	52800c80 	mov	w0, #0x64                  	// #100
   187f0:	97fffcfa 	bl	17bd8 <esddev_int_wait>
   187f4:	350003c0 	cbnz	w0, 1886c <_sd_send_mcmd+0xbc>
   187f8:	d2800f03 	mov	x3, #0x78                  	// #120
   187fc:	79405264 	ldrh	w4, [x19, #40]
   18800:	f2a23803 	movk	x3, #0x11c0, lsl #16
   18804:	aa1303e0 	mov	x0, x19
   18808:	f9400061 	ldr	x1, [x3]
   1880c:	12115c21 	and	w1, w1, #0xffff807f
   18810:	12003c21 	and	w1, w1, #0xffff
   18814:	2a2103e2 	mvn	w2, w1
   18818:	2a040021 	orr	w1, w1, w4
   1881c:	92403c42 	and	x2, x2, #0xffff
   18820:	f9000062 	str	x2, [x3]
   18824:	79005261 	strh	w1, [x19, #40]
   18828:	97fffeae 	bl	182e0 <_sd_check_info2_err>
   1882c:	79404e60 	ldrh	w0, [x19, #38]
   18830:	36000160 	tbz	w0, #0, 1885c <_sd_send_mcmd+0xac>
   18834:	b9403a60 	ldr	w0, [x19, #56]
   18838:	34000280 	cbz	w0, 18888 <_sd_send_mcmd+0xd8>
   1883c:	128ff002 	mov	w2, #0xffff807f            	// #-32641
   18840:	52800021 	mov	w1, #0x1                   	// #1
   18844:	aa1303e0 	mov	x0, x19
   18848:	940000e0 	bl	18bc8 <_sd_clear_info>
   1884c:	b9403a60 	ldr	w0, [x19, #56]
   18850:	f9400bf3 	ldr	x19, [sp, #16]
   18854:	a8c27bfd 	ldp	x29, x30, [sp], #32
   18858:	d65f03c0 	ret
   1885c:	12800ae1 	mov	w1, #0xffffffa8            	// #-88
   18860:	aa1303e0 	mov	x0, x19
   18864:	94000767 	bl	1a600 <_sd_set_err>
   18868:	17fffff5 	b	1883c <_sd_send_mcmd+0x8c>
   1886c:	12800101 	mov	w1, #0xfffffff7            	// #-9
   18870:	aa1303e0 	mov	x0, x19
   18874:	94000763 	bl	1a600 <_sd_set_err>
   18878:	b9403a60 	ldr	w0, [x19, #56]
   1887c:	f9400bf3 	ldr	x19, [sp, #16]
   18880:	a8c27bfd 	ldp	x29, x30, [sp], #32
   18884:	d65f03c0 	ret
   18888:	52800021 	mov	w1, #0x1                   	// #1
   1888c:	aa1303e0 	mov	x0, x19
   18890:	97fffd8e 	bl	17ec8 <_sd_get_resp>
   18894:	17ffffea 	b	1883c <_sd_send_mcmd+0x8c>

0000000000018898 <esd_init>:
   18898:	a9bd7bfd 	stp	x29, x30, [sp, #-48]!
   1889c:	910003fd 	mov	x29, sp
   188a0:	a90153f3 	stp	x19, x20, [sp, #16]
   188a4:	b40001e1 	cbz	x1, 188e0 <esd_init+0x48>
   188a8:	f240043f 	tst	x1, #0x3
   188ac:	540001a1 	b.ne	188e0 <esd_init+0x48>  // b.any
   188b0:	7100045f 	cmp	w2, #0x1
   188b4:	54000168 	b.hi	188e0 <esd_init+0x48>  // b.pmore
   188b8:	aa0103f3 	mov	x19, x1
   188bc:	a9025bf5 	stp	x21, x22, [sp, #32]
   188c0:	2a0203f6 	mov	w22, w2
   188c4:	aa0003f5 	mov	x21, x0
   188c8:	97fffcb4 	bl	17b98 <esddev_init>
   188cc:	2a0003f4 	mov	w20, w0
   188d0:	34000160 	cbz	w0, 188fc <esd_init+0x64>
   188d4:	128003b4 	mov	w20, #0xffffffe2            	// #-30
   188d8:	a9425bf5 	ldp	x21, x22, [sp, #32]
   188dc:	14000002 	b	188e4 <esd_init+0x4c>
   188e0:	12800014 	mov	w20, #0xffffffff            	// #-1
   188e4:	90000040 	adrp	x0, 20000 <__STACKS_START__+0x700>
   188e8:	f906d01f 	str	xzr, [x0, #3488]
   188ec:	2a1403e0 	mov	w0, w20
   188f0:	a94153f3 	ldp	x19, x20, [sp, #16]
   188f4:	a8c37bfd 	ldp	x29, x30, [sp], #48
   188f8:	d65f03c0 	ret
   188fc:	97fffcd3 	bl	17c48 <esddev_loc_cpu>
   18900:	90000040 	adrp	x0, 20000 <__STACKS_START__+0x700>
   18904:	9108c264 	add	x4, x19, #0x230
   18908:	aa1303e3 	mov	x3, x19
   1890c:	f906d013 	str	x19, [x0, #3488]
   18910:	3800147f 	strb	wzr, [x3], #1
   18914:	eb03009f 	cmp	x4, x3
   18918:	54ffffc1 	b.ne	18910 <esd_init+0x78>  // b.any
   1891c:	b0000041 	adrp	x1, 21000 <sd_drv_work_area+0x58>
   18920:	d2801000 	mov	x0, #0x80                  	// #128
   18924:	f2a23800 	movk	x0, #0x11c0, lsl #16
   18928:	d2801102 	mov	x2, #0x88                  	// #136
   1892c:	f9000275 	str	x21, [x19]
   18930:	52802003 	mov	w3, #0x100                 	// #256
   18934:	b9044c3f 	str	wzr, [x1, #1100]
   18938:	f2a23802 	movk	x2, #0x11c0, lsl #16
   1893c:	d2801c01 	mov	x1, #0xe0                  	// #224
   18940:	39011276 	strb	w22, [x19, #68]
   18944:	3901167f 	strb	wzr, [x19, #69]
   18948:	f2a23801 	movk	x1, #0x11c0, lsl #16
   1894c:	79008e63 	strh	w3, [x19, #70]
   18950:	d28063a4 	mov	x4, #0x31d                 	// #797
   18954:	f9000004 	str	x4, [x0]
   18958:	d2906fe3 	mov	x3, #0x837f                	// #33663
   1895c:	f9000043 	str	x3, [x2]
   18960:	d29800e2 	mov	x2, #0xc007                	// #49159
   18964:	f9000022 	str	x2, [x1]
   18968:	d2800e02 	mov	x2, #0x70                  	// #112
   1896c:	f2a23802 	movk	x2, #0x11c0, lsl #16
   18970:	f900281f 	str	xzr, [x0, #80]
   18974:	d2800f06 	mov	x6, #0x78                  	// #120
   18978:	d2801b04 	mov	x4, #0xd8                  	// #216
   1897c:	f9400040 	ldr	x0, [x2]
   18980:	f2a23806 	movk	x6, #0x11c0, lsl #16
   18984:	d29fff47 	mov	x7, #0xfffa                	// #65530
   18988:	f2a23804 	movk	x4, #0x11c0, lsl #16
   1898c:	8a070000 	and	x0, x0, x7
   18990:	f9000040 	str	x0, [x2]
   18994:	f90000df 	str	xzr, [x6]
   18998:	d2807203 	mov	x3, #0x390                 	// #912
   1899c:	f900009f 	str	xzr, [x4]
   189a0:	f2a23803 	movk	x3, #0x11c0, lsl #16
   189a4:	d2801400 	mov	x0, #0xa0                  	// #160
   189a8:	f901503f 	str	xzr, [x1, #672]
   189ac:	d2800025 	mov	x5, #0x1                   	// #1
   189b0:	f2a23800 	movk	x0, #0x11c0, lsl #16
   189b4:	f9015025 	str	x5, [x1, #672]
   189b8:	d2802024 	mov	x4, #0x101                 	// #257
   189bc:	f9000064 	str	x4, [x3]
   189c0:	d28015c2 	mov	x2, #0xae                  	// #174
   189c4:	f9000002 	str	x2, [x0]
   189c8:	97fffca2 	bl	17c50 <esddev_unl_cpu>
   189cc:	2a1403e0 	mov	w0, w20
   189d0:	a94153f3 	ldp	x19, x20, [sp, #16]
   189d4:	a9425bf5 	ldp	x21, x22, [sp, #32]
   189d8:	a8c37bfd 	ldp	x29, x30, [sp], #48
   189dc:	d65f03c0 	ret

00000000000189e0 <_sd_init_hndl>:
   189e0:	12001c25 	and	w5, w1, #0xff
   189e4:	9102e003 	add	x3, x0, #0xb8
   189e8:	91032804 	add	x4, x0, #0xca
   189ec:	120000aa 	and	w10, w5, #0x1
   189f0:	121f00a9 	and	w9, w5, #0x2
   189f4:	121c04a8 	and	w8, w5, #0x30
   189f8:	121a00a7 	and	w7, w5, #0x40
   189fc:	121960a6 	and	w6, w5, #0xffffff80
   18a00:	b9000c1f 	str	wzr, [x0, #12]
   18a04:	3900781f 	strb	wzr, [x0, #30]
   18a08:	3900841f 	strb	wzr, [x0, #33]
   18a0c:	3900881f 	strb	wzr, [x0, #34]
   18a10:	2906fc02 	stp	w2, wzr, [x0, #52]
   18a14:	7900781f 	strh	wzr, [x0, #60]
   18a18:	3900fc0a 	strb	w10, [x0, #63]
   18a1c:	39010009 	strb	w9, [x0, #64]
   18a20:	39010408 	strb	w8, [x0, #65]
   18a24:	39010807 	strb	w7, [x0, #66]
   18a28:	39010c06 	strb	w6, [x0, #67]
   18a2c:	f900341f 	str	xzr, [x0, #104]
   18a30:	a907fc1f 	stp	xzr, xzr, [x0, #120]
   18a34:	a908fc1f 	stp	xzr, xzr, [x0, #136]
   18a38:	7901301f 	strh	wzr, [x0, #152]
   18a3c:	b9009c1f 	str	wzr, [x0, #156]
   18a40:	a90a7c1f 	stp	xzr, xzr, [x0, #160]
   18a44:	b900b01f 	str	wzr, [x0, #176]
   18a48:	7901681f 	strh	wzr, [x0, #180]
   18a4c:	d503201f 	nop
   18a50:	7800247f 	strh	wzr, [x3], #2
   18a54:	eb04007f 	cmp	x3, x4
   18a58:	54ffffc1 	b.ne	18a50 <_sd_init_hndl+0x70>  // b.any
   18a5c:	b900741f 	str	wzr, [x0, #116]
   18a60:	362001c5 	tbz	w5, #4, 18a98 <_sd_init_hndl+0xb8>
   18a64:	9103c004 	add	x4, x0, #0xf0
   18a68:	9105a005 	add	x5, x0, #0x168
   18a6c:	39008c1f 	strb	wzr, [x0, #35]
   18a70:	3900901f 	strb	wzr, [x0, #36]
   18a74:	b900701f 	str	wzr, [x0, #112]
   18a78:	d1005083 	sub	x3, x4, #0x14
   18a7c:	d503201f 	nop
   18a80:	3800147f 	strb	wzr, [x3], #1
   18a84:	eb03009f 	cmp	x4, x3
   18a88:	54ffffc1 	b.ne	18a80 <_sd_init_hndl+0xa0>  // b.any
   18a8c:	91005084 	add	x4, x4, #0x14
   18a90:	eb0400bf 	cmp	x5, x4
   18a94:	54ffff21 	b.ne	18a78 <_sd_init_hndl+0x98>  // b.any
   18a98:	37380061 	tbnz	w1, #7, 18aa4 <_sd_init_hndl+0xc4>
   18a9c:	52800000 	mov	w0, #0x0                   	// #0
   18aa0:	d65f03c0 	ret
   18aa4:	7211205f 	tst	w2, #0xff8000
   18aa8:	52803543 	mov	w3, #0x1aa                 	// #426
   18aac:	52801541 	mov	w1, #0xaa                  	// #170
   18ab0:	1a830021 	csel	w1, w1, w3, eq  // eq = none
   18ab4:	7900ec01 	strh	w1, [x0, #118]
   18ab8:	72180c5f 	tst	w2, #0xf00
   18abc:	54ffff00 	b.eq	18a9c <_sd_init_hndl+0xbc>  // b.none
   18ac0:	32170021 	orr	w1, w1, #0x200
   18ac4:	7900ec01 	strh	w1, [x0, #118]
   18ac8:	52800000 	mov	w0, #0x0                   	// #0
   18acc:	d65f03c0 	ret

0000000000018ad0 <_sd_set_int_mask>:
   18ad0:	a9bd7bfd 	stp	x29, x30, [sp, #-48]!
   18ad4:	910003fd 	mov	x29, sp
   18ad8:	a90153f3 	stp	x19, x20, [sp, #16]
   18adc:	aa0003f3 	mov	x19, x0
   18ae0:	12003c54 	and	w20, w2, #0xffff
   18ae4:	f90013f5 	str	x21, [sp, #32]
   18ae8:	12003c35 	and	w21, w1, #0xffff
   18aec:	97fffc57 	bl	17c48 <esddev_loc_cpu>
   18af0:	79405661 	ldrh	w1, [x19, #42]
   18af4:	d2801004 	mov	x4, #0x80                  	// #128
   18af8:	79405a60 	ldrh	w0, [x19, #44]
   18afc:	f2a23804 	movk	x4, #0x11c0, lsl #16
   18b00:	2a150021 	orr	w1, w1, w21
   18b04:	d2801103 	mov	x3, #0x88                  	// #136
   18b08:	2a140002 	orr	w2, w0, w20
   18b0c:	f2a23803 	movk	x3, #0x11c0, lsl #16
   18b10:	79005661 	strh	w1, [x19, #42]
   18b14:	2a2103e1 	mvn	w1, w1
   18b18:	79005a62 	strh	w2, [x19, #44]
   18b1c:	2a2203e2 	mvn	w2, w2
   18b20:	92403c21 	and	x1, x1, #0xffff
   18b24:	92403c42 	and	x2, x2, #0xffff
   18b28:	f9000081 	str	x1, [x4]
   18b2c:	f9000062 	str	x2, [x3]
   18b30:	97fffc48 	bl	17c50 <esddev_unl_cpu>
   18b34:	52800000 	mov	w0, #0x0                   	// #0
   18b38:	a94153f3 	ldp	x19, x20, [sp, #16]
   18b3c:	f94013f5 	ldr	x21, [sp, #32]
   18b40:	a8c37bfd 	ldp	x29, x30, [sp], #48
   18b44:	d65f03c0 	ret

0000000000018b48 <_sd_clear_int_mask>:
   18b48:	a9bd7bfd 	stp	x29, x30, [sp, #-48]!
   18b4c:	910003fd 	mov	x29, sp
   18b50:	f90013f5 	str	x21, [sp, #32]
   18b54:	aa0003f5 	mov	x21, x0
   18b58:	a90153f3 	stp	x19, x20, [sp, #16]
   18b5c:	12003c34 	and	w20, w1, #0xffff
   18b60:	12003c53 	and	w19, w2, #0xffff
   18b64:	97fffc39 	bl	17c48 <esddev_loc_cpu>
   18b68:	794056a1 	ldrh	w1, [x21, #42]
   18b6c:	d2801004 	mov	x4, #0x80                  	// #128
   18b70:	79405aa2 	ldrh	w2, [x21, #44]
   18b74:	f2a23804 	movk	x4, #0x11c0, lsl #16
   18b78:	0a340021 	bic	w1, w1, w20
   18b7c:	d2801103 	mov	x3, #0x88                  	// #136
   18b80:	0a330042 	bic	w2, w2, w19
   18b84:	12003c21 	and	w1, w1, #0xffff
   18b88:	12003c42 	and	w2, w2, #0xffff
   18b8c:	f2a23803 	movk	x3, #0x11c0, lsl #16
   18b90:	2a2103e0 	mvn	w0, w1
   18b94:	790056a1 	strh	w1, [x21, #42]
   18b98:	79005aa2 	strh	w2, [x21, #44]
   18b9c:	2a2203e2 	mvn	w2, w2
   18ba0:	92403c42 	and	x2, x2, #0xffff
   18ba4:	92403c00 	and	x0, x0, #0xffff
   18ba8:	f9000080 	str	x0, [x4]
   18bac:	f9000062 	str	x2, [x3]
   18bb0:	97fffc28 	bl	17c50 <esddev_unl_cpu>
   18bb4:	52800000 	mov	w0, #0x0                   	// #0
   18bb8:	a94153f3 	ldp	x19, x20, [sp, #16]
   18bbc:	f94013f5 	ldr	x21, [sp, #32]
   18bc0:	a8c37bfd 	ldp	x29, x30, [sp], #48
   18bc4:	d65f03c0 	ret

0000000000018bc8 <_sd_clear_info>:
   18bc8:	a9bd7bfd 	stp	x29, x30, [sp, #-48]!
   18bcc:	910003fd 	mov	x29, sp
   18bd0:	a90153f3 	stp	x19, x20, [sp, #16]
   18bd4:	aa0003f3 	mov	x19, x0
   18bd8:	12003c54 	and	w20, w2, #0xffff
   18bdc:	f90013f5 	str	x21, [sp, #32]
   18be0:	12003c35 	and	w21, w1, #0xffff
   18be4:	97fffc19 	bl	17c48 <esddev_loc_cpu>
   18be8:	79404e61 	ldrh	w1, [x19, #38]
   18bec:	79405262 	ldrh	w2, [x19, #40]
   18bf0:	0a350035 	bic	w21, w1, w21
   18bf4:	79004e75 	strh	w21, [x19, #38]
   18bf8:	0a340054 	bic	w20, w2, w20
   18bfc:	79005274 	strh	w20, [x19, #40]
   18c00:	97fffc14 	bl	17c50 <esddev_unl_cpu>
   18c04:	52800000 	mov	w0, #0x0                   	// #0
   18c08:	a94153f3 	ldp	x19, x20, [sp, #16]
   18c0c:	f94013f5 	ldr	x21, [sp, #32]
   18c10:	a8c37bfd 	ldp	x29, x30, [sp], #48
   18c14:	d65f03c0 	ret

0000000000018c18 <_sd_get_int>:
   18c18:	d2800e06 	mov	x6, #0x70                  	// #112
   18c1c:	a9be7bfd 	stp	x29, x30, [sp, #-32]!
   18c20:	f2a23806 	movk	x6, #0x11c0, lsl #16
   18c24:	d2800f05 	mov	x5, #0x78                  	// #120
   18c28:	910003fd 	mov	x29, sp
   18c2c:	f2a23805 	movk	x5, #0x11c0, lsl #16
   18c30:	f94000c3 	ldr	x3, [x6]
   18c34:	a90153f3 	stp	x19, x20, [sp, #16]
   18c38:	79405413 	ldrh	w19, [x0, #42]
   18c3c:	f94000a2 	ldr	x2, [x5]
   18c40:	0a030273 	and	w19, w19, w3
   18c44:	79405814 	ldrh	w20, [x0, #44]
   18c48:	12003e73 	and	w19, w19, #0xffff
   18c4c:	2a3303e4 	mvn	w4, w19
   18c50:	79404c03 	ldrh	w3, [x0, #38]
   18c54:	0a020294 	and	w20, w20, w2
   18c58:	92403c84 	and	x4, x4, #0xffff
   18c5c:	12003e94 	and	w20, w20, #0xffff
   18c60:	f90000c4 	str	x4, [x6]
   18c64:	2a3403e2 	mvn	w2, w20
   18c68:	2a030263 	orr	w3, w19, w3
   18c6c:	92403c42 	and	x2, x2, #0xffff
   18c70:	f90000a2 	str	x2, [x5]
   18c74:	79405002 	ldrh	w2, [x0, #40]
   18c78:	39411404 	ldrb	w4, [x0, #69]
   18c7c:	2a020282 	orr	w2, w20, w2
   18c80:	79004c03 	strh	w3, [x0, #38]
   18c84:	79005002 	strh	w2, [x0, #40]
   18c88:	35000124 	cbnz	w4, 18cac <_sd_get_int+0x94>
   18c8c:	2a140273 	orr	w19, w19, w20
   18c90:	52800000 	mov	w0, #0x0                   	// #0
   18c94:	2a130013 	orr	w19, w0, w19
   18c98:	7100027f 	cmp	w19, #0x0
   18c9c:	5a9f13e0 	csetm	w0, eq  // eq = none
   18ca0:	a94153f3 	ldp	x19, x20, [sp, #16]
   18ca4:	a8c27bfd 	ldp	x29, x30, [sp], #32
   18ca8:	d65f03c0 	ret
   18cac:	97fffc1b 	bl	17d18 <_sd_get_ext_cd_int>
   18cb0:	2a140273 	orr	w19, w19, w20
   18cb4:	12003c00 	and	w0, w0, #0xffff
   18cb8:	2a130013 	orr	w19, w0, w19
   18cbc:	7100027f 	cmp	w19, #0x0
   18cc0:	5a9f13e0 	csetm	w0, eq  // eq = none
   18cc4:	a94153f3 	ldp	x19, x20, [sp, #16]
   18cc8:	a8c27bfd 	ldp	x29, x30, [sp], #32
   18ccc:	d65f03c0 	ret

0000000000018cd0 <esd_check_int>:
   18cd0:	b0000041 	adrp	x1, 21000 <sd_drv_work_area+0x58>
   18cd4:	90000040 	adrp	x0, 20000 <__STACKS_START__+0x700>
   18cd8:	91368000 	add	x0, x0, #0xda0
   18cdc:	b9844c21 	ldrsw	x1, [x1, #1100]
   18ce0:	f8617801 	ldr	x1, [x0, x1, lsl #3]
   18ce4:	b4000181 	cbz	x1, 18d14 <esd_check_int+0x44>
   18ce8:	3940fc20 	ldrb	w0, [x1, #63]
   18cec:	34000100 	cbz	w0, 18d0c <esd_check_int+0x3c>
   18cf0:	79404c22 	ldrh	w2, [x1, #38]
   18cf4:	52800000 	mov	w0, #0x0                   	// #0
   18cf8:	35000082 	cbnz	w2, 18d08 <esd_check_int+0x38>
   18cfc:	79405020 	ldrh	w0, [x1, #40]
   18d00:	7100001f 	cmp	w0, #0x0
   18d04:	5a9f13e0 	csetm	w0, eq  // eq = none
   18d08:	d65f03c0 	ret
   18d0c:	aa0103e0 	mov	x0, x1
   18d10:	17ffffc2 	b	18c18 <_sd_get_int>
   18d14:	12800000 	mov	w0, #0xffffffff            	// #-1
   18d18:	d65f03c0 	ret
   18d1c:	00000000 	.inst	0x00000000 ; undefined

0000000000018d20 <esd_main>:
   18d20:	a9be7bfd 	stp	x29, x30, [sp, #-32]!
   18d24:	90000041 	adrp	x1, 20000 <__STACKS_START__+0x700>
   18d28:	52800002 	mov	w2, #0x0                   	// #0
   18d2c:	910003fd 	mov	x29, sp
   18d30:	913ea021 	add	x1, x1, #0xfa8
   18d34:	d2a23800 	mov	x0, #0x11c00000            	// #297795584
   18d38:	97fffed8 	bl	18898 <esd_init>
   18d3c:	350003a0 	cbnz	w0, 18db0 <esd_main+0x90>
   18d40:	90000040 	adrp	x0, 20000 <__STACKS_START__+0x700>
   18d44:	52804001 	mov	w1, #0x200                 	// #512
   18d48:	9136a000 	add	x0, x0, #0xda8
   18d4c:	9400067d 	bl	1a740 <esd_set_buffer>
   18d50:	350003a0 	cbnz	w0, 18dc4 <esd_main+0xa4>
   18d54:	97fffbe7 	bl	17cf0 <esd_check_media>
   18d58:	35000400 	cbnz	w0, 18dd8 <esd_main+0xb8>
   18d5c:	52a00201 	mov	w1, #0x100000              	// #1048576
   18d60:	52801000 	mov	w0, #0x80                  	// #128
   18d64:	94000277 	bl	19740 <esd_mount>
   18d68:	35000420 	cbnz	w0, 18dec <esd_main+0xcc>
   18d6c:	910067e2 	add	x2, sp, #0x19
   18d70:	910063e1 	add	x1, sp, #0x18
   18d74:	91006be0 	add	x0, sp, #0x1a
   18d78:	390063ff 	strb	wzr, [sp, #24]
   18d7c:	390067ff 	strb	wzr, [sp, #25]
   18d80:	790037ff 	strh	wzr, [sp, #26]
   18d84:	94000625 	bl	1a618 <esd_get_type>
   18d88:	350003c0 	cbnz	w0, 18e00 <esd_main+0xe0>
   18d8c:	794037e0 	ldrh	w0, [sp, #26]
   18d90:	37280040 	tbnz	w0, #5, 18d98 <esd_main+0x78>
   18d94:	36780360 	tbz	w0, #15, 18e00 <esd_main+0xe0>
   18d98:	910073e0 	add	x0, sp, #0x1c
   18d9c:	b9001fff 	str	wzr, [sp, #28]
   18da0:	940002dc 	bl	19910 <esd_get_partition_id>
   18da4:	35000380 	cbnz	w0, 18e14 <esd_main+0xf4>
   18da8:	a8c27bfd 	ldp	x29, x30, [sp], #32
   18dac:	d65f03c0 	ret
   18db0:	90000020 	adrp	x0, 1c000 <vprintf+0x418>
   18db4:	91392000 	add	x0, x0, #0xe48
   18db8:	9400082a 	bl	1ae60 <tf_log>
   18dbc:	12800000 	mov	w0, #0xffffffff            	// #-1
   18dc0:	17fffffa 	b	18da8 <esd_main+0x88>
   18dc4:	90000020 	adrp	x0, 1c000 <vprintf+0x418>
   18dc8:	9139a000 	add	x0, x0, #0xe68
   18dcc:	94000825 	bl	1ae60 <tf_log>
   18dd0:	12800000 	mov	w0, #0xffffffff            	// #-1
   18dd4:	17fffff5 	b	18da8 <esd_main+0x88>
   18dd8:	90000020 	adrp	x0, 1c000 <vprintf+0x418>
   18ddc:	913a4000 	add	x0, x0, #0xe90
   18de0:	94000820 	bl	1ae60 <tf_log>
   18de4:	12800000 	mov	w0, #0xffffffff            	// #-1
   18de8:	17fffff0 	b	18da8 <esd_main+0x88>
   18dec:	90000020 	adrp	x0, 1c000 <vprintf+0x418>
   18df0:	913ae000 	add	x0, x0, #0xeb8
   18df4:	9400081b 	bl	1ae60 <tf_log>
   18df8:	12800000 	mov	w0, #0xffffffff            	// #-1
   18dfc:	17ffffeb 	b	18da8 <esd_main+0x88>
   18e00:	90000020 	adrp	x0, 1c000 <vprintf+0x418>
   18e04:	913b6000 	add	x0, x0, #0xed8
   18e08:	94000816 	bl	1ae60 <tf_log>
   18e0c:	12800000 	mov	w0, #0xffffffff            	// #-1
   18e10:	17ffffe6 	b	18da8 <esd_main+0x88>
   18e14:	90000020 	adrp	x0, 1c000 <vprintf+0x418>
   18e18:	913be000 	add	x0, x0, #0xef8
   18e1c:	94000811 	bl	1ae60 <tf_log>
   18e20:	12800000 	mov	w0, #0xffffffff            	// #-1
   18e24:	17ffffe1 	b	18da8 <esd_main+0x88>

0000000000018e28 <_sd_calc_erase_sector.part.2>:
   18e28:	79416401 	ldrh	w1, [x0, #178]
   18e2c:	52840002 	mov	w2, #0x2000                	// #8192
   18e30:	b9001002 	str	w2, [x0, #16]
   18e34:	530c7c23 	lsr	w3, w1, #12
   18e38:	51000462 	sub	w2, w3, #0x1
   18e3c:	12003c42 	and	w2, w2, #0xffff
   18e40:	7100205f 	cmp	w2, #0x8
   18e44:	54000128 	b.hi	18e68 <_sd_calc_erase_sector.part.2+0x40>  // b.pmore
   18e48:	3942d404 	ldrb	w4, [x0, #181]
   18e4c:	52800202 	mov	w2, #0x10                  	// #16
   18e50:	1ac32042 	lsl	w2, w2, w3
   18e54:	2a012081 	orr	w1, w4, w1, lsl #8
   18e58:	72003c21 	ands	w1, w1, #0xffff
   18e5c:	1b027c21 	mul	w1, w1, w2
   18e60:	1a821021 	csel	w1, w1, w2, ne  // ne = any
   18e64:	b9001001 	str	w1, [x0, #16]
   18e68:	d65f03c0 	ret
   18e6c:	00000000 	.inst	0x00000000 ; undefined

0000000000018e70 <_sd_card_init>:
   18e70:	a9bd7bfd 	stp	x29, x30, [sp, #-48]!
   18e74:	910003fd 	mov	x29, sp
   18e78:	a90153f3 	stp	x19, x20, [sp, #16]
   18e7c:	aa0003f3 	mov	x19, x0
   18e80:	52800074 	mov	w20, #0x3                   	// #3
   18e84:	f90013f5 	str	x21, [sp, #32]
   18e88:	52800001 	mov	w1, #0x0                   	// #0
   18e8c:	aa1303e0 	mov	x0, x19
   18e90:	97fffd36 	bl	18368 <_sd_send_cmd>
   18e94:	34000120 	cbz	w0, 18eb8 <_sd_card_init+0x48>
   18e98:	71000694 	subs	w20, w20, #0x1
   18e9c:	54ffff61 	b.ne	18e88 <_sd_card_init+0x18>  // b.any
   18ea0:	12800015 	mov	w21, #0xffffffff            	// #-1
   18ea4:	2a1503e0 	mov	w0, w21
   18ea8:	a94153f3 	ldp	x19, x20, [sp, #16]
   18eac:	f94013f5 	ldr	x21, [sp, #32]
   18eb0:	a8c37bfd 	ldp	x29, x30, [sp], #48
   18eb4:	d65f03c0 	ret
   18eb8:	39408661 	ldrb	w1, [x19, #33]
   18ebc:	39410e60 	ldrb	w0, [x19, #67]
   18ec0:	321b0021 	orr	w1, w1, #0x20
   18ec4:	39008661 	strb	w1, [x19, #33]
   18ec8:	b9003a7f 	str	wzr, [x19, #56]
   18ecc:	7102001f 	cmp	w0, #0x80
   18ed0:	b9022e7f 	str	wzr, [x19, #556]
   18ed4:	540006a0 	b.eq	18fa8 <_sd_card_init+0x138>  // b.none
   18ed8:	aa1303e0 	mov	x0, x19
   18edc:	97fffdb1 	bl	185a0 <_sd_card_send_ocr>
   18ee0:	b9403a61 	ldr	w1, [x19, #56]
   18ee4:	31002c3f 	cmn	w1, #0xb
   18ee8:	54fffdc0 	b.eq	18ea0 <_sd_card_init+0x30>  // b.none
   18eec:	b9003a7f 	str	wzr, [x19, #56]
   18ef0:	34000220 	cbz	w0, 18f34 <_sd_card_init+0xc4>
   18ef4:	52800074 	mov	w20, #0x3                   	// #3
   18ef8:	52800001 	mov	w1, #0x0                   	// #0
   18efc:	aa1303e0 	mov	x0, x19
   18f00:	97fffd1a 	bl	18368 <_sd_send_cmd>
   18f04:	34000080 	cbz	w0, 18f14 <_sd_card_init+0xa4>
   18f08:	71000694 	subs	w20, w20, #0x1
   18f0c:	54ffff61 	b.ne	18ef8 <_sd_card_init+0x88>  // b.any
   18f10:	17ffffe4 	b	18ea0 <_sd_card_init+0x30>
   18f14:	b9003a7f 	str	wzr, [x19, #56]
   18f18:	52800201 	mov	w1, #0x10                  	// #16
   18f1c:	aa1303e0 	mov	x0, x19
   18f20:	97fffda0 	bl	185a0 <_sd_card_send_ocr>
   18f24:	35000c20 	cbnz	w0, 190a8 <_sd_card_init+0x238>
   18f28:	52800200 	mov	w0, #0x10                  	// #16
   18f2c:	39008660 	strb	w0, [x19, #33]
   18f30:	b9003a7f 	str	wzr, [x19, #56]
   18f34:	52800004 	mov	w4, #0x0                   	// #0
   18f38:	52800003 	mov	w3, #0x0                   	// #0
   18f3c:	52800082 	mov	w2, #0x4                   	// #4
   18f40:	52800041 	mov	w1, #0x2                   	// #2
   18f44:	aa1303e0 	mov	x0, x19
   18f48:	97fffd7e 	bl	18540 <_sd_card_send_cmd_arg>
   18f4c:	2a0003f5 	mov	w21, w0
   18f50:	35fffa80 	cbnz	w0, 18ea0 <_sd_card_init+0x30>
   18f54:	39408660 	ldrb	w0, [x19, #33]
   18f58:	52800421 	mov	w1, #0x21                  	// #33
   18f5c:	6a00003f 	tst	w1, w0
   18f60:	54000420 	b.eq	18fe4 <_sd_card_init+0x174>  // b.none
   18f64:	52800074 	mov	w20, #0x3                   	// #3
   18f68:	52800004 	mov	w4, #0x0                   	// #0
   18f6c:	52800003 	mov	w3, #0x0                   	// #0
   18f70:	528000e2 	mov	w2, #0x7                   	// #7
   18f74:	52800061 	mov	w1, #0x3                   	// #3
   18f78:	aa1303e0 	mov	x0, x19
   18f7c:	97fffd71 	bl	18540 <_sd_card_send_cmd_arg>
   18f80:	35fff900 	cbnz	w0, 18ea0 <_sd_card_init+0x30>
   18f84:	79413a60 	ldrh	w0, [x19, #156]
   18f88:	71000694 	subs	w20, w20, #0x1
   18f8c:	35000820 	cbnz	w0, 19090 <_sd_card_init+0x220>
   18f90:	54fffec1 	b.ne	18f68 <_sd_card_init+0xf8>  // b.any
   18f94:	aa1303e0 	mov	x0, x19
   18f98:	128001c1 	mov	w1, #0xfffffff1            	// #-15
   18f9c:	12800015 	mov	w21, #0xffffffff            	// #-1
   18fa0:	94000598 	bl	1a600 <_sd_set_err>
   18fa4:	17ffffc0 	b	18ea4 <_sd_card_init+0x34>
   18fa8:	7940ea63 	ldrh	w3, [x19, #116]
   18fac:	52800142 	mov	w2, #0xa                   	// #10
   18fb0:	7940ee64 	ldrh	w4, [x19, #118]
   18fb4:	52808101 	mov	w1, #0x408                 	// #1032
   18fb8:	aa1303e0 	mov	x0, x19
   18fbc:	97fffd61 	bl	18540 <_sd_card_send_cmd_arg>
   18fc0:	35000540 	cbnz	w0, 19068 <_sd_card_init+0x1f8>
   18fc4:	7940ea60 	ldrh	w0, [x19, #116]
   18fc8:	72140c1f 	tst	w0, #0xf000
   18fcc:	54000821 	b.ne	190d0 <_sd_card_init+0x260>  // b.any
   18fd0:	3941da60 	ldrb	w0, [x19, #118]
   18fd4:	7102a81f 	cmp	w0, #0xaa
   18fd8:	54000741 	b.ne	190c0 <_sd_card_init+0x250>  // b.any
   18fdc:	39408661 	ldrb	w1, [x19, #33]
   18fe0:	17ffffbe 	b	18ed8 <_sd_card_init+0x68>
   18fe4:	39411663 	ldrb	w3, [x19, #69]
   18fe8:	52800022 	mov	w2, #0x1                   	// #1
   18fec:	52800004 	mov	w4, #0x0                   	// #0
   18ff0:	52800061 	mov	w1, #0x3                   	// #3
   18ff4:	0b020063 	add	w3, w3, w2
   18ff8:	79013a63 	strh	w3, [x19, #156]
   18ffc:	aa1303e0 	mov	x0, x19
   19000:	97fffd50 	bl	18540 <_sd_card_send_cmd_arg>
   19004:	35fff4e0 	cbnz	w0, 18ea0 <_sd_card_init+0x30>
   19008:	39408660 	ldrb	w0, [x19, #33]
   1900c:	7100041f 	cmp	w0, #0x1
   19010:	54fff4a0 	b.eq	18ea4 <_sd_card_init+0x34>  // b.none
   19014:	79413a63 	ldrh	w3, [x19, #156]
   19018:	52800004 	mov	w4, #0x0                   	// #0
   1901c:	528000a2 	mov	w2, #0x5                   	// #5
   19020:	52800121 	mov	w1, #0x9                   	// #9
   19024:	aa1303e0 	mov	x0, x19
   19028:	97fffd46 	bl	18540 <_sd_card_send_cmd_arg>
   1902c:	35fff3a0 	cbnz	w0, 18ea0 <_sd_card_init+0x30>
   19030:	39408660 	ldrb	w0, [x19, #33]
   19034:	7901327f 	strh	wzr, [x19, #152]
   19038:	721c041f 	tst	w0, #0x30
   1903c:	54fff340 	b.eq	18ea4 <_sd_card_init+0x34>  // b.none
   19040:	79411e60 	ldrh	w0, [x19, #142]
   19044:	3627f300 	tbz	w0, #4, 18ea4 <_sd_card_init+0x34>
   19048:	52808080 	mov	w0, #0x404                 	// #1028
   1904c:	79013260 	strh	w0, [x19, #152]
   19050:	52800015 	mov	w21, #0x0                   	// #0
   19054:	2a1503e0 	mov	w0, w21
   19058:	a94153f3 	ldp	x19, x20, [sp, #16]
   1905c:	f94013f5 	ldr	x21, [sp, #32]
   19060:	a8c37bfd 	ldp	x29, x30, [sp], #48
   19064:	d65f03c0 	ret
   19068:	52800074 	mov	w20, #0x3                   	// #3
   1906c:	52800001 	mov	w1, #0x0                   	// #0
   19070:	aa1303e0 	mov	x0, x19
   19074:	97fffcbd 	bl	18368 <_sd_send_cmd>
   19078:	34000060 	cbz	w0, 19084 <_sd_card_init+0x214>
   1907c:	71000694 	subs	w20, w20, #0x1
   19080:	54ffff61 	b.ne	1906c <_sd_card_init+0x1fc>  // b.any
   19084:	39408661 	ldrb	w1, [x19, #33]
   19088:	b9003a7f 	str	wzr, [x19, #56]
   1908c:	17ffff93 	b	18ed8 <_sd_card_init+0x68>
   19090:	39408660 	ldrb	w0, [x19, #33]
   19094:	3607fbc0 	tbz	w0, #0, 1900c <_sd_card_init+0x19c>
   19098:	39408e61 	ldrb	w1, [x19, #35]
   1909c:	321e0021 	orr	w1, w1, #0x4
   190a0:	39008e61 	strb	w1, [x19, #35]
   190a4:	17ffffda 	b	1900c <_sd_card_init+0x19c>
   190a8:	3900867f 	strb	wzr, [x19, #33]
   190ac:	aa1303e0 	mov	x0, x19
   190b0:	12800201 	mov	w1, #0xffffffef            	// #-17
   190b4:	12800015 	mov	w21, #0xffffffff            	// #-1
   190b8:	94000552 	bl	1a600 <_sd_set_err>
   190bc:	17ffff7a 	b	18ea4 <_sd_card_init+0x34>
   190c0:	128008e0 	mov	w0, #0xffffffb8            	// #-72
   190c4:	12800015 	mov	w21, #0xffffffff            	// #-1
   190c8:	b9003a60 	str	w0, [x19, #56]
   190cc:	17ffff76 	b	18ea4 <_sd_card_init+0x34>
   190d0:	128008a0 	mov	w0, #0xffffffba            	// #-70
   190d4:	12800015 	mov	w21, #0xffffffff            	// #-1
   190d8:	b9003a60 	str	w0, [x19, #56]
   190dc:	17ffff72 	b	18ea4 <_sd_card_init+0x34>

00000000000190e0 <_sd_read_byte>:
   190e0:	a9bd7bfd 	stp	x29, x30, [sp, #-48]!
   190e4:	d2800407 	mov	x7, #0x20                  	// #32
   190e8:	f2a23807 	movk	x7, #0x11c0, lsl #16
   190ec:	910003fd 	mov	x29, sp
   190f0:	d2801306 	mov	x6, #0x98                  	// #152
   190f4:	f2a23806 	movk	x6, #0x11c0, lsl #16
   190f8:	a90153f3 	stp	x19, x20, [sp, #16]
   190fc:	12003c34 	and	w20, w1, #0xffff
   19100:	12003c63 	and	w3, w3, #0xffff
   19104:	a9025bf5 	stp	x21, x22, [sp, #32]
   19108:	12003cb5 	and	w21, w5, #0xffff
   1910c:	92403ea1 	and	x1, x21, #0xffff
   19110:	f90000ff 	str	xzr, [x7]
   19114:	aa0403f6 	mov	x22, x4
   19118:	f90000c1 	str	x1, [x6]
   1911c:	aa0003f3 	mov	x19, x0
   19120:	12003c41 	and	w1, w2, #0xffff
   19124:	36300994 	tbz	w20, #6, 19254 <_sd_read_byte+0x174>
   19128:	2a0103e2 	mov	w2, w1
   1912c:	2a1403e1 	mov	w1, w20
   19130:	97fffcdc 	bl	184a0 <_sd_send_acmd>
   19134:	350005e0 	cbnz	w0, 191f0 <_sd_read_byte+0x110>
   19138:	52800021 	mov	w1, #0x1                   	// #1
   1913c:	aa1303e0 	mov	x0, x19
   19140:	97fffb62 	bl	17ec8 <_sd_get_resp>
   19144:	350005e0 	cbnz	w0, 19200 <_sd_read_byte+0x120>
   19148:	128fd002 	mov	w2, #0xffff817f            	// #-32385
   1914c:	52800081 	mov	w1, #0x4                   	// #4
   19150:	aa1303e0 	mov	x0, x19
   19154:	97fffe5f 	bl	18ad0 <_sd_set_int_mask>
   19158:	52807d00 	mov	w0, #0x3e8                 	// #1000
   1915c:	97fffa9f 	bl	17bd8 <esddev_int_wait>
   19160:	350008e0 	cbnz	w0, 1927c <_sd_read_byte+0x19c>
   19164:	79405261 	ldrh	w1, [x19, #40]
   19168:	52900fe0 	mov	w0, #0x807f                	// #32895
   1916c:	6a00003f 	tst	w1, w0
   19170:	54000801 	b.ne	19270 <_sd_read_byte+0x190>  // b.any
   19174:	52802002 	mov	w2, #0x100                 	// #256
   19178:	52800001 	mov	w1, #0x0                   	// #0
   1917c:	aa1303e0 	mov	x0, x19
   19180:	97fffe92 	bl	18bc8 <_sd_clear_info>
   19184:	f9400261 	ldr	x1, [x19]
   19188:	2a1503e2 	mov	w2, w21
   1918c:	aa1603e0 	mov	x0, x22
   19190:	91030021 	add	x1, x1, #0xc0
   19194:	97fffab7 	bl	17c70 <esddev_read_data>
   19198:	350007a0 	cbnz	w0, 1928c <_sd_read_byte+0x1ac>
   1919c:	52807d00 	mov	w0, #0x3e8                 	// #1000
   191a0:	97fffa8e 	bl	17bd8 <esddev_int_wait>
   191a4:	2a0003f4 	mov	w20, w0
   191a8:	350006a0 	cbnz	w0, 1927c <_sd_read_byte+0x19c>
   191ac:	79405261 	ldrh	w1, [x19, #40]
   191b0:	52900fe0 	mov	w0, #0x807f                	// #32895
   191b4:	6a00003f 	tst	w1, w0
   191b8:	540005c1 	b.ne	19270 <_sd_read_byte+0x190>  // b.any
   191bc:	128ff002 	mov	w2, #0xffff807f            	// #-32641
   191c0:	52800081 	mov	w1, #0x4                   	// #4
   191c4:	aa1303e0 	mov	x0, x19
   191c8:	97fffe80 	bl	18bc8 <_sd_clear_info>
   191cc:	aa1303e0 	mov	x0, x19
   191d0:	128fd002 	mov	w2, #0xffff817f            	// #-32385
   191d4:	52800081 	mov	w1, #0x4                   	// #4
   191d8:	97fffe5c 	bl	18b48 <_sd_clear_int_mask>
   191dc:	2a1403e0 	mov	w0, w20
   191e0:	a94153f3 	ldp	x19, x20, [sp, #16]
   191e4:	a9425bf5 	ldp	x21, x22, [sp, #32]
   191e8:	a8c37bfd 	ldp	x29, x30, [sp], #48
   191ec:	d65f03c0 	ret
   191f0:	b9403a60 	ldr	w0, [x19, #56]
   191f4:	11001c00 	add	w0, w0, #0x7
   191f8:	7100041f 	cmp	w0, #0x1
   191fc:	54fff9e9 	b.ls	19138 <_sd_read_byte+0x58>  // b.plast
   19200:	d2800400 	mov	x0, #0x20                  	// #32
   19204:	d2800023 	mov	x3, #0x1                   	// #1
   19208:	f2a23800 	movk	x0, #0x11c0, lsl #16
   1920c:	128ff002 	mov	w2, #0xffff807f            	// #-32641
   19210:	52800081 	mov	w1, #0x4                   	// #4
   19214:	12800014 	mov	w20, #0xffffffff            	// #-1
   19218:	f9000003 	str	x3, [x0]
   1921c:	aa1303e0 	mov	x0, x19
   19220:	97fffe6a 	bl	18bc8 <_sd_clear_info>
   19224:	52800081 	mov	w1, #0x4                   	// #4
   19228:	aa1303e0 	mov	x0, x19
   1922c:	128fd002 	mov	w2, #0xffff817f            	// #-32385
   19230:	97fffe46 	bl	18b48 <_sd_clear_int_mask>
   19234:	d2800e01 	mov	x1, #0x70                  	// #112
   19238:	f2a23801 	movk	x1, #0x11c0, lsl #16
   1923c:	f9400020 	ldr	x0, [x1]
   19240:	12003c00 	and	w0, w0, #0xffff
   19244:	121d7800 	and	w0, w0, #0xfffffffb
   19248:	92403c00 	and	x0, x0, #0xffff
   1924c:	f9000020 	str	x0, [x1]
   19250:	17ffffe3 	b	191dc <_sd_read_byte+0xfc>
   19254:	2a0303e2 	mov	w2, w3
   19258:	97fffae6 	bl	17df0 <_sd_set_arg>
   1925c:	2a1403e1 	mov	w1, w20
   19260:	aa1303e0 	mov	x0, x19
   19264:	97fffc41 	bl	18368 <_sd_send_cmd>
   19268:	34fff680 	cbz	w0, 19138 <_sd_read_byte+0x58>
   1926c:	17ffffe5 	b	19200 <_sd_read_byte+0x120>
   19270:	aa1303e0 	mov	x0, x19
   19274:	97fffc1b 	bl	182e0 <_sd_check_info2_err>
   19278:	17ffffe2 	b	19200 <_sd_read_byte+0x120>
   1927c:	12800101 	mov	w1, #0xfffffff7            	// #-9
   19280:	aa1303e0 	mov	x0, x19
   19284:	940004df 	bl	1a600 <_sd_set_err>
   19288:	17ffffde 	b	19200 <_sd_read_byte+0x120>
   1928c:	128003a1 	mov	w1, #0xffffffe2            	// #-30
   19290:	aa1303e0 	mov	x0, x19
   19294:	940004db 	bl	1a600 <_sd_set_err>
   19298:	17ffffda 	b	19200 <_sd_read_byte+0x120>
   1929c:	00000000 	.inst	0x00000000 ; undefined

00000000000192a0 <_sd_card_switch_func>:
   192a0:	a9bd7bfd 	stp	x29, x30, [sp, #-48]!
   192a4:	2a0203e3 	mov	w3, w2
   192a8:	52800805 	mov	w5, #0x40                  	// #64
   192ac:	910003fd 	mov	x29, sp
   192b0:	a90153f3 	stp	x19, x20, [sp, #16]
   192b4:	90000053 	adrp	x19, 21000 <sd_drv_work_area+0x58>
   192b8:	9108a273 	add	x19, x19, #0x228
   192bc:	f90013f5 	str	x21, [sp, #32]
   192c0:	12003c35 	and	w21, w1, #0xffff
   192c4:	aa1303e4 	mov	x4, x19
   192c8:	aa0003f4 	mov	x20, x0
   192cc:	2a1503e2 	mov	w2, w21
   192d0:	528380c1 	mov	w1, #0x1c06                	// #7174
   192d4:	97ffff83 	bl	190e0 <_sd_read_byte>
   192d8:	350002e0 	cbnz	w0, 19334 <_sd_card_switch_func+0x94>
   192dc:	9102e284 	add	x4, x20, #0xb8
   192e0:	d2800001 	mov	x1, #0x0                   	// #0
   192e4:	d503201f 	nop
   192e8:	78616a62 	ldrh	w2, [x19, x1]
   192ec:	53087c43 	lsr	w3, w2, #8
   192f0:	2a022062 	orr	w2, w3, w2, lsl #8
   192f4:	78216882 	strh	w2, [x4, x1]
   192f8:	91000821 	add	x1, x1, #0x2
   192fc:	f100483f 	cmp	x1, #0x12
   19300:	54ffff41 	b.ne	192e8 <_sd_card_switch_func+0x48>  // b.any
   19304:	37780115 	tbnz	w21, #15, 19324 <_sd_card_switch_func+0x84>
   19308:	79418a82 	ldrh	w2, [x20, #196]
   1930c:	39407a81 	ldrb	w1, [x20, #30]
   19310:	f27f005f 	tst	x2, #0x2
   19314:	121b7822 	and	w2, w1, #0xffffffef
   19318:	321c0021 	orr	w1, w1, #0x10
   1931c:	1a821021 	csel	w1, w1, w2, ne  // ne = any
   19320:	39007a81 	strb	w1, [x20, #30]
   19324:	a94153f3 	ldp	x19, x20, [sp, #16]
   19328:	f94013f5 	ldr	x21, [sp, #32]
   1932c:	a8c37bfd 	ldp	x29, x30, [sp], #48
   19330:	d65f03c0 	ret
   19334:	12800000 	mov	w0, #0xffffffff            	// #-1
   19338:	17fffffb 	b	19324 <_sd_card_switch_func+0x84>
   1933c:	00000000 	.inst	0x00000000 ; undefined

0000000000019340 <_sd_set_mem_speed>:
   19340:	a9be7bfd 	stp	x29, x30, [sp, #-32]!
   19344:	12801fe2 	mov	w2, #0xffffff00            	// #-256
   19348:	52801fe1 	mov	w1, #0xff                  	// #255
   1934c:	910003fd 	mov	x29, sp
   19350:	f9000bf3 	str	x19, [sp, #16]
   19354:	aa0003f3 	mov	x19, x0
   19358:	97ffffd2 	bl	192a0 <_sd_card_switch_func>
   1935c:	35000300 	cbnz	w0, 193bc <_sd_set_mem_speed+0x7c>
   19360:	39407a61 	ldrb	w1, [x19, #30]
   19364:	37200081 	tbnz	w1, #4, 19374 <_sd_set_mem_speed+0x34>
   19368:	f9400bf3 	ldr	x19, [sp, #16]
   1936c:	a8c27bfd 	ldp	x29, x30, [sp], #32
   19370:	d65f03c0 	ret
   19374:	12801fc2 	mov	w2, #0xffffff01            	// #-255
   19378:	128fe001 	mov	w1, #0xffff80ff            	// #-32513
   1937c:	aa1303e0 	mov	x0, x19
   19380:	97ffffc8 	bl	192a0 <_sd_card_switch_func>
   19384:	350001c0 	cbnz	w0, 193bc <_sd_set_mem_speed+0x7c>
   19388:	39408661 	ldrb	w1, [x19, #33]
   1938c:	7100803f 	cmp	w1, #0x20
   19390:	540000c1 	b.ne	193a8 <_sd_set_mem_speed+0x68>  // b.any
   19394:	39407a61 	ldrb	w1, [x19, #30]
   19398:	528000c2 	mov	w2, #0x6                   	// #6
   1939c:	39005a62 	strb	w2, [x19, #22]
   193a0:	32000021 	orr	w1, w1, #0x1
   193a4:	39007a61 	strb	w1, [x19, #30]
   193a8:	52800b41 	mov	w1, #0x5a                  	// #90
   193ac:	39023661 	strb	w1, [x19, #141]
   193b0:	f9400bf3 	ldr	x19, [sp, #16]
   193b4:	a8c27bfd 	ldp	x29, x30, [sp], #32
   193b8:	d65f03c0 	ret
   193bc:	b9403a60 	ldr	w0, [x19, #56]
   193c0:	f9400bf3 	ldr	x19, [sp, #16]
   193c4:	a8c27bfd 	ldp	x29, x30, [sp], #32
   193c8:	d65f03c0 	ret
   193cc:	00000000 	.inst	0x00000000 ; undefined

00000000000193d0 <_sd_card_get_status>:
   193d0:	a9be7bfd 	stp	x29, x30, [sp, #-32]!
   193d4:	52800805 	mov	w5, #0x40                  	// #64
   193d8:	52800003 	mov	w3, #0x0                   	// #0
   193dc:	910003fd 	mov	x29, sp
   193e0:	a90153f3 	stp	x19, x20, [sp, #16]
   193e4:	90000053 	adrp	x19, 21000 <sd_drv_work_area+0x58>
   193e8:	9108a273 	add	x19, x19, #0x228
   193ec:	aa1303e4 	mov	x4, x19
   193f0:	aa0003f4 	mov	x20, x0
   193f4:	52800002 	mov	w2, #0x0                   	// #0
   193f8:	528009a1 	mov	w1, #0x4d                  	// #77
   193fc:	97ffff39 	bl	190e0 <_sd_read_byte>
   19400:	350003e0 	cbnz	w0, 1947c <_sd_card_get_status+0xac>
   19404:	39400a61 	ldrb	w1, [x19, #2]
   19408:	35000301 	cbnz	w1, 19468 <_sd_card_get_status+0x98>
   1940c:	39400e61 	ldrb	w1, [x19, #3]
   19410:	7100043f 	cmp	w1, #0x1
   19414:	54000220 	b.eq	19458 <_sd_card_get_status+0x88>  // b.none
   19418:	39402263 	ldrb	w3, [x19, #8]
   1941c:	9102a284 	add	x4, x20, #0xa8
   19420:	39402662 	ldrb	w2, [x19, #9]
   19424:	d2800001 	mov	x1, #0x0                   	// #0
   19428:	39007e83 	strb	w3, [x20, #31]
   1942c:	39008282 	strb	w2, [x20, #32]
   19430:	78616a62 	ldrh	w2, [x19, x1]
   19434:	53087c43 	lsr	w3, w2, #8
   19438:	2a022062 	orr	w2, w3, w2, lsl #8
   1943c:	78216882 	strh	w2, [x4, x1]
   19440:	91000821 	add	x1, x1, #0x2
   19444:	f100383f 	cmp	x1, #0xe
   19448:	54ffff41 	b.ne	19430 <_sd_card_get_status+0x60>  // b.any
   1944c:	a94153f3 	ldp	x19, x20, [sp, #16]
   19450:	a8c27bfd 	ldp	x29, x30, [sp], #32
   19454:	d65f03c0 	ret
   19458:	39408a81 	ldrb	w1, [x20, #34]
   1945c:	321c0021 	orr	w1, w1, #0x10
   19460:	39008a81 	strb	w1, [x20, #34]
   19464:	17ffffed 	b	19418 <_sd_card_get_status+0x48>
   19468:	128001e1 	mov	w1, #0xfffffff0            	// #-16
   1946c:	aa1403e0 	mov	x0, x20
   19470:	94000464 	bl	1a600 <_sd_set_err>
   19474:	12800000 	mov	w0, #0xffffffff            	// #-1
   19478:	17ffffe8 	b	19418 <_sd_card_get_status+0x48>
   1947c:	12800000 	mov	w0, #0xffffffff            	// #-1
   19480:	17fffff3 	b	1944c <_sd_card_get_status+0x7c>
   19484:	00000000 	.inst	0x00000000 ; undefined

0000000000019488 <_sd_card_get_scr>:
   19488:	a9bd7bfd 	stp	x29, x30, [sp, #-48]!
   1948c:	52800105 	mov	w5, #0x8                   	// #8
   19490:	52800003 	mov	w3, #0x0                   	// #0
   19494:	910003fd 	mov	x29, sp
   19498:	a90153f3 	stp	x19, x20, [sp, #16]
   1949c:	52800002 	mov	w2, #0x0                   	// #0
   194a0:	aa0003f4 	mov	x20, x0
   194a4:	f90013f5 	str	x21, [sp, #32]
   194a8:	90000055 	adrp	x21, 21000 <sd_drv_work_area+0x58>
   194ac:	9108a2b3 	add	x19, x21, #0x228
   194b0:	52800e61 	mov	w1, #0x73                  	// #115
   194b4:	aa1303e4 	mov	x4, x19
   194b8:	97ffff0a 	bl	190e0 <_sd_read_byte>
   194bc:	350002a0 	cbnz	w0, 19510 <_sd_card_get_scr+0x88>
   194c0:	794452a4 	ldrh	w4, [x21, #552]
   194c4:	79400663 	ldrh	w3, [x19, #2]
   194c8:	79400a62 	ldrh	w2, [x19, #4]
   194cc:	79400e61 	ldrh	w1, [x19, #6]
   194d0:	53087c86 	lsr	w6, w4, #8
   194d4:	53087c65 	lsr	w5, w3, #8
   194d8:	2a0420c4 	orr	w4, w6, w4, lsl #8
   194dc:	2a0320a3 	orr	w3, w5, w3, lsl #8
   194e0:	53087c46 	lsr	w6, w2, #8
   194e4:	53087c25 	lsr	w5, w1, #8
   194e8:	2a0220c2 	orr	w2, w6, w2, lsl #8
   194ec:	2a0120a1 	orr	w1, w5, w1, lsl #8
   194f0:	79014284 	strh	w4, [x20, #160]
   194f4:	79014683 	strh	w3, [x20, #162]
   194f8:	79014a82 	strh	w2, [x20, #164]
   194fc:	79014e81 	strh	w1, [x20, #166]
   19500:	a94153f3 	ldp	x19, x20, [sp, #16]
   19504:	f94013f5 	ldr	x21, [sp, #32]
   19508:	a8c37bfd 	ldp	x29, x30, [sp], #48
   1950c:	d65f03c0 	ret
   19510:	12800000 	mov	w0, #0xffffffff            	// #-1
   19514:	17fffffb 	b	19500 <_sd_card_get_scr+0x78>

0000000000019518 <_sd_card_query_partitions.constprop.3>:
   19518:	a9be7bfd 	stp	x29, x30, [sp, #-32]!
   1951c:	aa0103e4 	mov	x4, x1
   19520:	52800003 	mov	w3, #0x0                   	// #0
   19524:	910003fd 	mov	x29, sp
   19528:	a90153f3 	stp	x19, x20, [sp, #16]
   1952c:	aa0003f3 	mov	x19, x0
   19530:	52804005 	mov	w5, #0x200                 	// #512
   19534:	128bdfe2 	mov	w2, #0xffffa100            	// #-24320
   19538:	528385a1 	mov	w1, #0x1c2d                	// #7213
   1953c:	97fffee9 	bl	190e0 <_sd_read_byte>
   19540:	79413a63 	ldrh	w3, [x19, #156]
   19544:	52800004 	mov	w4, #0x0                   	// #0
   19548:	35000140 	cbnz	w0, 19570 <_sd_card_query_partitions.constprop.3+0x58>
   1954c:	52800022 	mov	w2, #0x1                   	// #1
   19550:	528001a1 	mov	w1, #0xd                   	// #13
   19554:	aa1303e0 	mov	x0, x19
   19558:	97fffbfa 	bl	18540 <_sd_card_send_cmd_arg>
   1955c:	b9403a74 	ldr	w20, [x19, #56]
   19560:	2a1403e0 	mov	w0, w20
   19564:	a94153f3 	ldp	x19, x20, [sp, #16]
   19568:	a8c27bfd 	ldp	x29, x30, [sp], #32
   1956c:	d65f03c0 	ret
   19570:	b9403a74 	ldr	w20, [x19, #56]
   19574:	52800022 	mov	w2, #0x1                   	// #1
   19578:	528001a1 	mov	w1, #0xd                   	// #13
   1957c:	aa1303e0 	mov	x0, x19
   19580:	97fffbf0 	bl	18540 <_sd_card_send_cmd_arg>
   19584:	b9003a74 	str	w20, [x19, #56]
   19588:	2a1403e0 	mov	w0, w20
   1958c:	a94153f3 	ldp	x19, x20, [sp, #16]
   19590:	a8c27bfd 	ldp	x29, x30, [sp], #32
   19594:	d65f03c0 	ret

0000000000019598 <_sd_card_select_partition>:
   19598:	a9be7bfd 	stp	x29, x30, [sp, #-32]!
   1959c:	53181c23 	ubfiz	w3, w1, #8, #8
   195a0:	52800004 	mov	w4, #0x0                   	// #0
   195a4:	910003fd 	mov	x29, sp
   195a8:	a90153f3 	stp	x19, x20, [sp, #16]
   195ac:	aa0003f3 	mov	x19, x0
   195b0:	52800042 	mov	w2, #0x2                   	// #2
   195b4:	5280a561 	mov	w1, #0x52b                 	// #1323
   195b8:	97fffbe2 	bl	18540 <_sd_card_send_cmd_arg>
   195bc:	79413a63 	ldrh	w3, [x19, #156]
   195c0:	52800004 	mov	w4, #0x0                   	// #0
   195c4:	35000140 	cbnz	w0, 195ec <_sd_card_select_partition+0x54>
   195c8:	52800022 	mov	w2, #0x1                   	// #1
   195cc:	528001a1 	mov	w1, #0xd                   	// #13
   195d0:	aa1303e0 	mov	x0, x19
   195d4:	97fffbdb 	bl	18540 <_sd_card_send_cmd_arg>
   195d8:	b9403a74 	ldr	w20, [x19, #56]
   195dc:	2a1403e0 	mov	w0, w20
   195e0:	a94153f3 	ldp	x19, x20, [sp, #16]
   195e4:	a8c27bfd 	ldp	x29, x30, [sp], #32
   195e8:	d65f03c0 	ret
   195ec:	b9403a74 	ldr	w20, [x19, #56]
   195f0:	52800022 	mov	w2, #0x1                   	// #1
   195f4:	528001a1 	mov	w1, #0xd                   	// #13
   195f8:	aa1303e0 	mov	x0, x19
   195fc:	97fffbd1 	bl	18540 <_sd_card_send_cmd_arg>
   19600:	b9003a74 	str	w20, [x19, #56]
   19604:	2a1403e0 	mov	w0, w20
   19608:	a94153f3 	ldp	x19, x20, [sp, #16]
   1960c:	a8c27bfd 	ldp	x29, x30, [sp], #32
   19610:	d65f03c0 	ret
   19614:	00000000 	.inst	0x00000000 ; undefined

0000000000019618 <_sd_mem_mount>:
   19618:	a9be7bfd 	stp	x29, x30, [sp, #-32]!
   1961c:	910003fd 	mov	x29, sp
   19620:	a90153f3 	stp	x19, x20, [sp, #16]
   19624:	aa0003f3 	mov	x19, x0
   19628:	39408401 	ldrb	w1, [x0, #33]
   1962c:	370000a1 	tbnz	w1, #0, 19640 <_sd_mem_mount+0x28>
   19630:	39405801 	ldrb	w1, [x0, #22]
   19634:	52800022 	mov	w2, #0x1                   	// #1
   19638:	94000388 	bl	1a458 <_sd_set_clock>
   1963c:	35000100 	cbnz	w0, 1965c <_sd_mem_mount+0x44>
   19640:	79413a63 	ldrh	w3, [x19, #156]
   19644:	52800004 	mov	w4, #0x0                   	// #0
   19648:	52800042 	mov	w2, #0x2                   	// #2
   1964c:	528000e1 	mov	w1, #0x7                   	// #7
   19650:	aa1303e0 	mov	x0, x19
   19654:	97fffbbb 	bl	18540 <_sd_card_send_cmd_arg>
   19658:	340000c0 	cbz	w0, 19670 <_sd_mem_mount+0x58>
   1965c:	b9403a74 	ldr	w20, [x19, #56]
   19660:	2a1403e0 	mov	w0, w20
   19664:	a94153f3 	ldp	x19, x20, [sp, #16]
   19668:	a8c27bfd 	ldp	x29, x30, [sp], #32
   1966c:	d65f03c0 	ret
   19670:	52800021 	mov	w1, #0x1                   	// #1
   19674:	aa1303e0 	mov	x0, x19
   19678:	97ffffc8 	bl	19598 <_sd_card_select_partition>
   1967c:	2a0003f4 	mov	w20, w0
   19680:	340004a0 	cbz	w0, 19714 <_sd_mem_mount+0xfc>
   19684:	b9003a7f 	str	wzr, [x19, #56]
   19688:	52804004 	mov	w4, #0x200                 	// #512
   1968c:	52800003 	mov	w3, #0x0                   	// #0
   19690:	52800022 	mov	w2, #0x1                   	// #1
   19694:	52800201 	mov	w1, #0x10                  	// #16
   19698:	aa1303e0 	mov	x0, x19
   1969c:	97fffba9 	bl	18540 <_sd_card_send_cmd_arg>
   196a0:	2a0003f4 	mov	w20, w0
   196a4:	35fffdc0 	cbnz	w0, 1965c <_sd_mem_mount+0x44>
   196a8:	39408660 	ldrb	w0, [x19, #33]
   196ac:	362ffda0 	tbz	w0, #5, 19660 <_sd_mem_mount+0x48>
   196b0:	52800021 	mov	w1, #0x1                   	// #1
   196b4:	aa1303e0 	mov	x0, x19
   196b8:	9400038c 	bl	1a4e8 <_sd_set_port>
   196bc:	39408660 	ldrb	w0, [x19, #33]
   196c0:	362ffd00 	tbz	w0, #5, 19660 <_sd_mem_mount+0x48>
   196c4:	52800003 	mov	w3, #0x0                   	// #0
   196c8:	52800002 	mov	w2, #0x0                   	// #0
   196cc:	52800d41 	mov	w1, #0x6a                  	// #106
   196d0:	aa1303e0 	mov	x0, x19
   196d4:	97fffb73 	bl	184a0 <_sd_send_acmd>
   196d8:	35fffc20 	cbnz	w0, 1965c <_sd_mem_mount+0x44>
   196dc:	52800021 	mov	w1, #0x1                   	// #1
   196e0:	aa1303e0 	mov	x0, x19
   196e4:	97fff9f9 	bl	17ec8 <_sd_get_resp>
   196e8:	35fffba0 	cbnz	w0, 1965c <_sd_mem_mount+0x44>
   196ec:	39408660 	ldrb	w0, [x19, #33]
   196f0:	362ffb80 	tbz	w0, #5, 19660 <_sd_mem_mount+0x48>
   196f4:	aa1303e0 	mov	x0, x19
   196f8:	97ffff36 	bl	193d0 <_sd_card_get_status>
   196fc:	35fffb00 	cbnz	w0, 1965c <_sd_mem_mount+0x44>
   19700:	52800041 	mov	w1, #0x2                   	// #2
   19704:	aa1303e0 	mov	x0, x19
   19708:	940003dc 	bl	1a678 <_sd_get_size>
   1970c:	34fffaa0 	cbz	w0, 19660 <_sd_mem_mount+0x48>
   19710:	17ffffd3 	b	1965c <_sd_mem_mount+0x44>
   19714:	f9411261 	ldr	x1, [x19, #544]
   19718:	aa1303e0 	mov	x0, x19
   1971c:	97ffff7f 	bl	19518 <_sd_card_query_partitions.constprop.3>
   19720:	35000060 	cbnz	w0, 1972c <_sd_mem_mount+0x114>
   19724:	f9411260 	ldr	x0, [x19, #544]
   19728:	3947fc14 	ldrb	w20, [x0, #511]
   1972c:	b9403a60 	ldr	w0, [x19, #56]
   19730:	35fffac0 	cbnz	w0, 19688 <_sd_mem_mount+0x70>
   19734:	b9022e74 	str	w20, [x19, #556]
   19738:	17ffffd4 	b	19688 <_sd_mem_mount+0x70>
   1973c:	00000000 	.inst	0x00000000 ; undefined

0000000000019740 <esd_mount>:
   19740:	a9be7bfd 	stp	x29, x30, [sp, #-32]!
   19744:	90000042 	adrp	x2, 21000 <sd_drv_work_area+0x58>
   19748:	f0000023 	adrp	x3, 20000 <__STACKS_START__+0x700>
   1974c:	910003fd 	mov	x29, sp
   19750:	b9844c42 	ldrsw	x2, [x2, #1100]
   19754:	91368063 	add	x3, x3, #0xda0
   19758:	f9000bf3 	str	x19, [sp, #16]
   1975c:	f8627873 	ldr	x19, [x3, x2, lsl #3]
   19760:	b4000c53 	cbz	x19, 198e8 <esd_mount+0x1a8>
   19764:	f9411262 	ldr	x2, [x19, #544]
   19768:	b4000c02 	cbz	x2, 198e8 <esd_mount+0x1a8>
   1976c:	2a0103e2 	mov	w2, w1
   19770:	2a0003e1 	mov	w1, w0
   19774:	aa1303e0 	mov	x0, x19
   19778:	97fffc9a 	bl	189e0 <_sd_init_hndl>
   1977c:	b9003a7f 	str	wzr, [x19, #56]
   19780:	aa1303e0 	mov	x0, x19
   19784:	97fff963 	bl	17d10 <_sd_check_media>
   19788:	350005a0 	cbnz	w0, 1983c <esd_mount+0xfc>
   1978c:	97fff905 	bl	17ba0 <esddev_power_on>
   19790:	35000400 	cbnz	w0, 19810 <esd_mount+0xd0>
   19794:	52800001 	mov	w1, #0x0                   	// #0
   19798:	aa1303e0 	mov	x0, x19
   1979c:	94000353 	bl	1a4e8 <_sd_set_port>
   197a0:	52800022 	mov	w2, #0x1                   	// #1
   197a4:	52800001 	mov	w1, #0x0                   	// #0
   197a8:	aa1303e0 	mov	x0, x19
   197ac:	9400032b 	bl	1a458 <_sd_set_clock>
   197b0:	350003e0 	cbnz	w0, 1982c <esd_mount+0xec>
   197b4:	52800040 	mov	w0, #0x2                   	// #2
   197b8:	97fff908 	bl	17bd8 <esddev_int_wait>
   197bc:	97fff923 	bl	17c48 <esddev_loc_cpu>
   197c0:	d2800e01 	mov	x1, #0x70                  	// #112
   197c4:	d2800f02 	mov	x2, #0x78                  	// #120
   197c8:	f2a23801 	movk	x1, #0x11c0, lsl #16
   197cc:	f2a23802 	movk	x2, #0x11c0, lsl #16
   197d0:	f9400020 	ldr	x0, [x1]
   197d4:	927d3000 	and	x0, x0, #0xfff8
   197d8:	f9000020 	str	x0, [x1]
   197dc:	f900005f 	str	xzr, [x2]
   197e0:	97fff91c 	bl	17c50 <esddev_unl_cpu>
   197e4:	aa1303e0 	mov	x0, x19
   197e8:	97fffda2 	bl	18e70 <_sd_card_init>
   197ec:	35000180 	cbnz	w0, 1981c <esd_mount+0xdc>
   197f0:	39408661 	ldrb	w1, [x19, #33]
   197f4:	721c043f 	tst	w1, #0x30
   197f8:	54000301 	b.ne	19858 <esd_mount+0x118>  // b.any
   197fc:	37280561 	tbnz	w1, #5, 198a8 <esd_mount+0x168>
   19800:	52800020 	mov	w0, #0x1                   	// #1
   19804:	3900fa60 	strb	w0, [x19, #62]
   19808:	b9403a60 	ldr	w0, [x19, #56]
   1980c:	14000009 	b	19830 <esd_mount+0xf0>
   19810:	128003a1 	mov	w1, #0xffffffe2            	// #-30
   19814:	aa1303e0 	mov	x0, x19
   19818:	9400037a 	bl	1a600 <_sd_set_err>
   1981c:	52800002 	mov	w2, #0x0                   	// #0
   19820:	52800001 	mov	w1, #0x0                   	// #0
   19824:	aa1303e0 	mov	x0, x19
   19828:	9400030c 	bl	1a458 <_sd_set_clock>
   1982c:	b9403a60 	ldr	w0, [x19, #56]
   19830:	f9400bf3 	ldr	x19, [sp, #16]
   19834:	a8c27bfd 	ldp	x29, x30, [sp], #32
   19838:	d65f03c0 	ret
   1983c:	12800221 	mov	w1, #0xffffffee            	// #-18
   19840:	aa1303e0 	mov	x0, x19
   19844:	9400036f 	bl	1a600 <_sd_set_err>
   19848:	b9403a60 	ldr	w0, [x19, #56]
   1984c:	f9400bf3 	ldr	x19, [sp, #16]
   19850:	a8c27bfd 	ldp	x29, x30, [sp], #32
   19854:	d65f03c0 	ret
   19858:	aa1303e0 	mov	x0, x19
   1985c:	97fffa45 	bl	18170 <_sd_check_csd>
   19860:	35fffde0 	cbnz	w0, 1981c <esd_mount+0xdc>
   19864:	52800021 	mov	w1, #0x1                   	// #1
   19868:	aa1303e0 	mov	x0, x19
   1986c:	94000383 	bl	1a678 <_sd_get_size>
   19870:	35fffd60 	cbnz	w0, 1981c <esd_mount+0xdc>
   19874:	aa1303e0 	mov	x0, x19
   19878:	9400034a 	bl	1a5a0 <_sd_iswp>
   1987c:	39408a62 	ldrb	w2, [x19, #34]
   19880:	39408661 	ldrb	w1, [x19, #33]
   19884:	2a020000 	orr	w0, w0, w2
   19888:	39008a60 	strb	w0, [x19, #34]
   1988c:	721c043f 	tst	w1, #0x30
   19890:	54fffb60 	b.eq	197fc <esd_mount+0xbc>  // b.none
   19894:	aa1303e0 	mov	x0, x19
   19898:	97ffff60 	bl	19618 <_sd_mem_mount>
   1989c:	35fffc00 	cbnz	w0, 1981c <esd_mount+0xdc>
   198a0:	39408661 	ldrb	w1, [x19, #33]
   198a4:	17ffffd6 	b	197fc <esd_mount+0xbc>
   198a8:	aa1303e0 	mov	x0, x19
   198ac:	97fffef7 	bl	19488 <_sd_card_get_scr>
   198b0:	35fffb60 	cbnz	w0, 1981c <esd_mount+0xdc>
   198b4:	79414260 	ldrh	w0, [x19, #160]
   198b8:	d3482c01 	ubfx	x1, x0, #8, #4
   198bc:	340001a1 	cbz	w1, 198f0 <esd_mount+0x1b0>
   198c0:	39410a62 	ldrb	w2, [x19, #66]
   198c4:	39007261 	strb	w1, [x19, #28]
   198c8:	7101005f 	cmp	w2, #0x40
   198cc:	54000160 	b.eq	198f8 <esd_mount+0x1b8>  // b.none
   198d0:	12180c00 	and	w0, w0, #0xf00
   198d4:	7108001f 	cmp	w0, #0x200
   198d8:	54fff941 	b.ne	19800 <esd_mount+0xc0>  // b.any
   198dc:	aa1303e0 	mov	x0, x19
   198e0:	97fffd52 	bl	18e28 <_sd_calc_erase_sector.part.2>
   198e4:	17ffffc7 	b	19800 <esd_mount+0xc0>
   198e8:	12800000 	mov	w0, #0xffffffff            	// #-1
   198ec:	17ffffd1 	b	19830 <esd_mount+0xf0>
   198f0:	3900727f 	strb	wzr, [x19, #28]
   198f4:	17ffffc3 	b	19800 <esd_mount+0xc0>
   198f8:	aa1303e0 	mov	x0, x19
   198fc:	97fffe91 	bl	19340 <_sd_set_mem_speed>
   19900:	35fff8e0 	cbnz	w0, 1981c <esd_mount+0xdc>
   19904:	79414260 	ldrh	w0, [x19, #160]
   19908:	17fffff2 	b	198d0 <esd_mount+0x190>
   1990c:	00000000 	.inst	0x00000000 ; undefined

0000000000019910 <esd_get_partition_id>:
   19910:	90000042 	adrp	x2, 21000 <sd_drv_work_area+0x58>
   19914:	f0000021 	adrp	x1, 20000 <__STACKS_START__+0x700>
   19918:	91368021 	add	x1, x1, #0xda0
   1991c:	b9844c42 	ldrsw	x2, [x2, #1100]
   19920:	f8627821 	ldr	x1, [x1, x2, lsl #3]
   19924:	b40000e1 	cbz	x1, 19940 <esd_get_partition_id+0x30>
   19928:	52800002 	mov	w2, #0x0                   	// #0
   1992c:	b4000060 	cbz	x0, 19938 <esd_get_partition_id+0x28>
   19930:	b9422c21 	ldr	w1, [x1, #556]
   19934:	b9000001 	str	w1, [x0]
   19938:	2a0203e0 	mov	w0, w2
   1993c:	d65f03c0 	ret
   19940:	12800002 	mov	w2, #0xffffffff            	// #-1
   19944:	17fffffd 	b	19938 <esd_get_partition_id+0x28>

0000000000019948 <esd_read_sect>:
   19948:	a9b87bfd 	stp	x29, x30, [sp, #-128]!
   1994c:	90000043 	adrp	x3, 21000 <sd_drv_work_area+0x58>
   19950:	910003fd 	mov	x29, sp
   19954:	a9046bf9 	stp	x25, x26, [sp, #64]
   19958:	aa0003f9 	mov	x25, x0
   1995c:	b9844c60 	ldrsw	x0, [x3, #1100]
   19960:	a9025bf5 	stp	x21, x22, [sp, #32]
   19964:	f0000036 	adrp	x22, 20000 <__STACKS_START__+0x700>
   19968:	913682d6 	add	x22, x22, #0xda0
   1996c:	a90573fb 	stp	x27, x28, [sp, #80]
   19970:	f8607adb 	ldr	x27, [x22, x0, lsl #3]
   19974:	b400493b 	cbz	x27, 1a298 <esd_read_sect+0x950>
   19978:	3940fb60 	ldrb	w0, [x27, #62]
   1997c:	340014a0 	cbz	w0, 19c10 <esd_read_sect+0x2c8>
   19980:	79407b60 	ldrh	w0, [x27, #60]
   19984:	b9003b7f 	str	wzr, [x27, #56]
   19988:	350042a0 	cbnz	w0, 1a1dc <esd_read_sect+0x894>
   1998c:	2a0203f5 	mov	w21, w2
   19990:	aa1b03e0 	mov	x0, x27
   19994:	a90153f3 	stp	x19, x20, [sp, #16]
   19998:	2a0103f4 	mov	w20, w1
   1999c:	a90363f7 	stp	x23, x24, [sp, #48]
   199a0:	97fff8dc 	bl	17d10 <_sd_check_media>
   199a4:	2a0003f7 	mov	w23, w0
   199a8:	350047c0 	cbnz	w0, 1a2a0 <esd_read_sect+0x958>
   199ac:	b9400b60 	ldr	w0, [x27, #8]
   199b0:	6b14001f 	cmp	w0, w20
   199b4:	54001189 	b.ls	19be4 <esd_read_sect+0x29c>  // b.plast
   199b8:	0b1402a1 	add	w1, w21, w20
   199bc:	6b01001f 	cmp	w0, w1
   199c0:	54001123 	b.cc	19be4 <esd_read_sect+0x29c>  // b.lo, b.ul, b.last
   199c4:	39410360 	ldrb	w0, [x27, #64]
   199c8:	36080080 	tbz	w0, #1, 199d8 <esd_read_sect+0x90>
   199cc:	f240073f 	tst	x25, #0x3
   199d0:	52800057 	mov	w23, #0x2                   	// #2
   199d4:	1a9713f7 	csel	w23, wzr, w23, ne  // ne = any
   199d8:	d2801300 	mov	x0, #0x98                  	// #152
   199dc:	79413b63 	ldrh	w3, [x27, #156]
   199e0:	f2a23800 	movk	x0, #0x11c0, lsl #16
   199e4:	d2804001 	mov	x1, #0x200                 	// #512
   199e8:	52800004 	mov	w4, #0x0                   	// #0
   199ec:	52800022 	mov	w2, #0x1                   	// #1
   199f0:	f9000001 	str	x1, [x0]
   199f4:	528001a1 	mov	w1, #0xd                   	// #13
   199f8:	aa1b03e0 	mov	x0, x27
   199fc:	97fffad1 	bl	18540 <_sd_card_send_cmd_arg>
   19a00:	35002280 	cbnz	w0, 19e50 <esd_read_sect+0x508>
   19a04:	b9406b60 	ldr	w0, [x27, #104]
   19a08:	12170c00 	and	w0, w0, #0x1e00
   19a0c:	7120001f 	cmp	w0, #0x800
   19a10:	54001121 	b.ne	19c34 <esd_read_sect+0x2ec>  // b.any
   19a14:	710002bf 	cmp	w21, #0x0
   19a18:	5400164d 	b.le	19ce0 <esd_read_sect+0x398>
   19a1c:	d2807e1c 	mov	x28, #0x3f0                 	// #1008
   19a20:	d2807f1a 	mov	x26, #0x3f8                 	// #1016
   19a24:	f2a2381c 	movk	x28, #0x11c0, lsl #16
   19a28:	f2a2381a 	movk	x26, #0x11c0, lsl #16
   19a2c:	d503201f 	nop
   19a30:	aa1b03e0 	mov	x0, x27
   19a34:	97fff8b7 	bl	17d10 <_sd_check_media>
   19a38:	2a0003f8 	mov	w24, w0
   19a3c:	350028a0 	cbnz	w0, 19f50 <esd_read_sect+0x608>
   19a40:	79c08f73 	ldrsh	w19, [x27, #70]
   19a44:	6b1302bf 	cmp	w21, w19
   19a48:	1a955273 	csel	w19, w19, w21, pl  // pl = nfrst
   19a4c:	71000a7f 	cmp	w19, #0x2
   19a50:	540028ad 	b.le	19f64 <esd_read_sect+0x61c>
   19a54:	d2800401 	mov	x1, #0x20                  	// #32
   19a58:	d2802000 	mov	x0, #0x100                 	// #256
   19a5c:	f2a23801 	movk	x1, #0x11c0, lsl #16
   19a60:	f9000020 	str	x0, [x1]
   19a64:	92403e60 	and	x0, x19, #0xffff
   19a68:	39408761 	ldrb	w1, [x27, #33]
   19a6c:	7100403f 	cmp	w1, #0x10
   19a70:	54001bc0 	b.eq	19de8 <esd_read_sect+0x4a0>  // b.none
   19a74:	d2800501 	mov	x1, #0x28                  	// #40
   19a78:	52800002 	mov	w2, #0x0                   	// #0
   19a7c:	f2a23801 	movk	x1, #0x11c0, lsl #16
   19a80:	f9000020 	str	x0, [x1]
   19a84:	52800021 	mov	w1, #0x1                   	// #1
   19a88:	aa1b03e0 	mov	x0, x27
   19a8c:	97fffc11 	bl	18ad0 <_sd_set_int_mask>
   19a90:	71000aff 	cmp	w23, #0x2
   19a94:	54001f60 	b.eq	19e80 <esd_read_sect+0x538>  // b.none
   19a98:	39405760 	ldrb	w0, [x27, #21]
   19a9c:	7100041f 	cmp	w0, #0x1
   19aa0:	53175a82 	lsl	w2, w20, #9
   19aa4:	1a941042 	csel	w2, w2, w20, ne  // ne = any
   19aa8:	52800241 	mov	w1, #0x12                  	// #18
   19aac:	aa1b03e0 	mov	x0, x27
   19ab0:	97fffb40 	bl	187b0 <_sd_send_mcmd>
   19ab4:	2a0003f8 	mov	w24, w0
   19ab8:	35001c40 	cbnz	w0, 19e40 <esd_read_sect+0x4f8>
   19abc:	128fffe2 	mov	w2, #0xffff8000            	// #-32768
   19ac0:	52800021 	mov	w1, #0x1                   	// #1
   19ac4:	aa1b03e0 	mov	x0, x27
   19ac8:	97fffc20 	bl	18b48 <_sd_clear_int_mask>
   19acc:	350011b7 	cbnz	w23, 19d00 <esd_read_sect+0x3b8>
   19ad0:	128fd002 	mov	w2, #0xffff817f            	// #-32385
   19ad4:	52800081 	mov	w1, #0x4                   	// #4
   19ad8:	aa1b03e0 	mov	x0, x27
   19adc:	97fffbfd 	bl	18ad0 <_sd_set_int_mask>
   19ae0:	52800003 	mov	w3, #0x0                   	// #0
   19ae4:	2a1303e2 	mov	w2, w19
   19ae8:	aa1903e1 	mov	x1, x25
   19aec:	aa1b03e0 	mov	x0, x27
   19af0:	940001f8 	bl	1a2d0 <_sd_software_trans>
   19af4:	2a0003e3 	mov	w3, w0
   19af8:	35001ac3 	cbnz	w3, 19e50 <esd_read_sect+0x508>
   19afc:	52807d00 	mov	w0, #0x3e8                 	// #1000
   19b00:	97fff836 	bl	17bd8 <esddev_int_wait>
   19b04:	35003560 	cbnz	w0, 1a1b0 <esd_read_sect+0x868>
   19b08:	79405361 	ldrh	w1, [x27, #40]
   19b0c:	52900fe0 	mov	w0, #0x807f                	// #32895
   19b10:	6a00003f 	tst	w1, w0
   19b14:	54003581 	b.ne	1a1c4 <esd_read_sect+0x87c>  // b.any
   19b18:	52800002 	mov	w2, #0x0                   	// #0
   19b1c:	52800081 	mov	w1, #0x4                   	// #4
   19b20:	aa1b03e0 	mov	x0, x27
   19b24:	97fffc29 	bl	18bc8 <_sd_clear_info>
   19b28:	128fd002 	mov	w2, #0xffff817f            	// #-32385
   19b2c:	52800081 	mov	w1, #0x4                   	// #4
   19b30:	aa1b03e0 	mov	x0, x27
   19b34:	97fffc05 	bl	18b48 <_sd_clear_int_mask>
   19b38:	340002d8 	cbz	w24, 19b90 <esd_read_sect+0x248>
   19b3c:	52800004 	mov	w4, #0x0                   	// #0
   19b40:	52800003 	mov	w3, #0x0                   	// #0
   19b44:	52800042 	mov	w2, #0x2                   	// #2
   19b48:	52800181 	mov	w1, #0xc                   	// #12
   19b4c:	aa1b03e0 	mov	x0, x27
   19b50:	97fffa7c 	bl	18540 <_sd_card_send_cmd_arg>
   19b54:	340001e0 	cbz	w0, 19b90 <esd_read_sect+0x248>
   19b58:	b9406b60 	ldr	w0, [x27, #104]
   19b5c:	927d7001 	and	x1, x0, #0xfffffff8
   19b60:	9273d821 	and	x1, x1, #0xffffffffffffe00f
   19b64:	b4001761 	cbz	x1, 19e50 <esd_read_sect+0x508>
   19b68:	b9400b61 	ldr	w1, [x27, #8]
   19b6c:	0b130282 	add	w2, w20, w19
   19b70:	6b01005f 	cmp	w2, w1
   19b74:	540016e1 	b.ne	19e50 <esd_read_sect+0x508>  // b.any
   19b78:	121d6c01 	and	w1, w0, #0x7ffffff8
   19b7c:	12135821 	and	w1, w1, #0xffffe00f
   19b80:	35001681 	cbnz	w1, 19e50 <esd_read_sect+0x508>
   19b84:	12181000 	and	w0, w0, #0x1f00
   19b88:	b9003b7f 	str	wzr, [x27, #56]
   19b8c:	b9006b60 	str	w0, [x27, #104]
   19b90:	79413b63 	ldrh	w3, [x27, #156]
   19b94:	52800004 	mov	w4, #0x0                   	// #0
   19b98:	52800022 	mov	w2, #0x1                   	// #1
   19b9c:	528001a1 	mov	w1, #0xd                   	// #13
   19ba0:	aa1b03e0 	mov	x0, x27
   19ba4:	97fffa67 	bl	18540 <_sd_card_send_cmd_arg>
   19ba8:	35001020 	cbnz	w0, 19dac <esd_read_sect+0x464>
   19bac:	b9406b60 	ldr	w0, [x27, #104]
   19bb0:	12170c00 	and	w0, w0, #0x1e00
   19bb4:	7120001f 	cmp	w0, #0x800
   19bb8:	540003e1 	b.ne	19c34 <esd_read_sect+0x2ec>  // b.any
   19bbc:	79407b60 	ldrh	w0, [x27, #60]
   19bc0:	350014c0 	cbnz	w0, 19e58 <esd_read_sect+0x510>
   19bc4:	79c08f60 	ldrsh	w0, [x27, #70]
   19bc8:	4b0002b5 	sub	w21, w21, w0
   19bcc:	0b000294 	add	w20, w20, w0
   19bd0:	53175800 	lsl	w0, w0, #9
   19bd4:	710002bf 	cmp	w21, #0x0
   19bd8:	8b20c339 	add	x25, x25, w0, sxtw
   19bdc:	54fff2ac 	b.gt	19a30 <esd_read_sect+0xe8>
   19be0:	14000040 	b	19ce0 <esd_read_sect+0x398>
   19be4:	12800001 	mov	w1, #0xffffffff            	// #-1
   19be8:	aa1b03e0 	mov	x0, x27
   19bec:	94000285 	bl	1a600 <_sd_set_err>
   19bf0:	a94153f3 	ldp	x19, x20, [sp, #16]
   19bf4:	a94363f7 	ldp	x23, x24, [sp, #48]
   19bf8:	b9403b60 	ldr	w0, [x27, #56]
   19bfc:	a9425bf5 	ldp	x21, x22, [sp, #32]
   19c00:	a9446bf9 	ldp	x25, x26, [sp, #64]
   19c04:	a94573fb 	ldp	x27, x28, [sp, #80]
   19c08:	a8c87bfd 	ldp	x29, x30, [sp], #128
   19c0c:	d65f03c0 	ret
   19c10:	12800001 	mov	w1, #0xffffffff            	// #-1
   19c14:	aa1b03e0 	mov	x0, x27
   19c18:	9400027a 	bl	1a600 <_sd_set_err>
   19c1c:	b9403b60 	ldr	w0, [x27, #56]
   19c20:	a9425bf5 	ldp	x21, x22, [sp, #32]
   19c24:	a9446bf9 	ldp	x25, x26, [sp, #64]
   19c28:	a94573fb 	ldp	x27, x28, [sp, #80]
   19c2c:	a8c87bfd 	ldp	x29, x30, [sp], #128
   19c30:	d65f03c0 	ret
   19c34:	12800000 	mov	w0, #0xffffffff            	// #-1
   19c38:	2a0003f3 	mov	w19, w0
   19c3c:	b9003b60 	str	w0, [x27, #56]
   19c40:	d2806c04 	mov	x4, #0x360                 	// #864
   19c44:	d29fffa6 	mov	x6, #0xfffd                	// #65533
   19c48:	f2a23804 	movk	x4, #0x11c0, lsl #16
   19c4c:	128f9002 	mov	w2, #0xffff837f            	// #-31873
   19c50:	528000a1 	mov	w1, #0x5                   	// #5
   19c54:	aa1b03e0 	mov	x0, x27
   19c58:	f9400083 	ldr	x3, [x4]
   19c5c:	8a060063 	and	x3, x3, x6
   19c60:	f9000083 	str	x3, [x4]
   19c64:	97fffbd9 	bl	18bc8 <_sd_clear_info>
   19c68:	128f9002 	mov	w2, #0xffff837f            	// #-31873
   19c6c:	528000a1 	mov	w1, #0x5                   	// #5
   19c70:	aa1b03e0 	mov	x0, x27
   19c74:	97fffbb5 	bl	18b48 <_sd_clear_int_mask>
   19c78:	d2800f00 	mov	x0, #0x78                  	// #120
   19c7c:	f2a23800 	movk	x0, #0x11c0, lsl #16
   19c80:	f9400000 	ldr	x0, [x0]
   19c84:	377011e0 	tbnz	w0, #14, 19ec0 <esd_read_sect+0x578>
   19c88:	79413b63 	ldrh	w3, [x27, #156]
   19c8c:	52800004 	mov	w4, #0x0                   	// #0
   19c90:	52800022 	mov	w2, #0x1                   	// #1
   19c94:	528001a1 	mov	w1, #0xd                   	// #13
   19c98:	aa1b03e0 	mov	x0, x27
   19c9c:	97fffa29 	bl	18540 <_sd_card_send_cmd_arg>
   19ca0:	35000160 	cbnz	w0, 19ccc <esd_read_sect+0x384>
   19ca4:	b9406b60 	ldr	w0, [x27, #104]
   19ca8:	12170c00 	and	w0, w0, #0x1e00
   19cac:	7120001f 	cmp	w0, #0x800
   19cb0:	540000e0 	b.eq	19ccc <esd_read_sect+0x384>  // b.none
   19cb4:	79413b63 	ldrh	w3, [x27, #156]
   19cb8:	52800004 	mov	w4, #0x0                   	// #0
   19cbc:	52800042 	mov	w2, #0x2                   	// #2
   19cc0:	52800181 	mov	w1, #0xc                   	// #12
   19cc4:	aa1b03e0 	mov	x0, x27
   19cc8:	97fffa1e 	bl	18540 <_sd_card_send_cmd_arg>
   19ccc:	b9003b73 	str	w19, [x27, #56]
   19cd0:	128f9002 	mov	w2, #0xffff837f            	// #-31873
   19cd4:	528000a1 	mov	w1, #0x5                   	// #5
   19cd8:	aa1b03e0 	mov	x0, x27
   19cdc:	97fffb9b 	bl	18b48 <_sd_clear_int_mask>
   19ce0:	b9403b60 	ldr	w0, [x27, #56]
   19ce4:	a94153f3 	ldp	x19, x20, [sp, #16]
   19ce8:	a9425bf5 	ldp	x21, x22, [sp, #32]
   19cec:	a94363f7 	ldp	x23, x24, [sp, #48]
   19cf0:	a9446bf9 	ldp	x25, x26, [sp, #64]
   19cf4:	a94573fb 	ldp	x27, x28, [sp, #80]
   19cf8:	a8c87bfd 	ldp	x29, x30, [sp], #128
   19cfc:	d65f03c0 	ret
   19d00:	f94002c3 	ldr	x3, [x22]
   19d04:	52800002 	mov	w2, #0x0                   	// #0
   19d08:	52800301 	mov	w1, #0x18                  	// #24
   19d0c:	aa0303e0 	mov	x0, x3
   19d10:	79405468 	ldrh	w8, [x3, #42]
   19d14:	121d0508 	and	w8, w8, #0x18
   19d18:	b9007fe8 	str	w8, [sp, #124]
   19d1c:	97fffb8b 	bl	18b48 <_sd_clear_int_mask>
   19d20:	f9400386 	ldr	x6, [x28]
   19d24:	d2801fe0 	mov	x0, #0xff                  	// #255
   19d28:	f9400344 	ldr	x4, [x26]
   19d2c:	a9069be4 	stp	x4, x6, [sp, #104]
   19d30:	128ff002 	mov	w2, #0xffff807f            	// #-32641
   19d34:	f9000380 	str	x0, [x28]
   19d38:	52800081 	mov	w1, #0x4                   	// #4
   19d3c:	f9000340 	str	x0, [x26]
   19d40:	aa1b03e0 	mov	x0, x27
   19d44:	97fffb63 	bl	18ad0 <_sd_set_int_mask>
   19d48:	2a1303e1 	mov	w1, w19
   19d4c:	aa1b03e0 	mov	x0, x27
   19d50:	940001a6 	bl	1a3e8 <_sd_dma_trans>
   19d54:	2a0003e3 	mov	w3, w0
   19d58:	d2806c00 	mov	x0, #0x360                 	// #864
   19d5c:	b9407fe8 	ldr	w8, [sp, #124]
   19d60:	f2a23800 	movk	x0, #0x11c0, lsl #16
   19d64:	d29fffa9 	mov	x9, #0xfffd                	// #65533
   19d68:	52800002 	mov	w2, #0x0                   	// #0
   19d6c:	2a0803e1 	mov	w1, w8
   19d70:	f9400007 	ldr	x7, [x0]
   19d74:	b90063e3 	str	w3, [sp, #96]
   19d78:	d2806c03 	mov	x3, #0x360                 	// #864
   19d7c:	aa1b03e0 	mov	x0, x27
   19d80:	f2a23803 	movk	x3, #0x11c0, lsl #16
   19d84:	8a0900e7 	and	x7, x7, x9
   19d88:	f9000067 	str	x7, [x3]
   19d8c:	97fffb51 	bl	18ad0 <_sd_set_int_mask>
   19d90:	a9469be4 	ldp	x4, x6, [sp, #104]
   19d94:	b94063e3 	ldr	w3, [sp, #96]
   19d98:	92403cc6 	and	x6, x6, #0xffff
   19d9c:	f9000386 	str	x6, [x28]
   19da0:	92403c84 	and	x4, x4, #0xffff
   19da4:	f9000344 	str	x4, [x26]
   19da8:	17ffff54 	b	19af8 <esd_read_sect+0x1b0>
   19dac:	b9406b60 	ldr	w0, [x27, #104]
   19db0:	927d7001 	and	x1, x0, #0xfffffff8
   19db4:	9273d821 	and	x1, x1, #0xffffffffffffe00f
   19db8:	b40004c1 	cbz	x1, 19e50 <esd_read_sect+0x508>
   19dbc:	b9400b61 	ldr	w1, [x27, #8]
   19dc0:	0b130293 	add	w19, w20, w19
   19dc4:	6b01027f 	cmp	w19, w1
   19dc8:	54000441 	b.ne	19e50 <esd_read_sect+0x508>  // b.any
   19dcc:	121d6c01 	and	w1, w0, #0x7ffffff8
   19dd0:	12135821 	and	w1, w1, #0xffffe00f
   19dd4:	350003e1 	cbnz	w1, 19e50 <esd_read_sect+0x508>
   19dd8:	12181000 	and	w0, w0, #0x1f00
   19ddc:	b9003b7f 	str	wzr, [x27, #56]
   19de0:	b9006b60 	str	w0, [x27, #104]
   19de4:	17ffff73 	b	19bb0 <esd_read_sect+0x268>
   19de8:	b9400b63 	ldr	w3, [x27, #8]
   19dec:	d2800502 	mov	x2, #0x28                  	// #40
   19df0:	0b140261 	add	w1, w19, w20
   19df4:	f2a23802 	movk	x2, #0x11c0, lsl #16
   19df8:	6b01007f 	cmp	w3, w1
   19dfc:	52800021 	mov	w1, #0x1                   	// #1
   19e00:	f9000040 	str	x0, [x2]
   19e04:	1a9f17f8 	cset	w24, eq  // eq = none
   19e08:	52800002 	mov	w2, #0x0                   	// #0
   19e0c:	aa1b03e0 	mov	x0, x27
   19e10:	97fffb30 	bl	18ad0 <_sd_set_int_mask>
   19e14:	71000aff 	cmp	w23, #0x2
   19e18:	54000340 	b.eq	19e80 <esd_read_sect+0x538>  // b.none
   19e1c:	39405760 	ldrb	w0, [x27, #21]
   19e20:	34ffe3f8 	cbz	w24, 19a9c <esd_read_sect+0x154>
   19e24:	7100041f 	cmp	w0, #0x1
   19e28:	53175a82 	lsl	w2, w20, #9
   19e2c:	1a941042 	csel	w2, w2, w20, ne  // ne = any
   19e30:	528f8241 	mov	w1, #0x7c12                	// #31762
   19e34:	aa1b03e0 	mov	x0, x27
   19e38:	97fffa5e 	bl	187b0 <_sd_send_mcmd>
   19e3c:	34ffe400 	cbz	w0, 19abc <esd_read_sect+0x174>
   19e40:	71000aff 	cmp	w23, #0x2
   19e44:	54000061 	b.ne	19e50 <esd_read_sect+0x508>  // b.any
   19e48:	97fff788 	bl	17c68 <esddev_disable_dma>
   19e4c:	d503201f 	nop
   19e50:	b9403b73 	ldr	w19, [x27, #56]
   19e54:	17ffff7b 	b	19c40 <esd_read_sect+0x2f8>
   19e58:	d2800401 	mov	x1, #0x20                  	// #32
   19e5c:	79007b7f 	strh	wzr, [x27, #60]
   19e60:	f2a23801 	movk	x1, #0x11c0, lsl #16
   19e64:	d2800020 	mov	x0, #0x1                   	// #1
   19e68:	52800015 	mov	w21, #0x0                   	// #0
   19e6c:	f9000020 	str	x0, [x1]
   19e70:	128003c1 	mov	w1, #0xffffffe1            	// #-31
   19e74:	aa1b03e0 	mov	x0, x27
   19e78:	940001e2 	bl	1a600 <_sd_set_err>
   19e7c:	17ffff52 	b	19bc4 <esd_read_sect+0x27c>
   19e80:	f9400361 	ldr	x1, [x27]
   19e84:	52800003 	mov	w3, #0x0                   	// #0
   19e88:	53175a62 	lsl	w2, w19, #9
   19e8c:	aa1903e0 	mov	x0, x25
   19e90:	91030021 	add	x1, x1, #0xc0
   19e94:	97fff771 	bl	17c58 <esddev_init_dma>
   19e98:	35002120 	cbnz	w0, 1a2bc <esd_read_sect+0x974>
   19e9c:	d2806c00 	mov	x0, #0x360                 	// #864
   19ea0:	d2806c01 	mov	x1, #0x360                 	// #864
   19ea4:	f2a23800 	movk	x0, #0x11c0, lsl #16
   19ea8:	f2a23801 	movk	x1, #0x11c0, lsl #16
   19eac:	f9400000 	ldr	x0, [x0]
   19eb0:	321f0000 	orr	w0, w0, #0x2
   19eb4:	92403c00 	and	x0, x0, #0xffff
   19eb8:	f9000020 	str	x0, [x1]
   19ebc:	17ffffd8 	b	19e1c <esd_read_sect+0x4d4>
   19ec0:	d2800414 	mov	x20, #0x20                  	// #32
   19ec4:	52800002 	mov	w2, #0x0                   	// #0
   19ec8:	f2a23814 	movk	x20, #0x11c0, lsl #16
   19ecc:	52800081 	mov	w1, #0x4                   	// #4
   19ed0:	d2800035 	mov	x21, #0x1                   	// #1
   19ed4:	aa1b03e0 	mov	x0, x27
   19ed8:	97fffafe 	bl	18ad0 <_sd_set_int_mask>
   19edc:	f9000295 	str	x21, [x20]
   19ee0:	52807d00 	mov	w0, #0x3e8                 	// #1000
   19ee4:	97fff73d 	bl	17bd8 <esddev_int_wait>
   19ee8:	128f9002 	mov	w2, #0xffff837f            	// #-31873
   19eec:	528000a1 	mov	w1, #0x5                   	// #5
   19ef0:	aa1b03e0 	mov	x0, x27
   19ef4:	97fffb35 	bl	18bc8 <_sd_clear_info>
   19ef8:	52800002 	mov	w2, #0x0                   	// #0
   19efc:	52800081 	mov	w1, #0x4                   	// #4
   19f00:	aa1b03e0 	mov	x0, x27
   19f04:	97fffb11 	bl	18b48 <_sd_clear_int_mask>
   19f08:	97fff750 	bl	17c48 <esddev_loc_cpu>
   19f0c:	d2801403 	mov	x3, #0xa0                  	// #160
   19f10:	d2801202 	mov	x2, #0x90                  	// #144
   19f14:	d2807004 	mov	x4, #0x380                 	// #896
   19f18:	f2a23803 	movk	x3, #0x11c0, lsl #16
   19f1c:	f2a23802 	movk	x2, #0x11c0, lsl #16
   19f20:	f2a23804 	movk	x4, #0x11c0, lsl #16
   19f24:	f9400061 	ldr	x1, [x3]
   19f28:	f9400040 	ldr	x0, [x2]
   19f2c:	f900009f 	str	xzr, [x4]
   19f30:	f9000095 	str	x21, [x4]
   19f34:	92403c21 	and	x1, x1, #0xffff
   19f38:	f900029f 	str	xzr, [x20]
   19f3c:	92403c00 	and	x0, x0, #0xffff
   19f40:	f9000061 	str	x1, [x3]
   19f44:	f9000040 	str	x0, [x2]
   19f48:	97fff742 	bl	17c50 <esddev_unl_cpu>
   19f4c:	17ffff4f 	b	19c88 <esd_read_sect+0x340>
   19f50:	12800221 	mov	w1, #0xffffffee            	// #-18
   19f54:	aa1b03e0 	mov	x0, x27
   19f58:	940001aa 	bl	1a600 <_sd_set_err>
   19f5c:	b9403b73 	ldr	w19, [x27, #56]
   19f60:	17ffff38 	b	19c40 <esd_read_sect+0x2f8>
   19f64:	d2800400 	mov	x0, #0x20                  	// #32
   19f68:	7100027f 	cmp	w19, #0x0
   19f6c:	f2a23800 	movk	x0, #0x11c0, lsl #16
   19f70:	0b140273 	add	w19, w19, w20
   19f74:	f900001f 	str	xzr, [x0]
   19f78:	54ffeb4d 	b.le	19ce0 <esd_read_sect+0x398>
   19f7c:	d2807e18 	mov	x24, #0x3f0                 	// #1008
   19f80:	d2807f15 	mov	x21, #0x3f8                 	// #1016
   19f84:	d2806c1a 	mov	x26, #0x360                 	// #864
   19f88:	f2a23818 	movk	x24, #0x11c0, lsl #16
   19f8c:	f2a23815 	movk	x21, #0x11c0, lsl #16
   19f90:	f2a2381a 	movk	x26, #0x11c0, lsl #16
   19f94:	d503201f 	nop
   19f98:	128fffe2 	mov	w2, #0xffff8000            	// #-32768
   19f9c:	52800021 	mov	w1, #0x1                   	// #1
   19fa0:	aa1b03e0 	mov	x0, x27
   19fa4:	97fffacb 	bl	18ad0 <_sd_set_int_mask>
   19fa8:	71000aff 	cmp	w23, #0x2
   19fac:	54000ee0 	b.eq	1a188 <esd_read_sect+0x840>  // b.none
   19fb0:	39405763 	ldrb	w3, [x27, #21]
   19fb4:	53175a82 	lsl	w2, w20, #9
   19fb8:	52800221 	mov	w1, #0x11                  	// #17
   19fbc:	aa1b03e0 	mov	x0, x27
   19fc0:	7100047f 	cmp	w3, #0x1
   19fc4:	1a941042 	csel	w2, w2, w20, ne  // ne = any
   19fc8:	97fff9fa 	bl	187b0 <_sd_send_mcmd>
   19fcc:	34000440 	cbz	w0, 1a054 <esd_read_sect+0x70c>
   19fd0:	71000aff 	cmp	w23, #0x2
   19fd4:	54001000 	b.eq	1a1d4 <esd_read_sect+0x88c>  // b.none
   19fd8:	128f9002 	mov	w2, #0xffff837f            	// #-31873
   19fdc:	528000a1 	mov	w1, #0x5                   	// #5
   19fe0:	b9403b7c 	ldr	w28, [x27, #56]
   19fe4:	aa1b03e0 	mov	x0, x27
   19fe8:	97fffaf8 	bl	18bc8 <_sd_clear_info>
   19fec:	128f9002 	mov	w2, #0xffff837f            	// #-31873
   19ff0:	528000a1 	mov	w1, #0x5                   	// #5
   19ff4:	aa1b03e0 	mov	x0, x27
   19ff8:	97fffad4 	bl	18b48 <_sd_clear_int_mask>
   19ffc:	52800002 	mov	w2, #0x0                   	// #0
   1a000:	52800081 	mov	w1, #0x4                   	// #4
   1a004:	aa1b03e0 	mov	x0, x27
   1a008:	97fffab2 	bl	18ad0 <_sd_set_int_mask>
   1a00c:	79413b63 	ldrh	w3, [x27, #156]
   1a010:	52800004 	mov	w4, #0x0                   	// #0
   1a014:	52800022 	mov	w2, #0x1                   	// #1
   1a018:	528001a1 	mov	w1, #0xd                   	// #13
   1a01c:	aa1b03e0 	mov	x0, x27
   1a020:	97fff948 	bl	18540 <_sd_card_send_cmd_arg>
   1a024:	128f9002 	mov	w2, #0xffff837f            	// #-31873
   1a028:	528000a1 	mov	w1, #0x5                   	// #5
   1a02c:	aa1b03e0 	mov	x0, x27
   1a030:	97fffac6 	bl	18b48 <_sd_clear_int_mask>
   1a034:	b9003b7c 	str	w28, [x27, #56]
   1a038:	3500105c 	cbnz	w28, 1a240 <esd_read_sect+0x8f8>
   1a03c:	11000680 	add	w0, w20, #0x1
   1a040:	2a0003f4 	mov	w20, w0
   1a044:	91080339 	add	x25, x25, #0x200
   1a048:	6b13001f 	cmp	w0, w19
   1a04c:	54fffa61 	b.ne	19f98 <esd_read_sect+0x650>  // b.any
   1a050:	17ffff24 	b	19ce0 <esd_read_sect+0x398>
   1a054:	128fffe2 	mov	w2, #0xffff8000            	// #-32768
   1a058:	52800021 	mov	w1, #0x1                   	// #1
   1a05c:	aa1b03e0 	mov	x0, x27
   1a060:	97fffaba 	bl	18b48 <_sd_clear_int_mask>
   1a064:	35000497 	cbnz	w23, 1a0f4 <esd_read_sect+0x7ac>
   1a068:	128fd002 	mov	w2, #0xffff817f            	// #-32385
   1a06c:	52800081 	mov	w1, #0x4                   	// #4
   1a070:	aa1b03e0 	mov	x0, x27
   1a074:	97fffa97 	bl	18ad0 <_sd_set_int_mask>
   1a078:	52800003 	mov	w3, #0x0                   	// #0
   1a07c:	52800022 	mov	w2, #0x1                   	// #1
   1a080:	aa1903e1 	mov	x1, x25
   1a084:	aa1b03e0 	mov	x0, x27
   1a088:	94000092 	bl	1a2d0 <_sd_software_trans>
   1a08c:	2a0003fc 	mov	w28, w0
   1a090:	35fffa5c 	cbnz	w28, 19fd8 <esd_read_sect+0x690>
   1a094:	52807d00 	mov	w0, #0x3e8                 	// #1000
   1a098:	97fff6d0 	bl	17bd8 <esddev_int_wait>
   1a09c:	35000ee0 	cbnz	w0, 1a278 <esd_read_sect+0x930>
   1a0a0:	79405361 	ldrh	w1, [x27, #40]
   1a0a4:	52900fe0 	mov	w0, #0x807f                	// #32895
   1a0a8:	6a00003f 	tst	w1, w0
   1a0ac:	54000a41 	b.ne	1a1f4 <esd_read_sect+0x8ac>  // b.any
   1a0b0:	52800002 	mov	w2, #0x0                   	// #0
   1a0b4:	52800081 	mov	w1, #0x4                   	// #4
   1a0b8:	aa1b03e0 	mov	x0, x27
   1a0bc:	97fffac3 	bl	18bc8 <_sd_clear_info>
   1a0c0:	128fd002 	mov	w2, #0xffff817f            	// #-32385
   1a0c4:	52800081 	mov	w1, #0x4                   	// #4
   1a0c8:	aa1b03e0 	mov	x0, x27
   1a0cc:	97fffa9f 	bl	18b48 <_sd_clear_int_mask>
   1a0d0:	79413b63 	ldrh	w3, [x27, #156]
   1a0d4:	52800004 	mov	w4, #0x0                   	// #0
   1a0d8:	52800022 	mov	w2, #0x1                   	// #1
   1a0dc:	528001a1 	mov	w1, #0xd                   	// #13
   1a0e0:	aa1b03e0 	mov	x0, x27
   1a0e4:	97fff917 	bl	18540 <_sd_card_send_cmd_arg>
   1a0e8:	350008c0 	cbnz	w0, 1a200 <esd_read_sect+0x8b8>
   1a0ec:	b9403b7c 	ldr	w28, [x27, #56]
   1a0f0:	17ffffd2 	b	1a038 <esd_read_sect+0x6f0>
   1a0f4:	f94002c3 	ldr	x3, [x22]
   1a0f8:	52800002 	mov	w2, #0x0                   	// #0
   1a0fc:	52800301 	mov	w1, #0x18                  	// #24
   1a100:	aa0303e0 	mov	x0, x3
   1a104:	79405466 	ldrh	w6, [x3, #42]
   1a108:	121d04c6 	and	w6, w6, #0x18
   1a10c:	b90073e6 	str	w6, [sp, #112]
   1a110:	97fffa8e 	bl	18b48 <_sd_clear_int_mask>
   1a114:	f9400304 	ldr	x4, [x24]
   1a118:	d2801fe0 	mov	x0, #0xff                  	// #255
   1a11c:	f94002a3 	ldr	x3, [x21]
   1a120:	a90613e3 	stp	x3, x4, [sp, #96]
   1a124:	128ff002 	mov	w2, #0xffff807f            	// #-32641
   1a128:	f9000300 	str	x0, [x24]
   1a12c:	52800081 	mov	w1, #0x4                   	// #4
   1a130:	f90002a0 	str	x0, [x21]
   1a134:	aa1b03e0 	mov	x0, x27
   1a138:	97fffa66 	bl	18ad0 <_sd_set_int_mask>
   1a13c:	52800021 	mov	w1, #0x1                   	// #1
   1a140:	aa1b03e0 	mov	x0, x27
   1a144:	940000a9 	bl	1a3e8 <_sd_dma_trans>
   1a148:	2a0003fc 	mov	w28, w0
   1a14c:	f9400340 	ldr	x0, [x26]
   1a150:	d29fffa7 	mov	x7, #0xfffd                	// #65533
   1a154:	b94073e6 	ldr	w6, [sp, #112]
   1a158:	52800002 	mov	w2, #0x0                   	// #0
   1a15c:	8a070000 	and	x0, x0, x7
   1a160:	f9000340 	str	x0, [x26]
   1a164:	2a0603e1 	mov	w1, w6
   1a168:	aa1b03e0 	mov	x0, x27
   1a16c:	97fffa59 	bl	18ad0 <_sd_set_int_mask>
   1a170:	a94613e3 	ldp	x3, x4, [sp, #96]
   1a174:	92403c84 	and	x4, x4, #0xffff
   1a178:	f9000304 	str	x4, [x24]
   1a17c:	92403c63 	and	x3, x3, #0xffff
   1a180:	f90002a3 	str	x3, [x21]
   1a184:	17ffffc3 	b	1a090 <esd_read_sect+0x748>
   1a188:	f9400361 	ldr	x1, [x27]
   1a18c:	52800003 	mov	w3, #0x0                   	// #0
   1a190:	52804002 	mov	w2, #0x200                 	// #512
   1a194:	aa1903e0 	mov	x0, x25
   1a198:	91030021 	add	x1, x1, #0xc0
   1a19c:	97fff6af 	bl	17c58 <esddev_init_dma>
   1a1a0:	35000740 	cbnz	w0, 1a288 <esd_read_sect+0x940>
   1a1a4:	d2800040 	mov	x0, #0x2                   	// #2
   1a1a8:	f9000340 	str	x0, [x26]
   1a1ac:	17ffff81 	b	19fb0 <esd_read_sect+0x668>
   1a1b0:	12800101 	mov	w1, #0xfffffff7            	// #-9
   1a1b4:	aa1b03e0 	mov	x0, x27
   1a1b8:	94000112 	bl	1a600 <_sd_set_err>
   1a1bc:	b9403b73 	ldr	w19, [x27, #56]
   1a1c0:	17fffea0 	b	19c40 <esd_read_sect+0x2f8>
   1a1c4:	aa1b03e0 	mov	x0, x27
   1a1c8:	97fff846 	bl	182e0 <_sd_check_info2_err>
   1a1cc:	b9403b73 	ldr	w19, [x27, #56]
   1a1d0:	17fffe9c 	b	19c40 <esd_read_sect+0x2f8>
   1a1d4:	97fff6a5 	bl	17c68 <esddev_disable_dma>
   1a1d8:	17ffff80 	b	19fd8 <esd_read_sect+0x690>
   1a1dc:	79007b7f 	strh	wzr, [x27, #60]
   1a1e0:	aa1b03e0 	mov	x0, x27
   1a1e4:	128003c1 	mov	w1, #0xffffffe1            	// #-31
   1a1e8:	94000106 	bl	1a600 <_sd_set_err>
   1a1ec:	128003c0 	mov	w0, #0xffffffe1            	// #-31
   1a1f0:	17fffe83 	b	19bfc <esd_read_sect+0x2b4>
   1a1f4:	aa1b03e0 	mov	x0, x27
   1a1f8:	97fff83a 	bl	182e0 <_sd_check_info2_err>
   1a1fc:	17ffff77 	b	19fd8 <esd_read_sect+0x690>
   1a200:	b9406b61 	ldr	w1, [x27, #104]
   1a204:	927d7020 	and	x0, x1, #0xfffffff8
   1a208:	9273d800 	and	x0, x0, #0xffffffffffffe00f
   1a20c:	b4ffee60 	cbz	x0, 19fd8 <esd_read_sect+0x690>
   1a210:	b9400b62 	ldr	w2, [x27, #8]
   1a214:	11000680 	add	w0, w20, #0x1
   1a218:	6b00005f 	cmp	w2, w0
   1a21c:	54ffede1 	b.ne	19fd8 <esd_read_sect+0x690>  // b.any
   1a220:	529c0102 	mov	w2, #0xe008                	// #57352
   1a224:	72afffe2 	movk	w2, #0x7fff, lsl #16
   1a228:	6a02003f 	tst	w1, w2
   1a22c:	54ffed61 	b.ne	19fd8 <esd_read_sect+0x690>  // b.any
   1a230:	12181021 	and	w1, w1, #0x1f00
   1a234:	b9003b7f 	str	wzr, [x27, #56]
   1a238:	b9006b61 	str	w1, [x27, #104]
   1a23c:	17ffff81 	b	1a040 <esd_read_sect+0x6f8>
   1a240:	d2801403 	mov	x3, #0xa0                  	// #160
   1a244:	d2807004 	mov	x4, #0x380                 	// #896
   1a248:	f2a23803 	movk	x3, #0x11c0, lsl #16
   1a24c:	f2a23804 	movk	x4, #0x11c0, lsl #16
   1a250:	d2800022 	mov	x2, #0x1                   	// #1
   1a254:	aa1b03e0 	mov	x0, x27
   1a258:	f9400061 	ldr	x1, [x3]
   1a25c:	f900009f 	str	xzr, [x4]
   1a260:	f9000082 	str	x2, [x4]
   1a264:	92403c21 	and	x1, x1, #0xffff
   1a268:	f9000061 	str	x1, [x3]
   1a26c:	39405b61 	ldrb	w1, [x27, #22]
   1a270:	9400007a 	bl	1a458 <_sd_set_clock>
   1a274:	17fffe9b 	b	19ce0 <esd_read_sect+0x398>
   1a278:	12800101 	mov	w1, #0xfffffff7            	// #-9
   1a27c:	aa1b03e0 	mov	x0, x27
   1a280:	940000e0 	bl	1a600 <_sd_set_err>
   1a284:	17ffff55 	b	19fd8 <esd_read_sect+0x690>
   1a288:	128003a1 	mov	w1, #0xffffffe2            	// #-30
   1a28c:	aa1b03e0 	mov	x0, x27
   1a290:	940000dc 	bl	1a600 <_sd_set_err>
   1a294:	17ffff51 	b	19fd8 <esd_read_sect+0x690>
   1a298:	12800000 	mov	w0, #0xffffffff            	// #-1
   1a29c:	17fffe58 	b	19bfc <esd_read_sect+0x2b4>
   1a2a0:	aa1b03e0 	mov	x0, x27
   1a2a4:	12800221 	mov	w1, #0xffffffee            	// #-18
   1a2a8:	940000d6 	bl	1a600 <_sd_set_err>
   1a2ac:	12800220 	mov	w0, #0xffffffee            	// #-18
   1a2b0:	a94153f3 	ldp	x19, x20, [sp, #16]
   1a2b4:	a94363f7 	ldp	x23, x24, [sp, #48]
   1a2b8:	17fffe51 	b	19bfc <esd_read_sect+0x2b4>
   1a2bc:	128003a1 	mov	w1, #0xffffffe2            	// #-30
   1a2c0:	aa1b03e0 	mov	x0, x27
   1a2c4:	940000cf 	bl	1a600 <_sd_set_err>
   1a2c8:	b9403b73 	ldr	w19, [x27, #56]
   1a2cc:	17fffe5d 	b	19c40 <esd_read_sect+0x2f8>

000000000001a2d0 <_sd_software_trans>:
   1a2d0:	a9bc7bfd 	stp	x29, x30, [sp, #-64]!
   1a2d4:	7100007f 	cmp	w3, #0x0
   1a2d8:	910003fd 	mov	x29, sp
   1a2dc:	a90153f3 	stp	x19, x20, [sp, #16]
   1a2e0:	aa0003f4 	mov	x20, x0
   1a2e4:	a9025bf5 	stp	x21, x22, [sp, #32]
   1a2e8:	b0fffff6 	adrp	x22, 17000 <emmc_read_sector+0xb0>
   1a2ec:	9131c2d6 	add	x22, x22, #0xc70
   1a2f0:	f9001bf7 	str	x23, [sp, #48]
   1a2f4:	2a0303f7 	mov	w23, w3
   1a2f8:	b0ffffe3 	adrp	x3, 17000 <emmc_read_sector+0xb0>
   1a2fc:	912ea063 	add	x3, x3, #0xba8
   1a300:	9a8302d6 	csel	x22, x22, x3, eq  // eq = none
   1a304:	7100005f 	cmp	w2, #0x0
   1a308:	5400040d 	b.le	1a388 <_sd_software_trans+0xb8>
   1a30c:	51000455 	sub	w21, w2, #0x1
   1a310:	aa0103f3 	mov	x19, x1
   1a314:	910006b5 	add	x21, x21, #0x1
   1a318:	8b152435 	add	x21, x1, x21, lsl #9
   1a31c:	14000015 	b	1a370 <_sd_software_trans+0xa0>
   1a320:	79405283 	ldrh	w3, [x20, #40]
   1a324:	52900fe0 	mov	w0, #0x807f                	// #32895
   1a328:	52802002 	mov	w2, #0x100                 	// #256
   1a32c:	52800001 	mov	w1, #0x0                   	// #0
   1a330:	6a00007f 	tst	w3, w0
   1a334:	54000361 	b.ne	1a3a0 <_sd_software_trans+0xd0>  // b.any
   1a338:	34000077 	cbz	w23, 1a344 <_sd_software_trans+0x74>
   1a33c:	52804002 	mov	w2, #0x200                 	// #512
   1a340:	52800001 	mov	w1, #0x0                   	// #0
   1a344:	aa1403e0 	mov	x0, x20
   1a348:	97fffa20 	bl	18bc8 <_sd_clear_info>
   1a34c:	f9400281 	ldr	x1, [x20]
   1a350:	aa1303e0 	mov	x0, x19
   1a354:	52804002 	mov	w2, #0x200                 	// #512
   1a358:	91080273 	add	x19, x19, #0x200
   1a35c:	91030021 	add	x1, x1, #0xc0
   1a360:	d63f02c0 	blr	x22
   1a364:	350002e0 	cbnz	w0, 1a3c0 <_sd_software_trans+0xf0>
   1a368:	eb15027f 	cmp	x19, x21
   1a36c:	540000e0 	b.eq	1a388 <_sd_software_trans+0xb8>  // b.none
   1a370:	52807d00 	mov	w0, #0x3e8                 	// #1000
   1a374:	97fff619 	bl	17bd8 <esddev_int_wait>
   1a378:	34fffd40 	cbz	w0, 1a320 <_sd_software_trans+0x50>
   1a37c:	12800101 	mov	w1, #0xfffffff7            	// #-9
   1a380:	aa1403e0 	mov	x0, x20
   1a384:	9400009f 	bl	1a600 <_sd_set_err>
   1a388:	b9403a80 	ldr	w0, [x20, #56]
   1a38c:	a94153f3 	ldp	x19, x20, [sp, #16]
   1a390:	a9425bf5 	ldp	x21, x22, [sp, #32]
   1a394:	f9401bf7 	ldr	x23, [sp, #48]
   1a398:	a8c47bfd 	ldp	x29, x30, [sp], #64
   1a39c:	d65f03c0 	ret
   1a3a0:	aa1403e0 	mov	x0, x20
   1a3a4:	97fff7cf 	bl	182e0 <_sd_check_info2_err>
   1a3a8:	b9403a80 	ldr	w0, [x20, #56]
   1a3ac:	a94153f3 	ldp	x19, x20, [sp, #16]
   1a3b0:	a9425bf5 	ldp	x21, x22, [sp, #32]
   1a3b4:	f9401bf7 	ldr	x23, [sp, #48]
   1a3b8:	a8c47bfd 	ldp	x29, x30, [sp], #64
   1a3bc:	d65f03c0 	ret
   1a3c0:	128003a1 	mov	w1, #0xffffffe2            	// #-30
   1a3c4:	aa1403e0 	mov	x0, x20
   1a3c8:	9400008e 	bl	1a600 <_sd_set_err>
   1a3cc:	b9403a80 	ldr	w0, [x20, #56]
   1a3d0:	a94153f3 	ldp	x19, x20, [sp, #16]
   1a3d4:	a9425bf5 	ldp	x21, x22, [sp, #32]
   1a3d8:	f9401bf7 	ldr	x23, [sp, #48]
   1a3dc:	a8c47bfd 	ldp	x29, x30, [sp], #64
   1a3e0:	d65f03c0 	ret
   1a3e4:	00000000 	.inst	0x00000000 ; undefined

000000000001a3e8 <_sd_dma_trans>:
   1a3e8:	a9be7bfd 	stp	x29, x30, [sp, #-32]!
   1a3ec:	910003fd 	mov	x29, sp
   1a3f0:	f9000bf3 	str	x19, [sp, #16]
   1a3f4:	aa0003f3 	mov	x19, x0
   1a3f8:	53175820 	lsl	w0, w1, #9
   1a3fc:	97fff619 	bl	17c60 <esddev_wait_dma_end>
   1a400:	350000e0 	cbnz	w0, 1a41c <_sd_dma_trans+0x34>
   1a404:	97fff619 	bl	17c68 <esddev_disable_dma>
   1a408:	350001a0 	cbnz	w0, 1a43c <_sd_dma_trans+0x54>
   1a40c:	b9403a60 	ldr	w0, [x19, #56]
   1a410:	f9400bf3 	ldr	x19, [sp, #16]
   1a414:	a8c27bfd 	ldp	x29, x30, [sp], #32
   1a418:	d65f03c0 	ret
   1a41c:	97fff613 	bl	17c68 <esddev_disable_dma>
   1a420:	128003a1 	mov	w1, #0xffffffe2            	// #-30
   1a424:	aa1303e0 	mov	x0, x19
   1a428:	94000076 	bl	1a600 <_sd_set_err>
   1a42c:	b9403a60 	ldr	w0, [x19, #56]
   1a430:	f9400bf3 	ldr	x19, [sp, #16]
   1a434:	a8c27bfd 	ldp	x29, x30, [sp], #32
   1a438:	d65f03c0 	ret
   1a43c:	128003a1 	mov	w1, #0xffffffe2            	// #-30
   1a440:	aa1303e0 	mov	x0, x19
   1a444:	9400006f 	bl	1a600 <_sd_set_err>
   1a448:	b9403a60 	ldr	w0, [x19, #56]
   1a44c:	f9400bf3 	ldr	x19, [sp, #16]
   1a450:	a8c27bfd 	ldp	x29, x30, [sp], #32
   1a454:	d65f03c0 	ret

000000000001a458 <_sd_set_clock>:
   1a458:	7100045f 	cmp	w2, #0x1
   1a45c:	54000180 	b.eq	1a48c <_sd_set_clock+0x34>  // b.none
   1a460:	d2800f01 	mov	x1, #0x78                  	// #120
   1a464:	f2a23801 	movk	x1, #0x11c0, lsl #16
   1a468:	f9400021 	ldr	x1, [x1]
   1a46c:	36700061 	tbz	w1, #14, 1a478 <_sd_set_clock+0x20>
   1a470:	12800ac1 	mov	w1, #0xffffffa9            	// #-87
   1a474:	b9003801 	str	w1, [x0, #56]
   1a478:	d2801201 	mov	x1, #0x90                  	// #144
   1a47c:	52800000 	mov	w0, #0x0                   	// #0
   1a480:	f2a23801 	movk	x1, #0x11c0, lsl #16
   1a484:	f900003f 	str	xzr, [x1]
   1a488:	d65f03c0 	ret
   1a48c:	a9be7bfd 	stp	x29, x30, [sp, #-32]!
   1a490:	910003fd 	mov	x29, sp
   1a494:	f9000bf3 	str	x19, [sp, #16]
   1a498:	aa0003f3 	mov	x19, x0
   1a49c:	2a0103e0 	mov	w0, w1
   1a4a0:	97fff5c4 	bl	17bb0 <esddev_get_clockdiv>
   1a4a4:	7102001f 	cmp	w0, #0x80
   1a4a8:	54000148 	b.hi	1a4d0 <_sd_set_clock+0x78>  // b.pmore
   1a4ac:	d2801202 	mov	x2, #0x90                  	// #144
   1a4b0:	32180000 	orr	w0, w0, #0x100
   1a4b4:	f2a23802 	movk	x2, #0x11c0, lsl #16
   1a4b8:	92403c01 	and	x1, x0, #0xffff
   1a4bc:	52800000 	mov	w0, #0x0                   	// #0
   1a4c0:	f9000041 	str	x1, [x2]
   1a4c4:	f9400bf3 	ldr	x19, [sp, #16]
   1a4c8:	a8c27bfd 	ldp	x29, x30, [sp], #32
   1a4cc:	d65f03c0 	ret
   1a4d0:	b9403a61 	ldr	w1, [x19, #56]
   1a4d4:	12800000 	mov	w0, #0xffffffff            	// #-1
   1a4d8:	35ffff61 	cbnz	w1, 1a4c4 <_sd_set_clock+0x6c>
   1a4dc:	128003a1 	mov	w1, #0xffffffe2            	// #-30
   1a4e0:	b9003a61 	str	w1, [x19, #56]
   1a4e4:	17fffff8 	b	1a4c4 <_sd_set_clock+0x6c>

000000000001a4e8 <_sd_set_port>:
   1a4e8:	a9be7bfd 	stp	x29, x30, [sp, #-32]!
   1a4ec:	910003fd 	mov	x29, sp
   1a4f0:	a90153f3 	stp	x19, x20, [sp, #16]
   1a4f4:	2a0103f4 	mov	w20, w1
   1a4f8:	aa0003f3 	mov	x19, x0
   1a4fc:	39408401 	ldrb	w1, [x0, #33]
   1a500:	362800a1 	tbz	w1, #5, 1a514 <_sd_set_port+0x2c>
   1a504:	b9406801 	ldr	w1, [x0, #104]
   1a508:	12170c21 	and	w1, w1, #0x1e00
   1a50c:	7120003f 	cmp	w1, #0x800
   1a510:	540002e0 	b.eq	1a56c <_sd_set_port+0x84>  // b.none
   1a514:	340001b4 	cbz	w20, 1a548 <_sd_set_port+0x60>
   1a518:	d2801402 	mov	x2, #0xa0                  	// #160
   1a51c:	2a1403e0 	mov	w0, w20
   1a520:	f2a23802 	movk	x2, #0x11c0, lsl #16
   1a524:	f9400041 	ldr	x1, [x2]
   1a528:	92403821 	and	x1, x1, #0x7fff
   1a52c:	f9000041 	str	x1, [x2]
   1a530:	97fff5a8 	bl	17bd0 <esddev_set_port>
   1a534:	52800000 	mov	w0, #0x0                   	// #0
   1a538:	39007674 	strb	w20, [x19, #29]
   1a53c:	a94153f3 	ldp	x19, x20, [sp, #16]
   1a540:	a8c27bfd 	ldp	x29, x30, [sp], #32
   1a544:	d65f03c0 	ret
   1a548:	52800000 	mov	w0, #0x0                   	// #0
   1a54c:	97fff5a1 	bl	17bd0 <esddev_set_port>
   1a550:	d2801401 	mov	x1, #0xa0                  	// #160
   1a554:	f2a23801 	movk	x1, #0x11c0, lsl #16
   1a558:	f9400020 	ldr	x0, [x1]
   1a55c:	32114000 	orr	w0, w0, #0xffff8000
   1a560:	92403c00 	and	x0, x0, #0xffff
   1a564:	f9000020 	str	x0, [x1]
   1a568:	17fffff3 	b	1a534 <_sd_set_port+0x4c>
   1a56c:	7100029f 	cmp	w20, #0x0
   1a570:	52800002 	mov	w2, #0x0                   	// #0
   1a574:	1a9f07e3 	cset	w3, ne  // ne = any
   1a578:	528008c1 	mov	w1, #0x46                  	// #70
   1a57c:	531f3863 	ubfiz	w3, w3, #1, #15
   1a580:	97fff7c8 	bl	184a0 <_sd_send_acmd>
   1a584:	350000a0 	cbnz	w0, 1a598 <_sd_set_port+0xb0>
   1a588:	52800021 	mov	w1, #0x1                   	// #1
   1a58c:	aa1303e0 	mov	x0, x19
   1a590:	97fff64e 	bl	17ec8 <_sd_get_resp>
   1a594:	34fffc00 	cbz	w0, 1a514 <_sd_set_port+0x2c>
   1a598:	12800000 	mov	w0, #0xffffffff            	// #-1
   1a59c:	17ffffe8 	b	1a53c <_sd_set_port+0x54>

000000000001a5a0 <_sd_iswp>:
   1a5a0:	39411400 	ldrb	w0, [x0, #69]
   1a5a4:	350000e0 	cbnz	w0, 1a5c0 <_sd_iswp+0x20>
   1a5a8:	d2800e00 	mov	x0, #0x70                  	// #112
   1a5ac:	f2a23800 	movk	x0, #0x11c0, lsl #16
   1a5b0:	f9400000 	ldr	x0, [x0]
   1a5b4:	aa2003e0 	mvn	x0, x0
   1a5b8:	53071c00 	ubfx	w0, w0, #7, #1
   1a5bc:	d65f03c0 	ret
   1a5c0:	d2807b02 	mov	x2, #0x3d8                 	// #984
   1a5c4:	51000401 	sub	w1, w0, #0x1
   1a5c8:	f2a23802 	movk	x2, #0x11c0, lsl #16
   1a5cc:	f9400040 	ldr	x0, [x2]
   1a5d0:	2a2003e0 	mvn	w0, w0
   1a5d4:	1ac12800 	asr	w0, w0, w1
   1a5d8:	12000000 	and	w0, w0, #0x1
   1a5dc:	d65f03c0 	ret

000000000001a5e0 <_sd_bit_search>:
   1a5e0:	12003c01 	and	w1, w0, #0xffff
   1a5e4:	528001e0 	mov	w0, #0xf                   	// #15
   1a5e8:	370000a1 	tbnz	w1, #0, 1a5fc <_sd_bit_search+0x1c>
   1a5ec:	51000400 	sub	w0, w0, #0x1
   1a5f0:	53017c21 	lsr	w1, w1, #1
   1a5f4:	3100041f 	cmn	w0, #0x1
   1a5f8:	54ffff81 	b.ne	1a5e8 <_sd_bit_search+0x8>  // b.any
   1a5fc:	d65f03c0 	ret

000000000001a600 <_sd_set_err>:
   1a600:	b9403802 	ldr	w2, [x0, #56]
   1a604:	35000042 	cbnz	w2, 1a60c <_sd_set_err+0xc>
   1a608:	b9003801 	str	w1, [x0, #56]
   1a60c:	52800000 	mov	w0, #0x0                   	// #0
   1a610:	d65f03c0 	ret
   1a614:	00000000 	.inst	0x00000000 ; undefined

000000000001a618 <esd_get_type>:
   1a618:	f0000024 	adrp	x4, 21000 <sd_drv_work_area+0x58>
   1a61c:	d0000023 	adrp	x3, 20000 <__STACKS_START__+0x700>
   1a620:	91368063 	add	x3, x3, #0xda0
   1a624:	b9844c84 	ldrsw	x4, [x4, #1100]
   1a628:	f8647863 	ldr	x3, [x3, x4, lsl #3]
   1a62c:	f100007f 	cmp	x3, #0x0
   1a630:	fa401804 	ccmp	x0, #0x0, #0x4, ne  // ne = any
   1a634:	540001e0 	b.eq	1a670 <esd_get_type+0x58>  // b.none
   1a638:	39408465 	ldrb	w5, [x3, #33]
   1a63c:	b9422c66 	ldr	w6, [x3, #556]
   1a640:	321140a4 	orr	w4, w5, #0xffff8000
   1a644:	710000df 	cmp	w6, #0x0
   1a648:	1a85c084 	csel	w4, w4, w5, gt
   1a64c:	79000004 	strh	w4, [x0]
   1a650:	b4000061 	cbz	x1, 1a65c <esd_get_type+0x44>
   1a654:	39407860 	ldrb	w0, [x3, #30]
   1a658:	39000020 	strb	w0, [x1]
   1a65c:	52800000 	mov	w0, #0x0                   	// #0
   1a660:	b4000062 	cbz	x2, 1a66c <esd_get_type+0x54>
   1a664:	39405461 	ldrb	w1, [x3, #21]
   1a668:	39000041 	strb	w1, [x2]
   1a66c:	d65f03c0 	ret
   1a670:	12800000 	mov	w0, #0xffffffff            	// #-1
   1a674:	d65f03c0 	ret

000000000001a678 <_sd_get_size>:
   1a678:	79411c03 	ldrh	w3, [x0, #142]
   1a67c:	12000026 	and	w6, w1, #0x1
   1a680:	79412405 	ldrh	w5, [x0, #146]
   1a684:	d3482c67 	ubfx	x7, x3, #8, #4
   1a688:	d34724a4 	ubfx	x4, x5, #7, #3
   1a68c:	36080141 	tbz	w1, #1, 1a6b4 <_sd_get_size+0x3c>
   1a690:	39410c01 	ldrb	w1, [x0, #67]
   1a694:	79415c02 	ldrh	w2, [x0, #174]
   1a698:	7102003f 	cmp	w1, #0x80
   1a69c:	540002a0 	b.eq	1a6f0 <_sd_get_size+0x78>  // b.none
   1a6a0:	11000881 	add	w1, w4, #0x2
   1a6a4:	1ac12042 	lsl	w2, w2, w1
   1a6a8:	1ac72042 	lsl	w2, w2, w7
   1a6ac:	53097c42 	lsr	w2, w2, #9
   1a6b0:	b9000c02 	str	w2, [x0, #12]
   1a6b4:	340001a6 	cbz	w6, 1a6e8 <_sd_get_size+0x70>
   1a6b8:	39410c02 	ldrb	w2, [x0, #67]
   1a6bc:	79412001 	ldrh	w1, [x0, #144]
   1a6c0:	7102005f 	cmp	w2, #0x80
   1a6c4:	54000340 	b.eq	1a72c <_sd_get_size+0xb4>  // b.none
   1a6c8:	53160463 	ubfiz	w3, w3, #10, #2
   1a6cc:	11000884 	add	w4, w4, #0x2
   1a6d0:	2a411861 	orr	w1, w3, w1, lsr #6
   1a6d4:	11000421 	add	w1, w1, #0x1
   1a6d8:	1ac42021 	lsl	w1, w1, w4
   1a6dc:	1ac72021 	lsl	w1, w1, w7
   1a6e0:	53097c21 	lsr	w1, w1, #9
   1a6e4:	b9000801 	str	w1, [x0, #8]
   1a6e8:	52800000 	mov	w0, #0x0                   	// #0
   1a6ec:	d65f03c0 	ret
   1a6f0:	39405401 	ldrb	w1, [x0, #21]
   1a6f4:	7100043f 	cmp	w1, #0x1
   1a6f8:	54fffd41 	b.ne	1a6a0 <_sd_get_size+0x28>  // b.any
   1a6fc:	79415801 	ldrh	w1, [x0, #172]
   1a700:	2a014042 	orr	w2, w2, w1, lsl #16
   1a704:	53097c42 	lsr	w2, w2, #9
   1a708:	b9000c02 	str	w2, [x0, #12]
   1a70c:	34fffee6 	cbz	w6, 1a6e8 <_sd_get_size+0x70>
   1a710:	79412001 	ldrh	w1, [x0, #144]
   1a714:	53183421 	ubfiz	w1, w1, #8, #14
   1a718:	2a452021 	orr	w1, w1, w5, lsr #8
   1a71c:	11000421 	add	w1, w1, #0x1
   1a720:	53165421 	lsl	w1, w1, #10
   1a724:	b9000801 	str	w1, [x0, #8]
   1a728:	17fffff0 	b	1a6e8 <_sd_get_size+0x70>
   1a72c:	39405402 	ldrb	w2, [x0, #21]
   1a730:	7100045f 	cmp	w2, #0x1
   1a734:	54fffca1 	b.ne	1a6c8 <_sd_get_size+0x50>  // b.any
   1a738:	17fffff7 	b	1a714 <_sd_get_size+0x9c>
   1a73c:	00000000 	.inst	0x00000000 ; undefined

000000000001a740 <esd_set_buffer>:
   1a740:	f240041f 	tst	x0, #0x3
   1a744:	54000181 	b.ne	1a774 <esd_set_buffer+0x34>  // b.any
   1a748:	f0000023 	adrp	x3, 21000 <sd_drv_work_area+0x58>
   1a74c:	d0000022 	adrp	x2, 20000 <__STACKS_START__+0x700>
   1a750:	91368042 	add	x2, x2, #0xda0
   1a754:	b9844c63 	ldrsw	x3, [x3, #1100]
   1a758:	f8637842 	ldr	x2, [x2, x3, lsl #3]
   1a75c:	b40000c2 	cbz	x2, 1a774 <esd_set_buffer+0x34>
   1a760:	52800003 	mov	w3, #0x0                   	// #0
   1a764:	f9011040 	str	x0, [x2, #544]
   1a768:	b9022841 	str	w1, [x2, #552]
   1a76c:	2a0303e0 	mov	w0, w3
   1a770:	d65f03c0 	ret
   1a774:	12800003 	mov	w3, #0xffffffff            	// #-1
   1a778:	17fffffd 	b	1a76c <esd_set_buffer+0x2c>
   1a77c:	00000000 	.inst	0x00000000 ; undefined

000000000001a780 <spi_multi_setup_device>:
   1a780:	d65f03c0 	ret
   1a784:	00000000 	.inst	0x00000000 ; undefined

000000000001a788 <spi_multi_setup>:
   1a788:	d2800901 	mov	x1, #0x48                  	// #72
   1a78c:	a9bf7bfd 	stp	x29, x30, [sp, #-16]!
   1a790:	f2a200c1 	movk	x1, #0x1006, lsl #16
   1a794:	910003fd 	mov	x29, sp
   1a798:	b9400020 	ldr	w0, [x1]
   1a79c:	3607ffe0 	tbz	w0, #0, 1a798 <spi_multi_setup+0x10>
   1a7a0:	97fffff8 	bl	1a780 <spi_multi_setup_device>
   1a7a4:	d2800f82 	mov	x2, #0x7c                  	// #124
   1a7a8:	d2801001 	mov	x1, #0x80                  	// #128
   1a7ac:	f2a200c2 	movk	x2, #0x1006, lsl #16
   1a7b0:	f2a200c1 	movk	x1, #0x1006, lsl #16
   1a7b4:	d2801080 	mov	x0, #0x84                  	// #132
   1a7b8:	52822884 	mov	w4, #0x1144                	// #4420
   1a7bc:	52804c03 	mov	w3, #0x260                 	// #608
   1a7c0:	f2a200c0 	movk	x0, #0x1006, lsl #16
   1a7c4:	72a62a24 	movk	w4, #0x3151, lsl #16
   1a7c8:	b9000043 	str	w3, [x2]
   1a7cc:	d2a200c3 	mov	x3, #0x10060000            	// #268828672
   1a7d0:	b9000024 	str	w4, [x1]
   1a7d4:	52808624 	mov	w4, #0x431                 	// #1073
   1a7d8:	d2800081 	mov	x1, #0x4                   	// #4
   1a7dc:	f2a200c1 	movk	x1, #0x1006, lsl #16
   1a7e0:	b9000004 	str	w4, [x0]
   1a7e4:	52944004 	mov	w4, #0xa200                	// #41472
   1a7e8:	d2800180 	mov	x0, #0xc                   	// #12
   1a7ec:	72a02aa4 	movk	w4, #0x155, lsl #16
   1a7f0:	f2a200c0 	movk	x0, #0x1006, lsl #16
   1a7f4:	b9000064 	str	w4, [x3]
   1a7f8:	52806063 	mov	w3, #0x303                 	// #771
   1a7fc:	72a00063 	movk	w3, #0x3, lsl #16
   1a800:	b9000023 	str	w3, [x1]
   1a804:	52806001 	mov	w1, #0x300                 	// #768
   1a808:	d2800204 	mov	x4, #0x10                  	// #16
   1a80c:	72a003e1 	movk	w1, #0x1f, lsl #16
   1a810:	b9000001 	str	w1, [x0]
   1a814:	f2a200c4 	movk	x4, #0x1006, lsl #16
   1a818:	d2800283 	mov	x3, #0x14                  	// #20
   1a81c:	b9400000 	ldr	w0, [x0]
   1a820:	f2a200c3 	movk	x3, #0x1006, lsl #16
   1a824:	d2800381 	mov	x1, #0x1c                  	// #28
   1a828:	52a00165 	mov	w5, #0xb0000               	// #720896
   1a82c:	f2a200c1 	movk	x1, #0x1006, lsl #16
   1a830:	d2800b00 	mov	x0, #0x58                  	// #88
   1a834:	b9000085 	str	w5, [x4]
   1a838:	f2a200c0 	movk	x0, #0x1006, lsl #16
   1a83c:	b900007f 	str	wzr, [x3]
   1a840:	5298e004 	mov	w4, #0xc700                	// #50944
   1a844:	b9000024 	str	w4, [x1]
   1a848:	528000e4 	mov	w4, #0x7                   	// #7
   1a84c:	b9000004 	str	w4, [x0]
   1a850:	52800444 	mov	w4, #0x22                  	// #34
   1a854:	b900487f 	str	wzr, [x3, #72]
   1a858:	52b4a723 	mov	w3, #0xa5390000            	// #-1522991104
   1a85c:	b9005823 	str	w3, [x1, #88]
   1a860:	52b00003 	mov	w3, #0x80000000            	// #-2147483648
   1a864:	b9001803 	str	w3, [x0, #24]
   1a868:	52901003 	mov	w3, #0x8080                	// #32896
   1a86c:	b9005823 	str	w3, [x1, #88]
   1a870:	72b00004 	movk	w4, #0x8000, lsl #16
   1a874:	b9001804 	str	w4, [x0, #24]
   1a878:	52800485 	mov	w5, #0x24                  	// #36
   1a87c:	b9005823 	str	w3, [x1, #88]
   1a880:	72b00005 	movk	w5, #0x8000, lsl #16
   1a884:	52804c04 	mov	w4, #0x260                 	// #608
   1a888:	b9001805 	str	w5, [x0, #24]
   1a88c:	72a00064 	movk	w4, #0x3, lsl #16
   1a890:	b9000044 	str	w4, [x2]
   1a894:	52800603 	mov	w3, #0x30                  	// #48
   1a898:	52800642 	mov	w2, #0x32                  	// #50
   1a89c:	b9005823 	str	w3, [x1, #88]
   1a8a0:	72b00002 	movk	w2, #0x8000, lsl #16
   1a8a4:	b9001802 	str	w2, [x0, #24]
   1a8a8:	d5033fbf 	dmb	sy
   1a8ac:	52800000 	mov	w0, #0x0                   	// #0
   1a8b0:	a8c17bfd 	ldp	x29, x30, [sp], #16
   1a8b4:	d65f03c0 	ret

000000000001a8b8 <syc_init>:
   1a8b8:	d2800403 	mov	x3, #0x20                  	// #32
   1a8bc:	d2a22001 	mov	x1, #0x11000000            	// #285212672
   1a8c0:	f2a22003 	movk	x3, #0x1100, lsl #16
   1a8c4:	52800022 	mov	w2, #0x1                   	// #1
   1a8c8:	b9000060 	str	w0, [x3]
   1a8cc:	b9000022 	str	w2, [x1]
   1a8d0:	d65f03c0 	ret
   1a8d4:	00000000 	.inst	0x00000000 ; undefined

000000000001a8d8 <syc_get_freq>:
   1a8d8:	d2800400 	mov	x0, #0x20                  	// #32
   1a8dc:	f2a22000 	movk	x0, #0x1100, lsl #16
   1a8e0:	b9400000 	ldr	w0, [x0]
   1a8e4:	d65f03c0 	ret

000000000001a8e8 <plat_get_bl_image_load_info>:
   1a8e8:	17ffdfac 	b	12798 <get_bl_load_info_from_mem_params_desc>
   1a8ec:	00000000 	.inst	0x00000000 ; undefined

000000000001a8f0 <plat_get_next_bl_params>:
   1a8f0:	17ffdfd0 	b	12830 <get_next_bl_params_from_mem_params_desc>
   1a8f4:	00000000 	.inst	0x00000000 ; undefined

000000000001a8f8 <plat_flush_next_bl_params>:
   1a8f8:	d65f03c0 	ret
   1a8fc:	00000000 	.inst	0x00000000 ; undefined

000000000001a900 <plat_tzc400_setup>:
   1a900:	a9bb7bfd 	stp	x29, x30, [sp, #-80]!
   1a904:	910003fd 	mov	x29, sp
   1a908:	a90153f3 	stp	x19, x20, [sp, #16]
   1a90c:	aa0103f3 	mov	x19, x1
   1a910:	aa0003f4 	mov	x20, x0
   1a914:	a903ffff 	stp	xzr, xzr, [sp, #56]
   1a918:	f90027ff 	str	xzr, [sp, #72]
   1a91c:	97ffe01b 	bl	12988 <tzc400_init>
   1a920:	97ffe066 	bl	12ab8 <tzc400_disable_filters>
   1a924:	32008fe1 	mov	w1, #0xf000f               	// #983055
   1a928:	52800060 	mov	w0, #0x3                   	// #3
   1a92c:	97ffe025 	bl	129c0 <tzc400_configure_region0>
   1a930:	b4000353 	cbz	x19, 1a998 <plat_tzc400_setup+0x98>
   1a934:	f9400262 	ldr	x2, [x19]
   1a938:	f90013f5 	str	x21, [sp, #32]
   1a93c:	b9400295 	ldr	w21, [x20]
   1a940:	d35866b5 	ubfx	x21, x21, #24, #2
   1a944:	110006a0 	add	w0, w21, #0x1
   1a948:	b40001c2 	cbz	x2, 1a980 <plat_tzc400_setup+0x80>
   1a94c:	52800035 	mov	w21, #0x1                   	// #1
   1a950:	2a1503f4 	mov	w20, w21
   1a954:	1ac022b5 	lsl	w21, w21, w0
   1a958:	510006b5 	sub	w21, w21, #0x1
   1a95c:	d503201f 	nop
   1a960:	29421664 	ldp	w4, w5, [x19, #16]
   1a964:	2a1403e1 	mov	w1, w20
   1a968:	f9400663 	ldr	x3, [x19, #8]
   1a96c:	2a1503e0 	mov	w0, w21
   1a970:	11000694 	add	w20, w20, #0x1
   1a974:	97ffe019 	bl	129d8 <tzc400_configure_region>
   1a978:	f8418e62 	ldr	x2, [x19, #24]!
   1a97c:	b5ffff22 	cbnz	x2, 1a960 <plat_tzc400_setup+0x60>
   1a980:	52800020 	mov	w0, #0x1                   	// #1
   1a984:	f94013f5 	ldr	x21, [sp, #32]
   1a988:	97ffdffc 	bl	12978 <tzc400_set_action>
   1a98c:	a94153f3 	ldp	x19, x20, [sp, #16]
   1a990:	a8c57bfd 	ldp	x29, x30, [sp], #80
   1a994:	17ffe027 	b	12a30 <tzc400_enable_filters>
   1a998:	b9400280 	ldr	w0, [x20]
   1a99c:	52800020 	mov	w0, #0x1                   	// #1
   1a9a0:	97ffdff6 	bl	12978 <tzc400_set_action>
   1a9a4:	a94153f3 	ldp	x19, x20, [sp, #16]
   1a9a8:	a8c57bfd 	ldp	x29, x30, [sp], #80
   1a9ac:	17ffe021 	b	12a30 <tzc400_enable_filters>

000000000001a9b0 <plat_security_setup>:
   1a9b0:	a9bd7bfd 	stp	x29, x30, [sp, #-48]!
   1a9b4:	d2a220e0 	mov	x0, #0x11070000            	// #285671424
   1a9b8:	910003fd 	mov	x29, sp
   1a9bc:	910063e1 	add	x1, sp, #0x18
   1a9c0:	a901ffff 	stp	xzr, xzr, [sp, #24]
   1a9c4:	f90017ff 	str	xzr, [sp, #40]
   1a9c8:	97ffffce 	bl	1a900 <plat_tzc400_setup>
   1a9cc:	d2800001 	mov	x1, #0x0                   	// #0
   1a9d0:	d2a220c0 	mov	x0, #0x11060000            	// #285605888
   1a9d4:	97ffffcb 	bl	1a900 <plat_tzc400_setup>
   1a9d8:	d0000001 	adrp	x1, 1c000 <vprintf+0x418>
   1a9dc:	52955100 	mov	w0, #0xaa88                	// #43656
   1a9e0:	913c8021 	add	x1, x1, #0xf20
   1a9e4:	52801764 	mov	w4, #0xbb                  	// #187
   1a9e8:	91003022 	add	x2, x1, #0xc
   1a9ec:	72a01540 	movk	w0, #0xaa, lsl #16
   1a9f0:	91042021 	add	x1, x1, #0x108
   1a9f4:	72a01764 	movk	w4, #0xbb, lsl #16
   1a9f8:	52a22043 	mov	w3, #0x11020000            	// #285343744
   1a9fc:	14000004 	b	1aa0c <plat_security_setup+0x5c>
   1aa00:	29401043 	ldp	w3, w4, [x2]
   1aa04:	91003042 	add	x2, x2, #0xc
   1aa08:	b85fc040 	ldur	w0, [x2, #-4]
   1aa0c:	2a0303e3 	mov	w3, w3
   1aa10:	eb01005f 	cmp	x2, x1
   1aa14:	b9400065 	ldr	w5, [x3]
   1aa18:	4a0000a0 	eor	w0, w5, w0
   1aa1c:	0a040000 	and	w0, w0, w4
   1aa20:	4a050000 	eor	w0, w0, w5
   1aa24:	b9000060 	str	w0, [x3]
   1aa28:	54fffec1 	b.ne	1aa00 <plat_security_setup+0x50>  // b.any
   1aa2c:	a8c37bfd 	ldp	x29, x30, [sp], #48
   1aa30:	d65f03c0 	ret
   1aa34:	00000000 	.inst	0x00000000 ; undefined

000000000001aa38 <open_emmcdrv>:
   1aa38:	f0000020 	adrp	x0, 21000 <sd_drv_work_area+0x58>
   1aa3c:	d2800001 	mov	x1, #0x0                   	// #0
   1aa40:	f9413800 	ldr	x0, [x0, #624]
   1aa44:	17ffe20b 	b	13270 <io_dev_init>

000000000001aa48 <open_fipdrv>:
   1aa48:	f0000021 	adrp	x1, 21000 <sd_drv_work_area+0x58>
   1aa4c:	f0000020 	adrp	x0, 21000 <sd_drv_work_area+0x58>
   1aa50:	f9413421 	ldr	x1, [x1, #616]
   1aa54:	f9413c00 	ldr	x0, [x0, #632]
   1aa58:	17ffe206 	b	13270 <io_dev_init>
   1aa5c:	00000000 	.inst	0x00000000 ; undefined

000000000001aa60 <open_sddrv>:
   1aa60:	f0000020 	adrp	x0, 21000 <sd_drv_work_area+0x58>
   1aa64:	d2800001 	mov	x1, #0x0                   	// #0
   1aa68:	f9414400 	ldr	x0, [x0, #648]
   1aa6c:	17ffe201 	b	13270 <io_dev_init>

000000000001aa70 <open_memmap>:
   1aa70:	a9bc7bfd 	stp	x29, x30, [sp, #-64]!
   1aa74:	d2800001 	mov	x1, #0x0                   	// #0
   1aa78:	910003fd 	mov	x29, sp
   1aa7c:	a90153f3 	stp	x19, x20, [sp, #16]
   1aa80:	f0000034 	adrp	x20, 21000 <sd_drv_work_area+0x58>
   1aa84:	f90013f5 	str	x21, [sp, #32]
   1aa88:	aa0003f5 	mov	x21, x0
   1aa8c:	f9414280 	ldr	x0, [x20, #640]
   1aa90:	97ffe1f8 	bl	13270 <io_dev_init>
   1aa94:	2a0003f3 	mov	w19, w0
   1aa98:	340000c0 	cbz	w0, 1aab0 <open_memmap+0x40>
   1aa9c:	2a1303e0 	mov	w0, w19
   1aaa0:	a94153f3 	ldp	x19, x20, [sp, #16]
   1aaa4:	f94013f5 	ldr	x21, [sp, #32]
   1aaa8:	a8c47bfd 	ldp	x29, x30, [sp], #64
   1aaac:	d65f03c0 	ret
   1aab0:	f9414280 	ldr	x0, [x20, #640]
   1aab4:	aa1503e1 	mov	x1, x21
   1aab8:	9100e3e2 	add	x2, sp, #0x38
   1aabc:	97ffe1f9 	bl	132a0 <io_open>
   1aac0:	2a0003f3 	mov	w19, w0
   1aac4:	35fffec0 	cbnz	w0, 1aa9c <open_memmap+0x2c>
   1aac8:	f9401fe0 	ldr	x0, [sp, #56]
   1aacc:	97ffe24b 	bl	133f8 <io_close>
   1aad0:	2a1303e0 	mov	w0, w19
   1aad4:	a94153f3 	ldp	x19, x20, [sp, #16]
   1aad8:	f94013f5 	ldr	x21, [sp, #32]
   1aadc:	a8c47bfd 	ldp	x29, x30, [sp], #64
   1aae0:	d65f03c0 	ret
   1aae4:	00000000 	.inst	0x00000000 ; undefined

000000000001aae8 <rz_io_setup>:
   1aae8:	a9bd7bfd 	stp	x29, x30, [sp, #-48]!
   1aaec:	f0000021 	adrp	x1, 21000 <sd_drv_work_area+0x58>
   1aaf0:	910003fd 	mov	x29, sp
   1aaf4:	f901343f 	str	xzr, [x1, #616]
   1aaf8:	910083e0 	add	x0, sp, #0x20
   1aafc:	f9000bf3 	str	x19, [sp, #16]
   1ab00:	97ffe146 	bl	13018 <register_io_dev_fip>
   1ab04:	f94013e0 	ldr	x0, [sp, #32]
   1ab08:	f0000022 	adrp	x2, 21000 <sd_drv_work_area+0x58>
   1ab0c:	d2800001 	mov	x1, #0x0                   	// #0
   1ab10:	9109e042 	add	x2, x2, #0x278
   1ab14:	97ffe1d3 	bl	13260 <io_dev_open>
   1ab18:	d2814000 	mov	x0, #0xa00                 	// #2560
   1ab1c:	f2a22040 	movk	x0, #0x1102, lsl #16
   1ab20:	b9400000 	ldr	w0, [x0]
   1ab24:	72000c00 	ands	w0, w0, #0xf
   1ab28:	54000420 	b.eq	1abac <rz_io_setup+0xc4>  // b.none
   1ab2c:	51000c01 	sub	w1, w0, #0x3
   1ab30:	7100043f 	cmp	w1, #0x1
   1ab34:	54000669 	b.ls	1ac00 <rz_io_setup+0x118>  // b.plast
   1ab38:	51000400 	sub	w0, w0, #0x1
   1ab3c:	7100041f 	cmp	w0, #0x1
   1ab40:	54000928 	b.hi	1ac64 <rz_io_setup+0x17c>  // b.pmore
   1ab44:	97ffed5f 	bl	160c0 <emmc_init>
   1ab48:	7100041f 	cmp	w0, #0x1
   1ab4c:	54000901 	b.ne	1ac6c <rz_io_setup+0x184>  // b.any
   1ab50:	97ffed4e 	bl	16088 <emmc_memcard_power>
   1ab54:	97ffef2b 	bl	16800 <emmc_mount>
   1ab58:	7100041f 	cmp	w0, #0x1
   1ab5c:	540007a1 	b.ne	1ac50 <rz_io_setup+0x168>  // b.any
   1ab60:	9100a3e0 	add	x0, sp, #0x28
   1ab64:	97fff2cf 	bl	176a0 <register_io_dev_emmcdrv>
   1ab68:	f94017e0 	ldr	x0, [sp, #40]
   1ab6c:	f0000033 	adrp	x19, 21000 <sd_drv_work_area+0x58>
   1ab70:	9109c273 	add	x19, x19, #0x270
   1ab74:	d2800001 	mov	x1, #0x0                   	// #0
   1ab78:	aa1303e2 	mov	x2, x19
   1ab7c:	97ffe1b9 	bl	13260 <io_dev_open>
   1ab80:	b0000020 	adrp	x0, 1f000 <__RO_END__>
   1ab84:	911ee002 	add	x2, x0, #0x7b8
   1ab88:	f0000001 	adrp	x1, 1d000 <sys_acctl+0xe0>
   1ab8c:	91016021 	add	x1, x1, #0x58
   1ab90:	f903dc13 	str	x19, [x0, #1976]
   1ab94:	90000000 	adrp	x0, 1a000 <esd_read_sect+0x6b8>
   1ab98:	9128e000 	add	x0, x0, #0xa38
   1ab9c:	a9008041 	stp	x1, x0, [x2, #8]
   1aba0:	f9400bf3 	ldr	x19, [sp, #16]
   1aba4:	a8c37bfd 	ldp	x29, x30, [sp], #48
   1aba8:	d65f03c0 	ret
   1abac:	97fff85d 	bl	18d20 <esd_main>
   1abb0:	35000680 	cbnz	w0, 1ac80 <rz_io_setup+0x198>
   1abb4:	9100a3e0 	add	x0, sp, #0x28
   1abb8:	97fff368 	bl	17958 <register_io_dev_sddrv>
   1abbc:	f94017e0 	ldr	x0, [sp, #40]
   1abc0:	f0000033 	adrp	x19, 21000 <sd_drv_work_area+0x58>
   1abc4:	910a2273 	add	x19, x19, #0x288
   1abc8:	d2800001 	mov	x1, #0x0                   	// #0
   1abcc:	aa1303e2 	mov	x2, x19
   1abd0:	97ffe1a4 	bl	13260 <io_dev_open>
   1abd4:	b0000020 	adrp	x0, 1f000 <__RO_END__>
   1abd8:	911ee002 	add	x2, x0, #0x7b8
   1abdc:	f0000001 	adrp	x1, 1d000 <sys_acctl+0xe0>
   1abe0:	9103c021 	add	x1, x1, #0xf0
   1abe4:	f903dc13 	str	x19, [x0, #1976]
   1abe8:	90000000 	adrp	x0, 1a000 <esd_read_sect+0x6b8>
   1abec:	91298000 	add	x0, x0, #0xa60
   1abf0:	a9008041 	stp	x1, x0, [x2, #8]
   1abf4:	f9400bf3 	ldr	x19, [sp, #16]
   1abf8:	a8c37bfd 	ldp	x29, x30, [sp], #48
   1abfc:	d65f03c0 	ret
   1ac00:	97fffee2 	bl	1a788 <spi_multi_setup>
   1ac04:	f0000033 	adrp	x19, 21000 <sd_drv_work_area+0x58>
   1ac08:	9100a3e0 	add	x0, sp, #0x28
   1ac0c:	97ffe167 	bl	131a8 <register_io_dev_memmap>
   1ac10:	f94017e0 	ldr	x0, [sp, #40]
   1ac14:	910a0273 	add	x19, x19, #0x280
   1ac18:	aa1303e2 	mov	x2, x19
   1ac1c:	d2800001 	mov	x1, #0x0                   	// #0
   1ac20:	97ffe190 	bl	13260 <io_dev_open>
   1ac24:	b0000020 	adrp	x0, 1f000 <__RO_END__>
   1ac28:	911ee002 	add	x2, x0, #0x7b8
   1ac2c:	f0000001 	adrp	x1, 1d000 <sys_acctl+0xe0>
   1ac30:	91042021 	add	x1, x1, #0x108
   1ac34:	f903dc13 	str	x19, [x0, #1976]
   1ac38:	90000000 	adrp	x0, 1a000 <esd_read_sect+0x6b8>
   1ac3c:	9129c000 	add	x0, x0, #0xa70
   1ac40:	a9008041 	stp	x1, x0, [x2, #8]
   1ac44:	f9400bf3 	ldr	x19, [sp, #16]
   1ac48:	a8c37bfd 	ldp	x29, x30, [sp], #48
   1ac4c:	d65f03c0 	ret
   1ac50:	f0000000 	adrp	x0, 1d000 <sys_acctl+0xe0>
   1ac54:	91032000 	add	x0, x0, #0xc8
   1ac58:	94000082 	bl	1ae60 <tf_log>
   1ac5c:	940000ed 	bl	1b010 <console_flush>
   1ac60:	97ffdd6e 	bl	12218 <do_panic>
   1ac64:	940000eb 	bl	1b010 <console_flush>
   1ac68:	97ffdd6c 	bl	12218 <do_panic>
   1ac6c:	f0000000 	adrp	x0, 1d000 <sys_acctl+0xe0>
   1ac70:	91026000 	add	x0, x0, #0x98
   1ac74:	9400007b 	bl	1ae60 <tf_log>
   1ac78:	940000e6 	bl	1b010 <console_flush>
   1ac7c:	97ffdd67 	bl	12218 <do_panic>
   1ac80:	f0000000 	adrp	x0, 1d000 <sys_acctl+0xe0>
   1ac84:	9101c000 	add	x0, x0, #0x70
   1ac88:	94000076 	bl	1ae60 <tf_log>
   1ac8c:	940000e1 	bl	1b010 <console_flush>
   1ac90:	97ffdd62 	bl	12218 <do_panic>
   1ac94:	00000000 	.inst	0x00000000 ; undefined

000000000001ac98 <plat_get_image_source>:
   1ac98:	2a0003e0 	mov	w0, w0
   1ac9c:	a9bc7bfd 	stp	x29, x30, [sp, #-64]!
   1aca0:	8b000400 	add	x0, x0, x0, lsl #1
   1aca4:	910003fd 	mov	x29, sp
   1aca8:	a90153f3 	stp	x19, x20, [sp, #16]
   1acac:	d37df013 	lsl	x19, x0, #3
   1acb0:	b0000034 	adrp	x20, 1f000 <__RO_END__>
   1acb4:	911ee294 	add	x20, x20, #0x7b8
   1acb8:	a9025bf5 	stp	x21, x22, [sp, #32]
   1acbc:	8b130295 	add	x21, x20, x19
   1acc0:	aa0103f6 	mov	x22, x1
   1acc4:	a9408ea0 	ldp	x0, x3, [x21, #8]
   1acc8:	f9001bf7 	str	x23, [sp, #48]
   1accc:	aa0203f7 	mov	x23, x2
   1acd0:	d63f0060 	blr	x3
   1acd4:	350000c0 	cbnz	w0, 1acec <plat_get_image_source+0x54>
   1acd8:	f8736a81 	ldr	x1, [x20, x19]
   1acdc:	f94006a2 	ldr	x2, [x21, #8]
   1ace0:	f90002e2 	str	x2, [x23]
   1ace4:	f9400021 	ldr	x1, [x1]
   1ace8:	f90002c1 	str	x1, [x22]
   1acec:	a94153f3 	ldp	x19, x20, [sp, #16]
   1acf0:	a9425bf5 	ldp	x21, x22, [sp, #32]
   1acf4:	f9401bf7 	ldr	x23, [sp, #48]
   1acf8:	a8c47bfd 	ldp	x29, x30, [sp], #64
   1acfc:	d65f03c0 	ret

000000000001ad00 <ddr_ctrl_reten_en_n>:
   1ad00:	d2814081 	mov	x1, #0xa04                 	// #2564
   1ad04:	12000000 	and	w0, w0, #0x1
   1ad08:	f2a22041 	movk	x1, #0x1102, lsl #16
   1ad0c:	b9400021 	ldr	w1, [x1]
   1ad10:	6b4173ff 	cmp	wzr, w1, lsr #28
   1ad14:	540000c0 	b.eq	1ad2c <ddr_ctrl_reten_en_n+0x2c>  // b.none
   1ad18:	d2804801 	mov	x1, #0x240                 	// #576
   1ad1c:	531f7800 	lsl	w0, w0, #1
   1ad20:	f2a22801 	movk	x1, #0x1140, lsl #16
   1ad24:	b9000020 	str	w0, [x1]
   1ad28:	d65f03c0 	ret
   1ad2c:	d2804082 	mov	x2, #0x204                 	// #516
   1ad30:	f2a22802 	movk	x2, #0x1140, lsl #16
   1ad34:	b9400041 	ldr	w1, [x2]
   1ad38:	120f7821 	and	w1, w1, #0xfffeffff
   1ad3c:	2a004020 	orr	w0, w1, w0, lsl #16
   1ad40:	b9000040 	str	w0, [x2]
   1ad44:	d65f03c0 	ret

000000000001ad48 <load_auth_image>:
   1ad48:	a9ba7bfd 	stp	x29, x30, [sp, #-96]!
   1ad4c:	910003fd 	mov	x29, sp
   1ad50:	a90153f3 	stp	x19, x20, [sp, #16]
   1ad54:	aa0103f4 	mov	x20, x1
   1ad58:	a9025bf5 	stp	x21, x22, [sp, #32]
   1ad5c:	2a0003f5 	mov	w21, w0
   1ad60:	910123e2 	add	x2, sp, #0x48
   1ad64:	9100e3e1 	add	x1, sp, #0x38
   1ad68:	2a1503e0 	mov	w0, w21
   1ad6c:	f9400696 	ldr	x22, [x20, #8]
   1ad70:	97ffffca 	bl	1ac98 <plat_get_image_source>
   1ad74:	2a0003f3 	mov	w19, w0
   1ad78:	35000300 	cbnz	w0, 1add8 <load_auth_image+0x90>
   1ad7c:	f9401fe0 	ldr	x0, [sp, #56]
   1ad80:	910103e2 	add	x2, sp, #0x40
   1ad84:	f94027e1 	ldr	x1, [sp, #72]
   1ad88:	97ffe146 	bl	132a0 <io_open>
   1ad8c:	2a0003f3 	mov	w19, w0
   1ad90:	35000240 	cbnz	w0, 1add8 <load_auth_image+0x90>
   1ad94:	f94023e0 	ldr	x0, [sp, #64]
   1ad98:	910143e1 	add	x1, sp, #0x50
   1ad9c:	97ffe187 	bl	133b8 <io_size>
   1ada0:	2a0003f3 	mov	w19, w0
   1ada4:	35000280 	cbnz	w0, 1adf4 <load_auth_image+0xac>
   1ada8:	f9402be2 	ldr	x2, [sp, #80]
   1adac:	f94023e4 	ldr	x4, [sp, #64]
   1adb0:	aa0403e0 	mov	x0, x4
   1adb4:	b4000242 	cbz	x2, 1adfc <load_auth_image+0xb4>
   1adb8:	b9401681 	ldr	w1, [x20, #20]
   1adbc:	12800353 	mov	w19, #0xffffffe5            	// #-27
   1adc0:	910163e3 	add	x3, sp, #0x58
   1adc4:	eb01005f 	cmp	x2, x1
   1adc8:	54000249 	b.ls	1ae10 <load_auth_image+0xc8>  // b.plast
   1adcc:	97ffe18b 	bl	133f8 <io_close>
   1add0:	f9401fe0 	ldr	x0, [sp, #56]
   1add4:	97ffe12d 	bl	13288 <io_dev_close>
   1add8:	940000aa 	bl	1b080 <plat_try_next_boot_source>
   1addc:	35fffc20 	cbnz	w0, 1ad60 <load_auth_image+0x18>
   1ade0:	2a1303e0 	mov	w0, w19
   1ade4:	a94153f3 	ldp	x19, x20, [sp, #16]
   1ade8:	a9425bf5 	ldp	x21, x22, [sp, #32]
   1adec:	a8c67bfd 	ldp	x29, x30, [sp], #96
   1adf0:	d65f03c0 	ret
   1adf4:	f94023e0 	ldr	x0, [sp, #64]
   1adf8:	17fffff5 	b	1adcc <load_auth_image+0x84>
   1adfc:	97ffe17f 	bl	133f8 <io_close>
   1ae00:	12800093 	mov	w19, #0xfffffffb            	// #-5
   1ae04:	f9401fe0 	ldr	x0, [sp, #56]
   1ae08:	97ffe120 	bl	13288 <io_dev_close>
   1ae0c:	17fffff3 	b	1add8 <load_auth_image+0x90>
   1ae10:	b9001282 	str	w2, [x20, #16]
   1ae14:	aa1603e1 	mov	x1, x22
   1ae18:	97ffe170 	bl	133d8 <io_read>
   1ae1c:	2a0003f3 	mov	w19, w0
   1ae20:	35fffea0 	cbnz	w0, 1adf4 <load_auth_image+0xac>
   1ae24:	f94023e0 	ldr	x0, [sp, #64]
   1ae28:	97ffe174 	bl	133f8 <io_close>
   1ae2c:	f9401fe0 	ldr	x0, [sp, #56]
   1ae30:	97ffe116 	bl	13288 <io_dev_close>
   1ae34:	b9401281 	ldr	w1, [x20, #16]
   1ae38:	f9400680 	ldr	x0, [x20, #8]
   1ae3c:	97ffdd03 	bl	12248 <flush_dcache_range>
   1ae40:	2a1303e0 	mov	w0, w19
   1ae44:	a94153f3 	ldp	x19, x20, [sp, #16]
   1ae48:	a9425bf5 	ldp	x21, x22, [sp, #32]
   1ae4c:	a8c67bfd 	ldp	x29, x30, [sp], #96
   1ae50:	d65f03c0 	ret
   1ae54:	00000000 	.inst	0x00000000 ; undefined

000000000001ae58 <print_entry_point_info>:
   1ae58:	d65f03c0 	ret
   1ae5c:	00000000 	.inst	0x00000000 ; undefined

000000000001ae60 <tf_log>:
   1ae60:	a9b67bfd 	stp	x29, x30, [sp, #-160]!
   1ae64:	b0000028 	adrp	x8, 1f000 <__RO_END__>
   1ae68:	910003fd 	mov	x29, sp
   1ae6c:	f90037e1 	str	x1, [sp, #104]
   1ae70:	b948c508 	ldr	w8, [x8, #2244]
   1ae74:	39400001 	ldrb	w1, [x0]
   1ae78:	a9070fe2 	stp	x2, x3, [sp, #112]
   1ae7c:	6b01011f 	cmp	w8, w1
   1ae80:	a90817e4 	stp	x4, x5, [sp, #128]
   1ae84:	a9091fe6 	stp	x6, x7, [sp, #144]
   1ae88:	54000062 	b.cs	1ae94 <tf_log+0x34>  // b.hs, b.nlast
   1ae8c:	a8ca7bfd 	ldp	x29, x30, [sp], #160
   1ae90:	d65f03c0 	ret
   1ae94:	a90153f3 	stp	x19, x20, [sp, #16]
   1ae98:	aa0003f4 	mov	x20, x0
   1ae9c:	2a0103e0 	mov	w0, w1
   1aea0:	94000084 	bl	1b0b0 <plat_log_get_prefix>
   1aea4:	aa0003f3 	mov	x19, x0
   1aea8:	39400000 	ldrb	w0, [x0]
   1aeac:	34000080 	cbz	w0, 1aebc <tf_log+0x5c>
   1aeb0:	94000494 	bl	1c100 <putchar>
   1aeb4:	38401e60 	ldrb	w0, [x19, #1]!
   1aeb8:	35ffffc0 	cbnz	w0, 1aeb0 <tf_log+0x50>
   1aebc:	910283e0 	add	x0, sp, #0xa0
   1aec0:	910283e1 	add	x1, sp, #0xa0
   1aec4:	a90407e0 	stp	x0, x1, [sp, #64]
   1aec8:	910183e3 	add	x3, sp, #0x60
   1aecc:	128006e2 	mov	w2, #0xffffffc8            	// #-56
   1aed0:	f9002be3 	str	x3, [sp, #80]
   1aed4:	910083e1 	add	x1, sp, #0x20
   1aed8:	290b7fe2 	stp	w2, wzr, [sp, #88]
   1aedc:	91000680 	add	x0, x20, #0x1
   1aee0:	a9440fe2 	ldp	x2, x3, [sp, #64]
   1aee4:	a9020fe2 	stp	x2, x3, [sp, #32]
   1aee8:	a9450fe2 	ldp	x2, x3, [sp, #80]
   1aeec:	a9030fe2 	stp	x2, x3, [sp, #48]
   1aef0:	9400033e 	bl	1bbe8 <vprintf>
   1aef4:	a94153f3 	ldp	x19, x20, [sp, #16]
   1aef8:	a8ca7bfd 	ldp	x29, x30, [sp], #160
   1aefc:	d65f03c0 	ret

000000000001af00 <console_register>:
   1af00:	f0000023 	adrp	x3, 21000 <sd_drv_work_area+0x58>
   1af04:	f9414862 	ldr	x2, [x3, #656]
   1af08:	b4000122 	cbz	x2, 1af2c <console_register+0x2c>
   1af0c:	eb02001f 	cmp	x0, x2
   1af10:	54000120 	b.eq	1af34 <console_register+0x34>  // b.none
   1af14:	aa0203e1 	mov	x1, x2
   1af18:	14000002 	b	1af20 <console_register+0x20>
   1af1c:	540000c0 	b.eq	1af34 <console_register+0x34>  // b.none
   1af20:	f9400021 	ldr	x1, [x1]
   1af24:	eb01001f 	cmp	x0, x1
   1af28:	b5ffffa1 	cbnz	x1, 1af1c <console_register+0x1c>
   1af2c:	f9000002 	str	x2, [x0]
   1af30:	f9014860 	str	x0, [x3, #656]
   1af34:	52800020 	mov	w0, #0x1                   	// #1
   1af38:	d65f03c0 	ret
   1af3c:	00000000 	.inst	0x00000000 ; undefined

000000000001af40 <console_set_scope>:
   1af40:	f9400402 	ldr	x2, [x0, #8]
   1af44:	2a0103e1 	mov	w1, w1
   1af48:	92785c42 	and	x2, x2, #0xffffff00
   1af4c:	aa010042 	orr	x2, x2, x1
   1af50:	f9000402 	str	x2, [x0, #8]
   1af54:	d65f03c0 	ret

000000000001af58 <console_putc>:
   1af58:	a9bd7bfd 	stp	x29, x30, [sp, #-48]!
   1af5c:	f0000021 	adrp	x1, 21000 <sd_drv_work_area+0x58>
   1af60:	910003fd 	mov	x29, sp
   1af64:	a90153f3 	stp	x19, x20, [sp, #16]
   1af68:	f9414833 	ldr	x19, [x1, #656]
   1af6c:	a9025bf5 	stp	x21, x22, [sp, #32]
   1af70:	b4000453 	cbz	x19, 1aff8 <console_putc+0xa0>
   1af74:	b0000034 	adrp	x20, 1f000 <__RO_END__>
   1af78:	2a0003f6 	mov	w22, w0
   1af7c:	91232294 	add	x20, x20, #0x8c8
   1af80:	12800ff5 	mov	w21, #0xffffff80            	// #-128
   1af84:	d503201f 	nop
   1af88:	f9400661 	ldr	x1, [x19, #8]
   1af8c:	39400282 	ldrb	w2, [x20]
   1af90:	ea01005f 	tst	x2, x1
   1af94:	54000160 	b.eq	1afc0 <console_putc+0x68>  // b.none
   1af98:	f9400a62 	ldr	x2, [x19, #16]
   1af9c:	71002adf 	cmp	w22, #0xa
   1afa0:	b4000102 	cbz	x2, 1afc0 <console_putc+0x68>
   1afa4:	540001c0 	b.eq	1afdc <console_putc+0x84>  // b.none
   1afa8:	aa1303e1 	mov	x1, x19
   1afac:	2a1603e0 	mov	w0, w22
   1afb0:	d63f0040 	blr	x2
   1afb4:	310202bf 	cmn	w21, #0x80
   1afb8:	7a551001 	ccmp	w0, w21, #0x1, ne  // ne = any
   1afbc:	1a80a2b5 	csel	w21, w21, w0, ge  // ge = tcont
   1afc0:	f9400273 	ldr	x19, [x19]
   1afc4:	b5fffe33 	cbnz	x19, 1af88 <console_putc+0x30>
   1afc8:	2a1503e0 	mov	w0, w21
   1afcc:	a94153f3 	ldp	x19, x20, [sp, #16]
   1afd0:	a9425bf5 	ldp	x21, x22, [sp, #32]
   1afd4:	a8c37bfd 	ldp	x29, x30, [sp], #48
   1afd8:	d65f03c0 	ret
   1afdc:	3647fe61 	tbz	w1, #8, 1afa8 <console_putc+0x50>
   1afe0:	aa1303e1 	mov	x1, x19
   1afe4:	528001a0 	mov	w0, #0xd                   	// #13
   1afe8:	d63f0040 	blr	x2
   1afec:	37fffe40 	tbnz	w0, #31, 1afb4 <console_putc+0x5c>
   1aff0:	f9400a62 	ldr	x2, [x19, #16]
   1aff4:	17ffffed 	b	1afa8 <console_putc+0x50>
   1aff8:	12800ff5 	mov	w21, #0xffffff80            	// #-128
   1affc:	2a1503e0 	mov	w0, w21
   1b000:	a94153f3 	ldp	x19, x20, [sp, #16]
   1b004:	a9425bf5 	ldp	x21, x22, [sp, #32]
   1b008:	a8c37bfd 	ldp	x29, x30, [sp], #48
   1b00c:	d65f03c0 	ret

000000000001b010 <console_flush>:
   1b010:	a9be7bfd 	stp	x29, x30, [sp, #-32]!
   1b014:	d0000020 	adrp	x0, 21000 <sd_drv_work_area+0x58>
   1b018:	910003fd 	mov	x29, sp
   1b01c:	a90153f3 	stp	x19, x20, [sp, #16]
   1b020:	f9414813 	ldr	x19, [x0, #656]
   1b024:	b40001b3 	cbz	x19, 1b058 <console_flush+0x48>
   1b028:	90000034 	adrp	x20, 1f000 <__RO_END__>
   1b02c:	91232294 	add	x20, x20, #0x8c8
   1b030:	f9400660 	ldr	x0, [x19, #8]
   1b034:	39400281 	ldrb	w1, [x20]
   1b038:	ea00003f 	tst	x1, x0
   1b03c:	540000a0 	b.eq	1b050 <console_flush+0x40>  // b.none
   1b040:	f9401261 	ldr	x1, [x19, #32]
   1b044:	aa1303e0 	mov	x0, x19
   1b048:	b4000041 	cbz	x1, 1b050 <console_flush+0x40>
   1b04c:	d63f0020 	blr	x1
   1b050:	f9400273 	ldr	x19, [x19]
   1b054:	b5fffef3 	cbnz	x19, 1b030 <console_flush+0x20>
   1b058:	a94153f3 	ldp	x19, x20, [sp, #16]
   1b05c:	a8c27bfd 	ldp	x29, x30, [sp], #32
   1b060:	d65f03c0 	ret
   1b064:	00000000 	.inst	0x00000000 ; undefined

000000000001b068 <bl2_el3_plat_prepare_exit>:
   1b068:	d65f03c0 	ret
   1b06c:	00000000 	.inst	0x00000000 ; undefined

000000000001b070 <plat_error_handler>:
   1b070:	d503207f 	wfi
   1b074:	17ffffff 	b	1b070 <plat_error_handler>

000000000001b078 <bl2_plat_preload_setup>:
   1b078:	d65f03c0 	ret
   1b07c:	00000000 	.inst	0x00000000 ; undefined

000000000001b080 <plat_try_next_boot_source>:
   1b080:	52800000 	mov	w0, #0x0                   	// #0
   1b084:	d65f03c0 	ret

000000000001b088 <setup_page_tables>:
   1b088:	a9be7bfd 	stp	x29, x30, [sp, #-32]!
   1b08c:	910003fd 	mov	x29, sp
   1b090:	f9000bf3 	str	x19, [sp, #16]
   1b094:	aa0103f3 	mov	x19, x1
   1b098:	94000056 	bl	1b1f0 <mmap_add>
   1b09c:	aa1303e0 	mov	x0, x19
   1b0a0:	94000054 	bl	1b1f0 <mmap_add>
   1b0a4:	f9400bf3 	ldr	x19, [sp, #16]
   1b0a8:	a8c27bfd 	ldp	x29, x30, [sp], #32
   1b0ac:	14000055 	b	1b200 <init_xlat_tables>

000000000001b0b0 <plat_log_get_prefix>:
   1b0b0:	52800641 	mov	w1, #0x32                  	// #50
   1b0b4:	6b01001f 	cmp	w0, w1
   1b0b8:	1a819000 	csel	w0, w0, w1, ls  // ls = plast
   1b0bc:	52800143 	mov	w3, #0xa                   	// #10
   1b0c0:	6b03001f 	cmp	w0, w3
   1b0c4:	529999a2 	mov	w2, #0xcccd                	// #52429
   1b0c8:	1a832000 	csel	w0, w0, w3, cs  // cs = hs, nlast
   1b0cc:	72b99982 	movk	w2, #0xcccc, lsl #16
   1b0d0:	d0000001 	adrp	x1, 1d000 <sys_acctl+0xe0>
   1b0d4:	913ae021 	add	x1, x1, #0xeb8
   1b0d8:	9ba27c00 	umull	x0, w0, w2
   1b0dc:	d363fc00 	lsr	x0, x0, #35
   1b0e0:	51000400 	sub	w0, w0, #0x1
   1b0e4:	f8607820 	ldr	x0, [x1, x0, lsl #3]
   1b0e8:	d65f03c0 	ret
   1b0ec:	00000000 	.inst	0x00000000 ; undefined

000000000001b0f0 <xlat_arch_get_pas>:
   1b0f0:	121c0400 	and	w0, w0, #0x30
   1b0f4:	7100401f 	cmp	w0, #0x10
   1b0f8:	1a9f17e0 	cset	w0, eq  // eq = none
   1b0fc:	531b6800 	lsl	w0, w0, #5
   1b100:	d65f03c0 	ret
   1b104:	00000000 	.inst	0x00000000 ; undefined

000000000001b108 <tcr_physical_addr_size_bits>:
   1b108:	d28000a1 	mov	x1, #0x5                   	// #5
   1b10c:	f2540c1f 	tst	x0, #0xf00000000000
   1b110:	54000181 	b.ne	1b140 <tcr_physical_addr_size_bits+0x38>  // b.any
   1b114:	f256041f 	tst	x0, #0xc0000000000
   1b118:	d2800081 	mov	x1, #0x4                   	// #4
   1b11c:	54000121 	b.ne	1b140 <tcr_physical_addr_size_bits+0x38>  // b.any
   1b120:	f258041f 	tst	x0, #0x30000000000
   1b124:	d2800061 	mov	x1, #0x3                   	// #3
   1b128:	540000c1 	b.ne	1b140 <tcr_physical_addr_size_bits+0x38>  // b.any
   1b12c:	f25c0c1f 	tst	x0, #0xf000000000
   1b130:	d2800041 	mov	x1, #0x2                   	// #2
   1b134:	54000061 	b.ne	1b140 <tcr_physical_addr_size_bits+0x38>  // b.any
   1b138:	f2600c1f 	tst	x0, #0xf00000000
   1b13c:	9a9f07e1 	cset	x1, ne  // ne = any
   1b140:	aa0103e0 	mov	x0, x1
   1b144:	d65f03c0 	ret

000000000001b148 <xlat_arch_regime_get_xn_desc>:
   1b148:	7100041f 	cmp	w0, #0x1
   1b14c:	d2e00c01 	mov	x1, #0x60000000000000      	// #27021597764222976
   1b150:	d2e00800 	mov	x0, #0x40000000000000      	// #18014398509481984
   1b154:	9a800020 	csel	x0, x1, x0, eq  // eq = none
   1b158:	d65f03c0 	ret
   1b15c:	00000000 	.inst	0x00000000 ; undefined

000000000001b160 <xlat_arch_current_el>:
   1b160:	d5384240 	mrs	x0, currentel
   1b164:	53020c00 	ubfx	w0, w0, #2, #2
   1b168:	d65f03c0 	ret
   1b16c:	00000000 	.inst	0x00000000 ; undefined

000000000001b170 <setup_mmu_cfg>:
   1b170:	91000484 	add	x4, x4, #0x1
   1b174:	52800806 	mov	w6, #0x40                  	// #64
   1b178:	dac00084 	rbit	x4, x4
   1b17c:	721f003f 	tst	w1, #0x2
   1b180:	dac01084 	clz	x4, x4
   1b184:	5286a001 	mov	w1, #0x3500                	// #13568
   1b188:	4b0400c4 	sub	w4, w6, w4
   1b18c:	aa0003e6 	mov	x6, x0
   1b190:	2a010081 	orr	w1, w4, w1
   1b194:	a9bf7bfd 	stp	x29, x30, [sp, #-16]!
   1b198:	1a840024 	csel	w4, w1, w4, eq  // eq = none
   1b19c:	910003fd 	mov	x29, sp
   1b1a0:	aa0303e0 	mov	x0, x3
   1b1a4:	93407c84 	sxtw	x4, w4
   1b1a8:	97ffffd8 	bl	1b108 <tcr_physical_addr_size_bits>
   1b1ac:	aa008081 	orr	x1, x4, x0, lsl #32
   1b1b0:	aa004084 	orr	x4, x4, x0, lsl #16
   1b1b4:	710004bf 	cmp	w5, #0x1
   1b1b8:	d2b01003 	mov	x3, #0x80800000            	// #2155872256
   1b1bc:	b2690021 	orr	x1, x1, #0x800000
   1b1c0:	aa030084 	orr	x4, x4, x3
   1b1c4:	9a811084 	csel	x4, x4, x1, ne  // ne = any
   1b1c8:	d5380740 	mrs	x0, id_aa64mmfr2_el1
   1b1cc:	d2809fe1 	mov	x1, #0x4ff                 	// #1279
   1b1d0:	f2400c1f 	tst	x0, #0xf
   1b1d4:	b2400040 	orr	x0, x2, #0x1
   1b1d8:	f2a00881 	movk	x1, #0x44, lsl #16
   1b1dc:	9a821000 	csel	x0, x0, x2, ne  // ne = any
   1b1e0:	a90010c1 	stp	x1, x4, [x6]
   1b1e4:	f90008c0 	str	x0, [x6, #16]
   1b1e8:	a8c17bfd 	ldp	x29, x30, [sp], #16
   1b1ec:	d65f03c0 	ret

000000000001b1f0 <mmap_add>:
   1b1f0:	aa0003e1 	mov	x1, x0
   1b1f4:	90000020 	adrp	x0, 1f000 <__RO_END__>
   1b1f8:	91218000 	add	x0, x0, #0x860
   1b1fc:	1400019b 	b	1b868 <mmap_add_ctx>

000000000001b200 <init_xlat_tables>:
   1b200:	a9bf7bfd 	stp	x29, x30, [sp, #-16]!
   1b204:	910003fd 	mov	x29, sp
   1b208:	97ffffd6 	bl	1b160 <xlat_arch_current_el>
   1b20c:	2a0003e2 	mov	w2, w0
   1b210:	90000021 	adrp	x1, 1f000 <__RO_END__>
   1b214:	7100041f 	cmp	w0, #0x1
   1b218:	91218020 	add	x0, x1, #0x860
   1b21c:	540000e0 	b.eq	1b238 <init_xlat_tables+0x38>  // b.none
   1b220:	7100085f 	cmp	w2, #0x2
   1b224:	540000a0 	b.eq	1b238 <init_xlat_tables+0x38>  // b.none
   1b228:	52800061 	mov	w1, #0x3                   	// #3
   1b22c:	b9005801 	str	w1, [x0, #88]
   1b230:	a8c17bfd 	ldp	x29, x30, [sp], #16
   1b234:	1400019f 	b	1b8b0 <init_xlat_tables_ctx>
   1b238:	b9005802 	str	w2, [x0, #88]
   1b23c:	a8c17bfd 	ldp	x29, x30, [sp], #16
   1b240:	1400019c 	b	1b8b0 <init_xlat_tables_ctx>
   1b244:	00000000 	.inst	0x00000000 ; undefined

000000000001b248 <enable_mmu_el3>:
   1b248:	90000023 	adrp	x3, 1f000 <__RO_END__>
   1b24c:	91218063 	add	x3, x3, #0x860
   1b250:	a9be7bfd 	stp	x29, x30, [sp, #-32]!
   1b254:	52800065 	mov	w5, #0x3                   	// #3
   1b258:	910003fd 	mov	x29, sp
   1b25c:	f9400464 	ldr	x4, [x3, #8]
   1b260:	f9401862 	ldr	x2, [x3, #48]
   1b264:	f9402063 	ldr	x3, [x3, #64]
   1b268:	f9000bf3 	str	x19, [sp, #16]
   1b26c:	2a0003f3 	mov	w19, w0
   1b270:	d0000020 	adrp	x0, 21000 <sd_drv_work_area+0x58>
   1b274:	2a1303e1 	mov	w1, w19
   1b278:	910a6000 	add	x0, x0, #0x298
   1b27c:	97ffffbd 	bl	1b170 <setup_mmu_cfg>
   1b280:	2a1303e0 	mov	w0, w19
   1b284:	f9400bf3 	ldr	x19, [sp, #16]
   1b288:	a8c27bfd 	ldp	x29, x30, [sp], #32
   1b28c:	17ffdc54 	b	123dc <enable_mmu_direct_el3>

000000000001b290 <xlat_desc>:
   1b290:	a9bd7bfd 	stp	x29, x30, [sp, #-48]!
   1b294:	71000c7f 	cmp	w3, #0x3
   1b298:	910003fd 	mov	x29, sp
   1b29c:	a90153f3 	stp	x19, x20, [sp, #16]
   1b2a0:	aa0003f3 	mov	x19, x0
   1b2a4:	2a0103f4 	mov	w20, w1
   1b2a8:	f90013f5 	str	x21, [sp, #32]
   1b2ac:	d2800075 	mov	x21, #0x3                   	// #3
   1b2b0:	9a9f06b5 	csinc	x21, x21, xzr, eq  // eq = none
   1b2b4:	2a0103e0 	mov	w0, w1
   1b2b8:	aa0202b5 	orr	x21, x21, x2
   1b2bc:	97ffff8d 	bl	1b0f0 <xlat_arch_get_pas>
   1b2c0:	f27d029f 	tst	x20, #0x8
   1b2c4:	32190003 	orr	w3, w0, #0x80
   1b2c8:	1a800063 	csel	w3, w3, w0, eq  // eq = none
   1b2cc:	b9405a61 	ldr	w1, [x19, #88]
   1b2d0:	aa150062 	orr	x2, x3, x21
   1b2d4:	d2808813 	mov	x19, #0x440                 	// #1088
   1b2d8:	7100043f 	cmp	w1, #0x1
   1b2dc:	aa130053 	orr	x19, x2, x19
   1b2e0:	54000081 	b.ne	1b2f0 <xlat_desc+0x60>  // b.any
   1b2e4:	b2760042 	orr	x2, x2, #0x400
   1b2e8:	f279029f 	tst	x20, #0x80
   1b2ec:	9a821273 	csel	x19, x19, x2, ne  // ne = any
   1b2f0:	72000a95 	ands	w21, w20, #0x7
   1b2f4:	540003e0 	b.eq	1b370 <xlat_desc+0xe0>  // b.none
   1b2f8:	52800900 	mov	w0, #0x48                  	// #72
   1b2fc:	6a00029f 	tst	w20, w0
   1b300:	540002c1 	b.ne	1b358 <xlat_desc+0xc8>  // b.any
   1b304:	71000abf 	cmp	w21, #0x2
   1b308:	54000100 	b.eq	1b328 <xlat_desc+0x98>  // b.none
   1b30c:	d2804100 	mov	x0, #0x208                 	// #520
   1b310:	aa000273 	orr	x19, x19, x0
   1b314:	aa1303e0 	mov	x0, x19
   1b318:	a94153f3 	ldp	x19, x20, [sp, #16]
   1b31c:	f94013f5 	ldr	x21, [sp, #32]
   1b320:	a8c37bfd 	ldp	x29, x30, [sp], #48
   1b324:	d65f03c0 	ret
   1b328:	12180694 	and	w20, w20, #0x300
   1b32c:	710c029f 	cmp	w20, #0x300
   1b330:	54ffff20 	b.eq	1b314 <xlat_desc+0x84>  // b.none
   1b334:	7108029f 	cmp	w20, #0x200
   1b338:	b2770260 	orr	x0, x19, #0x200
   1b33c:	b2780673 	orr	x19, x19, #0x300
   1b340:	9a801273 	csel	x19, x19, x0, ne  // ne = any
   1b344:	aa1303e0 	mov	x0, x19
   1b348:	a94153f3 	ldp	x19, x20, [sp, #16]
   1b34c:	f94013f5 	ldr	x21, [sp, #32]
   1b350:	a8c37bfd 	ldp	x29, x30, [sp], #48
   1b354:	d65f03c0 	ret
   1b358:	2a0103e0 	mov	w0, w1
   1b35c:	97ffff7b 	bl	1b148 <xlat_arch_regime_get_xn_desc>
   1b360:	71000abf 	cmp	w21, #0x2
   1b364:	aa000273 	orr	x19, x19, x0
   1b368:	54fffd21 	b.ne	1b30c <xlat_desc+0x7c>  // b.any
   1b36c:	17ffffef 	b	1b328 <xlat_desc+0x98>
   1b370:	2a0103e0 	mov	w0, w1
   1b374:	97ffff75 	bl	1b148 <xlat_arch_regime_get_xn_desc>
   1b378:	aa000273 	orr	x19, x19, x0
   1b37c:	d2804080 	mov	x0, #0x204                 	// #516
   1b380:	aa000273 	orr	x19, x19, x0
   1b384:	aa1303e0 	mov	x0, x19
   1b388:	a94153f3 	ldp	x19, x20, [sp, #16]
   1b38c:	f94013f5 	ldr	x21, [sp, #32]
   1b390:	a8c37bfd 	ldp	x29, x30, [sp], #48
   1b394:	d65f03c0 	ret

000000000001b398 <xlat_tables_map_region>:
   1b398:	a9b97bfd 	stp	x29, x30, [sp, #-112]!
   1b39c:	910003fd 	mov	x29, sp
   1b3a0:	a90363f7 	stp	x23, x24, [sp, #48]
   1b3a4:	aa0103f8 	mov	x24, x1
   1b3a8:	0b050cb7 	add	w23, w5, w5, lsl #3
   1b3ac:	a9025bf5 	stp	x21, x22, [sp, #32]
   1b3b0:	2a0503f6 	mov	w22, w5
   1b3b4:	4b1703f7 	neg	w23, w23
   1b3b8:	f9400421 	ldr	x1, [x1, #8]
   1b3bc:	a9046bf9 	stp	x25, x26, [sp, #64]
   1b3c0:	11009ef7 	add	w23, w23, #0x27
   1b3c4:	f9400b05 	ldr	x5, [x24, #16]
   1b3c8:	a90573fb 	stp	x27, x28, [sp, #80]
   1b3cc:	aa0003f9 	mov	x25, x0
   1b3d0:	8b050035 	add	x21, x1, x5
   1b3d4:	52800000 	mov	w0, #0x0                   	// #0
   1b3d8:	eb02003f 	cmp	x1, x2
   1b3dc:	d10006b5 	sub	x21, x21, #0x1
   1b3e0:	540000e9 	b.ls	1b3fc <xlat_tables_map_region+0x64>  // b.plast
   1b3e4:	92800008 	mov	x8, #0xffffffffffffffff    	// #-1
   1b3e8:	9ad72108 	lsl	x8, x8, x23
   1b3ec:	8a010108 	and	x8, x8, x1
   1b3f0:	cb020100 	sub	x0, x8, x2
   1b3f4:	aa0803e2 	mov	x2, x8
   1b3f8:	9ad72400 	lsr	x0, x0, x23
   1b3fc:	6b00009f 	cmp	w4, w0
   1b400:	54000f09 	b.ls	1b5e0 <xlat_tables_map_region+0x248>  // b.plast
   1b404:	a90153f3 	stp	x19, x20, [sp, #16]
   1b408:	51000493 	sub	w19, w4, #0x1
   1b40c:	2a0003fa 	mov	w26, w0
   1b410:	4b000273 	sub	w19, w19, w0
   1b414:	92800000 	mov	x0, #0xffffffffffffffff    	// #-1
   1b418:	8b1a0273 	add	x19, x19, x26
   1b41c:	9ad72000 	lsl	x0, x0, x23
   1b420:	d2800034 	mov	x20, #0x1                   	// #1
   1b424:	aa2003e0 	mvn	x0, x0
   1b428:	8b1a0c7a 	add	x26, x3, x26, lsl #3
   1b42c:	8b130c73 	add	x19, x3, x19, lsl #3
   1b430:	9ad72294 	lsl	x20, x20, x23
   1b434:	f90037e0 	str	x0, [sp, #104]
   1b438:	110006c0 	add	w0, w22, #0x1
   1b43c:	b90067e0 	str	w0, [sp, #100]
   1b440:	f9400343 	ldr	x3, [x26]
   1b444:	d1000420 	sub	x0, x1, #0x1
   1b448:	8b02029b 	add	x27, x20, x2
   1b44c:	eb02003f 	cmp	x1, x2
   1b450:	8b050000 	add	x0, x0, x5
   1b454:	d100077c 	sub	x28, x27, #0x1
   1b458:	fa5c9000 	ccmp	x0, x28, #0x0, ls  // ls = plast
   1b45c:	12000464 	and	w4, w3, #0x3
   1b460:	540005e2 	b.cs	1b51c <xlat_tables_map_region+0x184>  // b.hs, b.nlast
   1b464:	eb1c003f 	cmp	x1, x28
   1b468:	54000069 	b.ls	1b474 <xlat_tables_map_region+0xdc>  // b.plast
   1b46c:	eb02001f 	cmp	x0, x2
   1b470:	54000243 	b.cc	1b4b8 <xlat_tables_map_region+0x120>  // b.lo, b.ul, b.last
   1b474:	35000324 	cbnz	w4, 1b4d8 <xlat_tables_map_region+0x140>
   1b478:	b9402f23 	ldr	w3, [x25, #44]
   1b47c:	f9401320 	ldr	x0, [x25, #32]
   1b480:	11000461 	add	w1, w3, #0x1
   1b484:	b9002f21 	str	w1, [x25, #44]
   1b488:	93747c63 	sbfiz	x3, x3, #12, #32
   1b48c:	ab030003 	adds	x3, x0, x3
   1b490:	54000960 	b.eq	1b5bc <xlat_tables_map_region+0x224>  // b.none
   1b494:	b94067e5 	ldr	w5, [sp, #100]
   1b498:	b2400460 	orr	x0, x3, #0x3
   1b49c:	f9000340 	str	x0, [x26]
   1b4a0:	52804004 	mov	w4, #0x200                 	// #512
   1b4a4:	aa1803e1 	mov	x1, x24
   1b4a8:	aa1903e0 	mov	x0, x25
   1b4ac:	97ffffbb 	bl	1b398 <xlat_tables_map_region>
   1b4b0:	eb1c001f 	cmp	x0, x28
   1b4b4:	54000221 	b.ne	1b4f8 <xlat_tables_map_region+0x160>  // b.any
   1b4b8:	eb1b02bf 	cmp	x21, x27
   1b4bc:	540005e9 	b.ls	1b578 <xlat_tables_map_region+0x1e0>  // b.plast
   1b4c0:	eb13035f 	cmp	x26, x19
   1b4c4:	540005a0 	b.eq	1b578 <xlat_tables_map_region+0x1e0>  // b.none
   1b4c8:	9100235a 	add	x26, x26, #0x8
   1b4cc:	aa1b03e2 	mov	x2, x27
   1b4d0:	a9409701 	ldp	x1, x5, [x24, #8]
   1b4d4:	17ffffdb 	b	1b440 <xlat_tables_map_region+0xa8>
   1b4d8:	b94067e5 	ldr	w5, [sp, #100]
   1b4dc:	92748c63 	and	x3, x3, #0xfffffffff000
   1b4e0:	52804004 	mov	w4, #0x200                 	// #512
   1b4e4:	aa1803e1 	mov	x1, x24
   1b4e8:	aa1903e0 	mov	x0, x25
   1b4ec:	97ffffab 	bl	1b398 <xlat_tables_map_region>
   1b4f0:	eb1c001f 	cmp	x0, x28
   1b4f4:	54fffe20 	b.eq	1b4b8 <xlat_tables_map_region+0x120>  // b.none
   1b4f8:	aa0003fc 	mov	x28, x0
   1b4fc:	aa1c03e0 	mov	x0, x28
   1b500:	a94153f3 	ldp	x19, x20, [sp, #16]
   1b504:	a9425bf5 	ldp	x21, x22, [sp, #32]
   1b508:	a94363f7 	ldp	x23, x24, [sp, #48]
   1b50c:	a9446bf9 	ldp	x25, x26, [sp, #64]
   1b510:	a94573fb 	ldp	x27, x28, [sp, #80]
   1b514:	a8c77bfd 	ldp	x29, x30, [sp], #112
   1b518:	d65f03c0 	ret
   1b51c:	f9400300 	ldr	x0, [x24]
   1b520:	71000edf 	cmp	w22, #0x3
   1b524:	8b000040 	add	x0, x2, x0
   1b528:	cb010000 	sub	x0, x0, x1
   1b52c:	54000360 	b.eq	1b598 <xlat_tables_map_region+0x200>  // b.none
   1b530:	71000c9f 	cmp	w4, #0x3
   1b534:	54fffd20 	b.eq	1b4d8 <xlat_tables_map_region+0x140>  // b.none
   1b538:	35fffc04 	cbnz	w4, 1b4b8 <xlat_tables_map_region+0x120>
   1b53c:	f94037e1 	ldr	x1, [sp, #104]
   1b540:	ea01001f 	tst	x0, x1
   1b544:	7a400ac4 	ccmp	w22, #0x0, #0x4, eq  // eq = none
   1b548:	54fff980 	b.eq	1b478 <xlat_tables_map_region+0xe0>  // b.none
   1b54c:	f9401301 	ldr	x1, [x24, #32]
   1b550:	9ad72421 	lsr	x1, x1, x23
   1b554:	b4fff921 	cbz	x1, 1b478 <xlat_tables_map_region+0xe0>
   1b558:	b9401b01 	ldr	w1, [x24, #24]
   1b55c:	aa0003e2 	mov	x2, x0
   1b560:	2a1603e3 	mov	w3, w22
   1b564:	aa1903e0 	mov	x0, x25
   1b568:	97ffff4a 	bl	1b290 <xlat_desc>
   1b56c:	f9000340 	str	x0, [x26]
   1b570:	eb1b02bf 	cmp	x21, x27
   1b574:	54fffa68 	b.hi	1b4c0 <xlat_tables_map_region+0x128>  // b.pmore
   1b578:	a94153f3 	ldp	x19, x20, [sp, #16]
   1b57c:	aa1c03e0 	mov	x0, x28
   1b580:	a9425bf5 	ldp	x21, x22, [sp, #32]
   1b584:	a94363f7 	ldp	x23, x24, [sp, #48]
   1b588:	a9446bf9 	ldp	x25, x26, [sp, #64]
   1b58c:	a94573fb 	ldp	x27, x28, [sp, #80]
   1b590:	a8c77bfd 	ldp	x29, x30, [sp], #112
   1b594:	d65f03c0 	ret
   1b598:	71000c9f 	cmp	w4, #0x3
   1b59c:	54fff8e0 	b.eq	1b4b8 <xlat_tables_map_region+0x120>  // b.none
   1b5a0:	b9401b01 	ldr	w1, [x24, #24]
   1b5a4:	aa0003e2 	mov	x2, x0
   1b5a8:	2a1603e3 	mov	w3, w22
   1b5ac:	aa1903e0 	mov	x0, x25
   1b5b0:	97ffff38 	bl	1b290 <xlat_desc>
   1b5b4:	f9000340 	str	x0, [x26]
   1b5b8:	17ffffee 	b	1b570 <xlat_tables_map_region+0x1d8>
   1b5bc:	aa0203fc 	mov	x28, x2
   1b5c0:	aa1c03e0 	mov	x0, x28
   1b5c4:	a94153f3 	ldp	x19, x20, [sp, #16]
   1b5c8:	a9425bf5 	ldp	x21, x22, [sp, #32]
   1b5cc:	a94363f7 	ldp	x23, x24, [sp, #48]
   1b5d0:	a9446bf9 	ldp	x25, x26, [sp, #64]
   1b5d4:	a94573fb 	ldp	x27, x28, [sp, #80]
   1b5d8:	a8c77bfd 	ldp	x29, x30, [sp], #112
   1b5dc:	d65f03c0 	ret
   1b5e0:	d100045c 	sub	x28, x2, #0x1
   1b5e4:	17ffffe6 	b	1b57c <xlat_tables_map_region+0x1e4>

000000000001b5e8 <mmap_add_region_ctx>:
   1b5e8:	f940082c 	ldr	x12, [x1, #16]
   1b5ec:	b500004c 	cbnz	x12, 1b5f4 <mmap_add_region_ctx+0xc>
   1b5f0:	d65f03c0 	ret
   1b5f4:	a9401c2f 	ldp	x15, x7, [x1]
   1b5f8:	f9401023 	ldr	x3, [x1, #32]
   1b5fc:	aa0c01e2 	orr	x2, x15, x12
   1b600:	aa070042 	orr	x2, x2, x7
   1b604:	f2402c5f 	tst	x2, #0xfff
   1b608:	54001141 	b.ne	1b830 <mmap_add_region_ctx+0x248>  // b.any
   1b60c:	f148007f 	cmp	x3, #0x200, lsl #12
   1b610:	d2a80002 	mov	x2, #0x40000000            	// #1073741824
   1b614:	fa421064 	ccmp	x3, x2, #0x4, ne  // ne = any
   1b618:	d2820002 	mov	x2, #0x1000                	// #4096
   1b61c:	fa421064 	ccmp	x3, x2, #0x4, ne  // ne = any
   1b620:	54001081 	b.ne	1b830 <mmap_add_region_ctx+0x248>  // b.any
   1b624:	a9bc7bfd 	stp	x29, x30, [sp, #-64]!
   1b628:	8b07018e 	add	x14, x12, x7
   1b62c:	910003fd 	mov	x29, sp
   1b630:	a9025bf5 	stp	x21, x22, [sp, #32]
   1b634:	8b0c01f5 	add	x21, x15, x12
   1b638:	d10006b5 	sub	x21, x21, #0x1
   1b63c:	a90153f3 	stp	x19, x20, [sp, #16]
   1b640:	eb1501ff 	cmp	x15, x21
   1b644:	d10005d4 	sub	x20, x14, #0x1
   1b648:	fa5490e2 	ccmp	x7, x20, #0x2, ls  // ls = plast
   1b64c:	54000fa8 	b.hi	1b840 <mmap_add_region_ctx+0x258>  // b.pmore
   1b650:	f9400402 	ldr	x2, [x0, #8]
   1b654:	eb02029f 	cmp	x20, x2
   1b658:	54000f48 	b.hi	1b840 <mmap_add_region_ctx+0x258>  // b.pmore
   1b65c:	f9400002 	ldr	x2, [x0]
   1b660:	eb0202bf 	cmp	x21, x2
   1b664:	54000ee8 	b.hi	1b840 <mmap_add_region_ctx+0x258>  // b.pmore
   1b668:	b940180d 	ldr	w13, [x0, #24]
   1b66c:	52800503 	mov	w3, #0x28                  	// #40
   1b670:	f9400802 	ldr	x2, [x0, #16]
   1b674:	9b2309ad 	smaddl	x13, w13, w3, x2
   1b678:	f85e81a3 	ldur	x3, [x13, #-24]
   1b67c:	b5000f03 	cbnz	x3, 1b85c <mmap_add_region_ctx+0x274>
   1b680:	a940ac48 	ldp	x8, x11, [x2, #8]
   1b684:	b4000e2b 	cbz	x11, 1b848 <mmap_add_region_ctx+0x260>
   1b688:	aa0803e3 	mov	x3, x8
   1b68c:	aa0b03e9 	mov	x9, x11
   1b690:	aa0203e5 	mov	x5, x2
   1b694:	cb0f00f0 	sub	x16, x7, x15
   1b698:	14000012 	b	1b6e0 <mmap_add_region_ctx+0xf8>
   1b69c:	eb0300ff 	cmp	x7, x3
   1b6a0:	8b0400c6 	add	x6, x6, x4
   1b6a4:	fa4a9280 	ccmp	x20, x10, #0x0, ls  // ls = plast
   1b6a8:	54000282 	b.cs	1b6f8 <mmap_add_region_ctx+0x110>  // b.hs, b.nlast
   1b6ac:	eb0601ff 	cmp	x15, x6
   1b6b0:	1a9f97e6 	cset	w6, hi  // hi = pmore
   1b6b4:	eb0402bf 	cmp	x21, x4
   1b6b8:	1a9f27e4 	cset	w4, cc  // cc = lo, ul, last
   1b6bc:	eb03029f 	cmp	x20, x3
   1b6c0:	2a0400c6 	orr	w6, w6, w4
   1b6c4:	fa4a20e2 	ccmp	x7, x10, #0x2, cs  // cs = hs, nlast
   1b6c8:	54000249 	b.ls	1b710 <mmap_add_region_ctx+0x128>  // b.plast
   1b6cc:	34000226 	cbz	w6, 1b710 <mmap_add_region_ctx+0x128>
   1b6d0:	9100a0a5 	add	x5, x5, #0x28
   1b6d4:	f94008a9 	ldr	x9, [x5, #16]
   1b6d8:	b40002a9 	cbz	x9, 1b72c <mmap_add_region_ctx+0x144>
   1b6dc:	f94004a3 	ldr	x3, [x5, #8]
   1b6e0:	d1000526 	sub	x6, x9, #0x1
   1b6e4:	8b0300ca 	add	x10, x6, x3
   1b6e8:	eb0a029f 	cmp	x20, x10
   1b6ec:	fa4390e0 	ccmp	x7, x3, #0x0, ls  // ls = plast
   1b6f0:	f94000a4 	ldr	x4, [x5]
   1b6f4:	54fffd43 	b.cc	1b69c <mmap_add_region_ctx+0xb4>  // b.lo, b.ul, b.last
   1b6f8:	cb040064 	sub	x4, x3, x4
   1b6fc:	eb10009f 	cmp	x4, x16
   1b700:	54000081 	b.ne	1b710 <mmap_add_region_ctx+0x128>  // b.any
   1b704:	eb0300ff 	cmp	x7, x3
   1b708:	fa490180 	ccmp	x12, x9, #0x0, eq  // eq = none
   1b70c:	54fffe21 	b.ne	1b6d0 <mmap_add_region_ctx+0xe8>  // b.any
   1b710:	12800001 	mov	w1, #0xffffffff            	// #-1
   1b714:	a94153f3 	ldp	x19, x20, [sp, #16]
   1b718:	d0000000 	adrp	x0, 1d000 <sys_acctl+0xe0>
   1b71c:	a9425bf5 	ldp	x21, x22, [sp, #32]
   1b720:	913e0000 	add	x0, x0, #0xf80
   1b724:	a8c47bfd 	ldp	x29, x30, [sp], #64
   1b728:	17fffdce 	b	1ae60 <tf_log>
   1b72c:	8b080163 	add	x3, x11, x8
   1b730:	f9001bf7 	str	x23, [sp, #48]
   1b734:	d1000464 	sub	x4, x3, #0x1
   1b738:	aa0203f3 	mov	x19, x2
   1b73c:	eb04029f 	cmp	x20, x4
   1b740:	540008a9 	b.ls	1b854 <mmap_add_region_ctx+0x26c>  // b.plast
   1b744:	d503201f 	nop
   1b748:	9100a273 	add	x19, x19, #0x28
   1b74c:	a940ae63 	ldp	x3, x11, [x19, #8]
   1b750:	f100017f 	cmp	x11, #0x0
   1b754:	8b030163 	add	x3, x11, x3
   1b758:	1a9f07e4 	cset	w4, ne  // ne = any
   1b75c:	d1000465 	sub	x5, x3, #0x1
   1b760:	7100009f 	cmp	w4, #0x0
   1b764:	fa5410a2 	ccmp	x5, x20, #0x2, ne  // ne = any
   1b768:	54ffff03 	b.cc	1b748 <mmap_add_region_ctx+0x160>  // b.lo, b.ul, b.last
   1b76c:	eb0b019f 	cmp	x12, x11
   1b770:	fa4381c0 	ccmp	x14, x3, #0x0, hi  // hi = pmore
   1b774:	7a400884 	ccmp	w4, #0x0, #0x4, eq  // eq = none
   1b778:	54000120 	b.eq	1b79c <mmap_add_region_ctx+0x1b4>  // b.none
   1b77c:	d503201f 	nop
   1b780:	9100a273 	add	x19, x19, #0x28
   1b784:	a9408e64 	ldp	x4, x3, [x19, #8]
   1b788:	f100007f 	cmp	x3, #0x0
   1b78c:	fa431180 	ccmp	x12, x3, #0x0, ne  // ne = any
   1b790:	8b040063 	add	x3, x3, x4
   1b794:	fa4e8060 	ccmp	x3, x14, #0x0, hi  // hi = pmore
   1b798:	54ffff40 	b.eq	1b780 <mmap_add_region_ctx+0x198>  // b.none
   1b79c:	eb0d005f 	cmp	x2, x13
   1b7a0:	540000e2 	b.cs	1b7bc <mmap_add_region_ctx+0x1d4>  // b.hs, b.nlast
   1b7a4:	d503201f 	nop
   1b7a8:	9100a042 	add	x2, x2, #0x28
   1b7ac:	f9400843 	ldr	x3, [x2, #16]
   1b7b0:	f100007f 	cmp	x3, #0x0
   1b7b4:	fa4211a0 	ccmp	x13, x2, #0x0, ne  // ne = any
   1b7b8:	54ffff88 	b.hi	1b7a8 <mmap_add_region_ctx+0x1c0>  // b.pmore
   1b7bc:	aa0103f6 	mov	x22, x1
   1b7c0:	aa0003f7 	mov	x23, x0
   1b7c4:	aa1303e1 	mov	x1, x19
   1b7c8:	cb130042 	sub	x2, x2, x19
   1b7cc:	9100a260 	add	x0, x19, #0x28
   1b7d0:	94000094 	bl	1ba20 <memmove>
   1b7d4:	f94002c0 	ldr	x0, [x22]
   1b7d8:	f9000260 	str	x0, [x19]
   1b7dc:	f94022e0 	ldr	x0, [x23, #64]
   1b7e0:	f94006c1 	ldr	x1, [x22, #8]
   1b7e4:	f9000661 	str	x1, [x19, #8]
   1b7e8:	eb15001f 	cmp	x0, x21
   1b7ec:	f9400ac0 	ldr	x0, [x22, #16]
   1b7f0:	f9000a60 	str	x0, [x19, #16]
   1b7f4:	f9400ec0 	ldr	x0, [x22, #24]
   1b7f8:	f9000e60 	str	x0, [x19, #24]
   1b7fc:	f94012c0 	ldr	x0, [x22, #32]
   1b800:	f9001260 	str	x0, [x19, #32]
   1b804:	54000042 	b.cs	1b80c <mmap_add_region_ctx+0x224>  // b.hs, b.nlast
   1b808:	f90022f5 	str	x21, [x23, #64]
   1b80c:	f94026e0 	ldr	x0, [x23, #72]
   1b810:	eb14001f 	cmp	x0, x20
   1b814:	54000042 	b.cs	1b81c <mmap_add_region_ctx+0x234>  // b.hs, b.nlast
   1b818:	f90026f4 	str	x20, [x23, #72]
   1b81c:	a94153f3 	ldp	x19, x20, [sp, #16]
   1b820:	a9425bf5 	ldp	x21, x22, [sp, #32]
   1b824:	f9401bf7 	ldr	x23, [sp, #48]
   1b828:	a8c47bfd 	ldp	x29, x30, [sp], #64
   1b82c:	d65f03c0 	ret
   1b830:	d0000000 	adrp	x0, 1d000 <sys_acctl+0xe0>
   1b834:	128002a1 	mov	w1, #0xffffffea            	// #-22
   1b838:	913e0000 	add	x0, x0, #0xf80
   1b83c:	17fffd89 	b	1ae60 <tf_log>
   1b840:	12800421 	mov	w1, #0xffffffde            	// #-34
   1b844:	17ffffb4 	b	1b714 <mmap_add_region_ctx+0x12c>
   1b848:	aa0203f3 	mov	x19, x2
   1b84c:	f9001bf7 	str	x23, [sp, #48]
   1b850:	17ffffdb 	b	1b7bc <mmap_add_region_ctx+0x1d4>
   1b854:	52800024 	mov	w4, #0x1                   	// #1
   1b858:	17ffffc5 	b	1b76c <mmap_add_region_ctx+0x184>
   1b85c:	12800161 	mov	w1, #0xfffffff4            	// #-12
   1b860:	17ffffad 	b	1b714 <mmap_add_region_ctx+0x12c>
   1b864:	00000000 	.inst	0x00000000 ; undefined

000000000001b868 <mmap_add_ctx>:
   1b868:	a9be7bfd 	stp	x29, x30, [sp, #-32]!
   1b86c:	910003fd 	mov	x29, sp
   1b870:	a90153f3 	stp	x19, x20, [sp, #16]
   1b874:	aa0003f4 	mov	x20, x0
   1b878:	f9401020 	ldr	x0, [x1, #32]
   1b87c:	b4000120 	cbz	x0, 1b8a0 <mmap_add_ctx+0x38>
   1b880:	aa0103f3 	mov	x19, x1
   1b884:	d503201f 	nop
   1b888:	aa1303e1 	mov	x1, x19
   1b88c:	9100a273 	add	x19, x19, #0x28
   1b890:	aa1403e0 	mov	x0, x20
   1b894:	97ffff55 	bl	1b5e8 <mmap_add_region_ctx>
   1b898:	f9401260 	ldr	x0, [x19, #32]
   1b89c:	b5ffff60 	cbnz	x0, 1b888 <mmap_add_ctx+0x20>
   1b8a0:	a94153f3 	ldp	x19, x20, [sp, #16]
   1b8a4:	a8c27bfd 	ldp	x29, x30, [sp], #32
   1b8a8:	d65f03c0 	ret
   1b8ac:	00000000 	.inst	0x00000000 ; undefined

000000000001b8b0 <init_xlat_tables_ctx>:
   1b8b0:	a9be7bfd 	stp	x29, x30, [sp, #-32]!
   1b8b4:	910003fd 	mov	x29, sp
   1b8b8:	a90153f3 	stp	x19, x20, [sp, #16]
   1b8bc:	aa0003f4 	mov	x20, x0
   1b8c0:	f9400813 	ldr	x19, [x0, #16]
   1b8c4:	aa1303e0 	mov	x0, x19
   1b8c8:	9400003a 	bl	1b9b0 <xlat_mmap_print>
   1b8cc:	b9403a84 	ldr	w4, [x20, #56]
   1b8d0:	340000e4 	cbz	w4, 1b8ec <init_xlat_tables_ctx+0x3c>
   1b8d4:	f9401a81 	ldr	x1, [x20, #48]
   1b8d8:	d2800000 	mov	x0, #0x0                   	// #0
   1b8dc:	f820783f 	str	xzr, [x1, x0, lsl #3]
   1b8e0:	91000400 	add	x0, x0, #0x1
   1b8e4:	6b00009f 	cmp	w4, w0
   1b8e8:	54ffffa8 	b.hi	1b8dc <init_xlat_tables_ctx+0x2c>  // b.pmore
   1b8ec:	b9402a80 	ldr	w0, [x20, #40]
   1b8f0:	7100001f 	cmp	w0, #0x0
   1b8f4:	540001ed 	b.le	1b930 <init_xlat_tables_ctx+0x80>
   1b8f8:	f9401281 	ldr	x1, [x20, #32]
   1b8fc:	51000400 	sub	w0, w0, #0x1
   1b900:	52820003 	mov	w3, #0x1000                	// #4096
   1b904:	91400822 	add	x2, x1, #0x2, lsl #12
   1b908:	91400421 	add	x1, x1, #0x1, lsl #12
   1b90c:	9ba30802 	umaddl	x2, w0, w3, x2
   1b910:	d1400420 	sub	x0, x1, #0x1, lsl #12
   1b914:	d503201f 	nop
   1b918:	f800841f 	str	xzr, [x0], #8
   1b91c:	eb01001f 	cmp	x0, x1
   1b920:	54ffffc1 	b.ne	1b918 <init_xlat_tables_ctx+0x68>  // b.any
   1b924:	91400421 	add	x1, x1, #0x1, lsl #12
   1b928:	eb02003f 	cmp	x1, x2
   1b92c:	54ffff21 	b.ne	1b910 <init_xlat_tables_ctx+0x60>  // b.any
   1b930:	f9400a60 	ldr	x0, [x19, #16]
   1b934:	b5000060 	cbnz	x0, 1b940 <init_xlat_tables_ctx+0x90>
   1b938:	14000010 	b	1b978 <init_xlat_tables_ctx+0xc8>
   1b93c:	b9403a84 	ldr	w4, [x20, #56]
   1b940:	b9405285 	ldr	w5, [x20, #80]
   1b944:	d2800002 	mov	x2, #0x0                   	// #0
   1b948:	f9401a83 	ldr	x3, [x20, #48]
   1b94c:	aa1303e1 	mov	x1, x19
   1b950:	aa1403e0 	mov	x0, x20
   1b954:	97fffe91 	bl	1b398 <xlat_tables_map_region>
   1b958:	a9408e61 	ldp	x1, x3, [x19, #8]
   1b95c:	8b030022 	add	x2, x1, x3
   1b960:	d1000442 	sub	x2, x2, #0x1
   1b964:	eb00005f 	cmp	x2, x0
   1b968:	54000141 	b.ne	1b990 <init_xlat_tables_ctx+0xe0>  // b.any
   1b96c:	9100a273 	add	x19, x19, #0x28
   1b970:	f9400a60 	ldr	x0, [x19, #16]
   1b974:	b5fffe40 	cbnz	x0, 1b93c <init_xlat_tables_ctx+0x8c>
   1b978:	52800020 	mov	w0, #0x1                   	// #1
   1b97c:	39015280 	strb	w0, [x20, #84]
   1b980:	aa1403e0 	mov	x0, x20
   1b984:	a94153f3 	ldp	x19, x20, [sp, #16]
   1b988:	a8c27bfd 	ldp	x29, x30, [sp], #32
   1b98c:	1400000b 	b	1b9b8 <xlat_tables_print>
   1b990:	b9401a64 	ldr	w4, [x19, #24]
   1b994:	d0000000 	adrp	x0, 1d000 <sys_acctl+0xe0>
   1b998:	f9400262 	ldr	x2, [x19]
   1b99c:	913cc000 	add	x0, x0, #0xf30
   1b9a0:	97fffd30 	bl	1ae60 <tf_log>
   1b9a4:	97fffd9b 	bl	1b010 <console_flush>
   1b9a8:	97ffda1c 	bl	12218 <do_panic>
   1b9ac:	00000000 	.inst	0x00000000 ; undefined

000000000001b9b0 <xlat_mmap_print>:
   1b9b0:	d65f03c0 	ret
   1b9b4:	00000000 	.inst	0x00000000 ; undefined

000000000001b9b8 <xlat_tables_print>:
   1b9b8:	d65f03c0 	ret
   1b9bc:	00000000 	.inst	0x00000000 ; undefined

000000000001b9c0 <plat_get_syscnt_freq2>:
   1b9c0:	17fffbc6 	b	1a8d8 <syc_get_freq>
   1b9c4:	00000000 	.inst	0x00000000 ; undefined

000000000001b9c8 <memcmp>:
   1b9c8:	d1000421 	sub	x1, x1, #0x1
   1b9cc:	d2800003 	mov	x3, #0x0                   	// #0
   1b9d0:	14000006 	b	1b9e8 <memcmp+0x20>
   1b9d4:	38636804 	ldrb	w4, [x0, x3]
   1b9d8:	91000463 	add	x3, x3, #0x1
   1b9dc:	38636825 	ldrb	w5, [x1, x3]
   1b9e0:	6b05009f 	cmp	w4, w5
   1b9e4:	540000a1 	b.ne	1b9f8 <memcmp+0x30>  // b.any
   1b9e8:	eb03005f 	cmp	x2, x3
   1b9ec:	54ffff41 	b.ne	1b9d4 <memcmp+0xc>  // b.any
   1b9f0:	52800000 	mov	w0, #0x0                   	// #0
   1b9f4:	d65f03c0 	ret
   1b9f8:	4b050080 	sub	w0, w4, w5
   1b9fc:	d65f03c0 	ret

000000000001ba00 <memcpy>:
   1ba00:	b40000e2 	cbz	x2, 1ba1c <memcpy+0x1c>
   1ba04:	d2800003 	mov	x3, #0x0                   	// #0
   1ba08:	38636824 	ldrb	w4, [x1, x3]
   1ba0c:	38236804 	strb	w4, [x0, x3]
   1ba10:	91000463 	add	x3, x3, #0x1
   1ba14:	eb02007f 	cmp	x3, x2
   1ba18:	54ffff81 	b.ne	1ba08 <memcpy+0x8>  // b.any
   1ba1c:	d65f03c0 	ret

000000000001ba20 <memmove>:
   1ba20:	cb010004 	sub	x4, x0, x1
   1ba24:	aa0003e5 	mov	x5, x0
   1ba28:	eb02009f 	cmp	x4, x2
   1ba2c:	54000202 	b.cs	1ba6c <memmove+0x4c>  // b.hs, b.nlast
   1ba30:	8b020004 	add	x4, x0, x2
   1ba34:	8b020021 	add	x1, x1, x2
   1ba38:	eb04001f 	cmp	x0, x4
   1ba3c:	54000140 	b.eq	1ba64 <memmove+0x44>  // b.none
   1ba40:	d1000403 	sub	x3, x0, #0x1
   1ba44:	92800000 	mov	x0, #0xffffffffffffffff    	// #-1
   1ba48:	cb040063 	sub	x3, x3, x4
   1ba4c:	d503201f 	nop
   1ba50:	38606822 	ldrb	w2, [x1, x0]
   1ba54:	38206882 	strb	w2, [x4, x0]
   1ba58:	d1000400 	sub	x0, x0, #0x1
   1ba5c:	eb03001f 	cmp	x0, x3
   1ba60:	54ffff81 	b.ne	1ba50 <memmove+0x30>  // b.any
   1ba64:	aa0503e0 	mov	x0, x5
   1ba68:	d65f03c0 	ret
   1ba6c:	17ffffe5 	b	1ba00 <memcpy>

000000000001ba70 <memset>:
   1ba70:	b4000422 	cbz	x2, 1baf4 <memset+0x84>
   1ba74:	12001c21 	and	w1, w1, #0xff
   1ba78:	aa0003e3 	mov	x3, x0
   1ba7c:	14000004 	b	1ba8c <memset+0x1c>
   1ba80:	38001461 	strb	w1, [x3], #1
   1ba84:	f1000442 	subs	x2, x2, #0x1
   1ba88:	54000360 	b.eq	1baf4 <memset+0x84>  // b.none
   1ba8c:	f240087f 	tst	x3, #0x7
   1ba90:	54ffff81 	b.ne	1ba80 <memset+0x10>  // b.any
   1ba94:	92401c25 	and	x5, x1, #0xff
   1ba98:	f1001c5f 	cmp	x2, #0x7
   1ba9c:	aa0520a5 	orr	x5, x5, x5, lsl #8
   1baa0:	aa0540a5 	orr	x5, x5, x5, lsl #16
   1baa4:	aa0580a5 	orr	x5, x5, x5, lsl #32
   1baa8:	54000289 	b.ls	1baf8 <memset+0x88>  // b.plast
   1baac:	d1002046 	sub	x6, x2, #0x8
   1bab0:	d343fcc6 	lsr	x6, x6, #3
   1bab4:	910004c4 	add	x4, x6, #0x1
   1bab8:	8b040c64 	add	x4, x3, x4, lsl #3
   1babc:	d503201f 	nop
   1bac0:	f8008465 	str	x5, [x3], #8
   1bac4:	eb04007f 	cmp	x3, x4
   1bac8:	54ffffc1 	b.ne	1bac0 <memset+0x50>  // b.any
   1bacc:	d1002443 	sub	x3, x2, #0x9
   1bad0:	f240085f 	tst	x2, #0x7
   1bad4:	cb060c66 	sub	x6, x3, x6, lsl #3
   1bad8:	540000e0 	b.eq	1baf4 <memset+0x84>  // b.none
   1badc:	910004c2 	add	x2, x6, #0x1
   1bae0:	8b020082 	add	x2, x4, x2
   1bae4:	d503201f 	nop
   1bae8:	38001481 	strb	w1, [x4], #1
   1baec:	eb02009f 	cmp	x4, x2
   1baf0:	54ffffc1 	b.ne	1bae8 <memset+0x78>  // b.any
   1baf4:	d65f03c0 	ret
   1baf8:	d1000446 	sub	x6, x2, #0x1
   1bafc:	aa0303e4 	mov	x4, x3
   1bb00:	17fffff7 	b	1badc <memset+0x6c>
   1bb04:	00000000 	.inst	0x00000000 ; undefined

000000000001bb08 <unsigned_num_print>:
   1bb08:	a9ba7bfd 	stp	x29, x30, [sp, #-96]!
   1bb0c:	2a0103e1 	mov	w1, w1
   1bb10:	910003fd 	mov	x29, sp
   1bb14:	910123e5 	add	x5, sp, #0x48
   1bb18:	a90153f3 	stp	x19, x20, [sp, #16]
   1bb1c:	12001c54 	and	w20, w2, #0xff
   1bb20:	a9025bf5 	stp	x21, x22, [sp, #32]
   1bb24:	2a0303f6 	mov	w22, w3
   1bb28:	52800015 	mov	w21, #0x0                   	// #0
   1bb2c:	a90363f7 	stp	x23, x24, [sp, #48]
   1bb30:	14000002 	b	1bb38 <unsigned_num_print+0x30>
   1bb34:	2a1703f5 	mov	w21, w23
   1bb38:	9ac10804 	udiv	x4, x0, x1
   1bb3c:	110006b7 	add	w23, w21, #0x1
   1bb40:	9b018083 	msub	x3, x4, x1, x0
   1bb44:	12001c62 	and	w2, w3, #0xff
   1bb48:	f100247f 	cmp	x3, #0x9
   1bb4c:	11015c53 	add	w19, w2, #0x57
   1bb50:	1100c043 	add	w3, w2, #0x30
   1bb54:	12001c62 	and	w2, w3, #0xff
   1bb58:	12001e73 	and	w19, w19, #0xff
   1bb5c:	1a828273 	csel	w19, w19, w2, hi  // hi = pmore
   1bb60:	380014b3 	strb	w19, [x5], #1
   1bb64:	eb01001f 	cmp	x0, x1
   1bb68:	aa0403e0 	mov	x0, x4
   1bb6c:	54fffe42 	b.cs	1bb34 <unsigned_num_print+0x2c>  // b.hs, b.nlast
   1bb70:	710002df 	cmp	w22, #0x0
   1bb74:	52800018 	mov	w24, #0x0                   	// #0
   1bb78:	5400014d 	b.le	1bba0 <unsigned_num_print+0x98>
   1bb7c:	6b1602ff 	cmp	w23, w22
   1bb80:	5400010a 	b.ge	1bba0 <unsigned_num_print+0x98>  // b.tcont
   1bb84:	2a1603f8 	mov	w24, w22
   1bb88:	51000718 	sub	w24, w24, #0x1
   1bb8c:	2a1403e0 	mov	w0, w20
   1bb90:	9400015c 	bl	1c100 <putchar>
   1bb94:	6b1802ff 	cmp	w23, w24
   1bb98:	54ffff81 	b.ne	1bb88 <unsigned_num_print+0x80>  // b.any
   1bb9c:	4b1702d8 	sub	w24, w22, w23
   1bba0:	910123e0 	add	x0, sp, #0x48
   1bba4:	8b35c014 	add	x20, x0, w21, sxtw
   1bba8:	d1000416 	sub	x22, x0, #0x1
   1bbac:	14000002 	b	1bbb4 <unsigned_num_print+0xac>
   1bbb0:	39400293 	ldrb	w19, [x20]
   1bbb4:	2a1303e0 	mov	w0, w19
   1bbb8:	d1000694 	sub	x20, x20, #0x1
   1bbbc:	94000151 	bl	1c100 <putchar>
   1bbc0:	eb1402df 	cmp	x22, x20
   1bbc4:	54ffff61 	b.ne	1bbb0 <unsigned_num_print+0xa8>  // b.any
   1bbc8:	11000700 	add	w0, w24, #0x1
   1bbcc:	0b0002a0 	add	w0, w21, w0
   1bbd0:	a94153f3 	ldp	x19, x20, [sp, #16]
   1bbd4:	a9425bf5 	ldp	x21, x22, [sp, #32]
   1bbd8:	a94363f7 	ldp	x23, x24, [sp, #48]
   1bbdc:	a8c67bfd 	ldp	x29, x30, [sp], #96
   1bbe0:	d65f03c0 	ret
   1bbe4:	00000000 	.inst	0x00000000 ; undefined

000000000001bbe8 <vprintf>:
   1bbe8:	a9b87bfd 	stp	x29, x30, [sp, #-128]!
   1bbec:	910003fd 	mov	x29, sp
   1bbf0:	a90153f3 	stp	x19, x20, [sp, #16]
   1bbf4:	52800013 	mov	w19, #0x0                   	// #0
   1bbf8:	a9025bf5 	stp	x21, x22, [sp, #32]
   1bbfc:	d0000016 	adrp	x22, 1d000 <sys_acctl+0xe0>
   1bc00:	b9401835 	ldr	w21, [x1, #24]
   1bc04:	913ec2c2 	add	x2, x22, #0xfb0
   1bc08:	a90363f7 	stp	x23, x24, [sp, #48]
   1bc0c:	52800017 	mov	w23, #0x0                   	// #0
   1bc10:	f9400034 	ldr	x20, [x1]
   1bc14:	a9046bf9 	stp	x25, x26, [sp, #64]
   1bc18:	52800039 	mov	w25, #0x1                   	// #1
   1bc1c:	4b020338 	sub	w24, w25, w2
   1bc20:	f9003be2 	str	x2, [sp, #112]
   1bc24:	aa0003e2 	mov	x2, x0
   1bc28:	a90573fb 	stp	x27, x28, [sp, #80]
   1bc2c:	f9400420 	ldr	x0, [x1, #8]
   1bc30:	f90037e0 	str	x0, [sp, #104]
   1bc34:	39400040 	ldrb	w0, [x2]
   1bc38:	34000120 	cbz	w0, 1bc5c <vprintf+0x74>
   1bc3c:	7100941f 	cmp	w0, #0x25
   1bc40:	9100045b 	add	x27, x2, #0x1
   1bc44:	540001c0 	b.eq	1bc7c <vprintf+0x94>  // b.none
   1bc48:	9400012e 	bl	1c100 <putchar>
   1bc4c:	11000673 	add	w19, w19, #0x1
   1bc50:	aa1b03e2 	mov	x2, x27
   1bc54:	39400040 	ldrb	w0, [x2]
   1bc58:	35ffff20 	cbnz	w0, 1bc3c <vprintf+0x54>
   1bc5c:	2a1303e0 	mov	w0, w19
   1bc60:	a94153f3 	ldp	x19, x20, [sp, #16]
   1bc64:	a9425bf5 	ldp	x21, x22, [sp, #32]
   1bc68:	a94363f7 	ldp	x23, x24, [sp, #48]
   1bc6c:	a9446bf9 	ldp	x25, x26, [sp, #64]
   1bc70:	a94573fb 	ldp	x27, x28, [sp, #80]
   1bc74:	a8c87bfd 	ldp	x29, x30, [sp], #128
   1bc78:	d65f03c0 	ret
   1bc7c:	39400440 	ldrb	w0, [x2, #1]
   1bc80:	5280001a 	mov	w26, #0x0                   	// #0
   1bc84:	52800004 	mov	w4, #0x0                   	// #0
   1bc88:	7101b01f 	cmp	w0, #0x6c
   1bc8c:	540007e0 	b.eq	1bd88 <vprintf+0x1a0>  // b.none
   1bc90:	54000329 	b.ls	1bcf4 <vprintf+0x10c>  // b.plast
   1bc94:	7101d41f 	cmp	w0, #0x75
   1bc98:	54000b00 	b.eq	1bdf8 <vprintf+0x210>  // b.none
   1bc9c:	54000648 	b.hi	1bd64 <vprintf+0x17c>  // b.pmore
   1bca0:	7101c01f 	cmp	w0, #0x70
   1bca4:	540008c0 	b.eq	1bdbc <vprintf+0x1d4>  // b.none
   1bca8:	7101cc1f 	cmp	w0, #0x73
   1bcac:	54000761 	b.ne	1bd98 <vprintf+0x1b0>  // b.any
   1bcb0:	37f810f5 	tbnz	w21, #31, 1becc <vprintf+0x2e4>
   1bcb4:	91003e81 	add	x1, x20, #0xf
   1bcb8:	aa1403e0 	mov	x0, x20
   1bcbc:	927df034 	and	x20, x1, #0xfffffffffffffff8
   1bcc0:	f9400001 	ldr	x1, [x0]
   1bcc4:	39400020 	ldrb	w0, [x1]
   1bcc8:	34000120 	cbz	w0, 1bcec <vprintf+0x104>
   1bccc:	aa0103f6 	mov	x22, x1
   1bcd0:	4b01033c 	sub	w28, w25, w1
   1bcd4:	d503201f 	nop
   1bcd8:	9400010a 	bl	1c100 <putchar>
   1bcdc:	0b160382 	add	w2, w28, w22
   1bce0:	38401ec0 	ldrb	w0, [x22, #1]!
   1bce4:	35ffffa0 	cbnz	w0, 1bcd8 <vprintf+0xf0>
   1bce8:	0b020273 	add	w19, w19, w2
   1bcec:	91000762 	add	x2, x27, #0x1
   1bcf0:	17ffffd1 	b	1bc34 <vprintf+0x4c>
   1bcf4:	7100c01f 	cmp	w0, #0x30
   1bcf8:	540009c0 	b.eq	1be30 <vprintf+0x248>  // b.none
   1bcfc:	540000c8 	b.hi	1bd14 <vprintf+0x12c>  // b.pmore
   1bd00:	7100941f 	cmp	w0, #0x25
   1bd04:	540004a1 	b.ne	1bd98 <vprintf+0x1b0>  // b.any
   1bd08:	940000fe 	bl	1c100 <putchar>
   1bd0c:	91000762 	add	x2, x27, #0x1
   1bd10:	17ffffc9 	b	1bc34 <vprintf+0x4c>
   1bd14:	7101901f 	cmp	w0, #0x64
   1bd18:	54000060 	b.eq	1bd24 <vprintf+0x13c>  // b.none
   1bd1c:	7101a41f 	cmp	w0, #0x69
   1bd20:	540003c1 	b.ne	1bd98 <vprintf+0x1b0>  // b.any
   1bd24:	7100049f 	cmp	w4, #0x1
   1bd28:	54000f0d 	b.le	1bf08 <vprintf+0x320>
   1bd2c:	37f81175 	tbnz	w21, #31, 1bf58 <vprintf+0x370>
   1bd30:	aa1403e0 	mov	x0, x20
   1bd34:	91003e81 	add	x1, x20, #0xf
   1bd38:	927df034 	and	x20, x1, #0xfffffffffffffff8
   1bd3c:	f940001c 	ldr	x28, [x0]
   1bd40:	b7f80f3c 	tbnz	x28, #63, 1bf24 <vprintf+0x33c>
   1bd44:	2a1703e2 	mov	w2, w23
   1bd48:	2a1a03e3 	mov	w3, w26
   1bd4c:	aa1c03e0 	mov	x0, x28
   1bd50:	52800141 	mov	w1, #0xa                   	// #10
   1bd54:	97ffff6d 	bl	1bb08 <unsigned_num_print>
   1bd58:	0b000273 	add	w19, w19, w0
   1bd5c:	91000762 	add	x2, x27, #0x1
   1bd60:	17ffffb5 	b	1bc34 <vprintf+0x4c>
   1bd64:	7101e01f 	cmp	w0, #0x78
   1bd68:	54000880 	b.eq	1be78 <vprintf+0x290>  // b.none
   1bd6c:	7101e81f 	cmp	w0, #0x7a
   1bd70:	54000141 	b.ne	1bd98 <vprintf+0x1b0>  // b.any
   1bd74:	39400760 	ldrb	w0, [x27, #1]
   1bd78:	52800044 	mov	w4, #0x2                   	// #2
   1bd7c:	9100077b 	add	x27, x27, #0x1
   1bd80:	7101b01f 	cmp	w0, #0x6c
   1bd84:	54fff861 	b.ne	1bc90 <vprintf+0xa8>  // b.any
   1bd88:	39400760 	ldrb	w0, [x27, #1]
   1bd8c:	11000484 	add	w4, w4, #0x1
   1bd90:	9100077b 	add	x27, x27, #0x1
   1bd94:	17ffffbd 	b	1bc88 <vprintf+0xa0>
   1bd98:	12800013 	mov	w19, #0xffffffff            	// #-1
   1bd9c:	2a1303e0 	mov	w0, w19
   1bda0:	a94153f3 	ldp	x19, x20, [sp, #16]
   1bda4:	a9425bf5 	ldp	x21, x22, [sp, #32]
   1bda8:	a94363f7 	ldp	x23, x24, [sp, #48]
   1bdac:	a9446bf9 	ldp	x25, x26, [sp, #64]
   1bdb0:	a94573fb 	ldp	x27, x28, [sp, #80]
   1bdb4:	a8c87bfd 	ldp	x29, x30, [sp], #128
   1bdb8:	d65f03c0 	ret
   1bdbc:	37f810b5 	tbnz	w21, #31, 1bfd0 <vprintf+0x3e8>
   1bdc0:	91003e81 	add	x1, x20, #0xf
   1bdc4:	aa1403e0 	mov	x0, x20
   1bdc8:	927df034 	and	x20, x1, #0xfffffffffffffff8
   1bdcc:	f9400000 	ldr	x0, [x0]
   1bdd0:	f9003fe0 	str	x0, [sp, #120]
   1bdd4:	b5000e40 	cbnz	x0, 1bf9c <vprintf+0x3b4>
   1bdd8:	f9403fe0 	ldr	x0, [sp, #120]
   1bddc:	2a1703e2 	mov	w2, w23
   1bde0:	2a1a03e3 	mov	w3, w26
   1bde4:	52800201 	mov	w1, #0x10                  	// #16
   1bde8:	97ffff48 	bl	1bb08 <unsigned_num_print>
   1bdec:	0b000273 	add	w19, w19, w0
   1bdf0:	91000762 	add	x2, x27, #0x1
   1bdf4:	17ffff90 	b	1bc34 <vprintf+0x4c>
   1bdf8:	7100049f 	cmp	w4, #0x1
   1bdfc:	5400078d 	b.le	1beec <vprintf+0x304>
   1be00:	37f809d5 	tbnz	w21, #31, 1bf38 <vprintf+0x350>
   1be04:	91003e81 	add	x1, x20, #0xf
   1be08:	aa1403e0 	mov	x0, x20
   1be0c:	927df034 	and	x20, x1, #0xfffffffffffffff8
   1be10:	f9400000 	ldr	x0, [x0]
   1be14:	2a1703e2 	mov	w2, w23
   1be18:	2a1a03e3 	mov	w3, w26
   1be1c:	52800141 	mov	w1, #0xa                   	// #10
   1be20:	97ffff3a 	bl	1bb08 <unsigned_num_print>
   1be24:	0b000273 	add	w19, w19, w0
   1be28:	91000762 	add	x2, x27, #0x1
   1be2c:	17ffff82 	b	1bc34 <vprintf+0x4c>
   1be30:	39400762 	ldrb	w2, [x27, #1]
   1be34:	9100077b 	add	x27, x27, #0x1
   1be38:	5100c041 	sub	w1, w2, #0x30
   1be3c:	12001c23 	and	w3, w1, #0xff
   1be40:	7100247f 	cmp	w3, #0x9
   1be44:	54001368 	b.hi	1c0b0 <vprintf+0x4c8>  // b.pmore
   1be48:	5280001a 	mov	w26, #0x0                   	// #0
   1be4c:	d503201f 	nop
   1be50:	0b1a0b43 	add	w3, w26, w26, lsl #2
   1be54:	38401f62 	ldrb	w2, [x27, #1]!
   1be58:	0b03043a 	add	w26, w1, w3, lsl #1
   1be5c:	5100c041 	sub	w1, w2, #0x30
   1be60:	12001c20 	and	w0, w1, #0xff
   1be64:	7100241f 	cmp	w0, #0x9
   1be68:	54ffff49 	b.ls	1be50 <vprintf+0x268>  // b.plast
   1be6c:	2a0203e0 	mov	w0, w2
   1be70:	52800617 	mov	w23, #0x30                  	// #48
   1be74:	17ffff85 	b	1bc88 <vprintf+0xa0>
   1be78:	7100049f 	cmp	w4, #0x1
   1be7c:	540001ad 	b.le	1beb0 <vprintf+0x2c8>
   1be80:	37f807f5 	tbnz	w21, #31, 1bf7c <vprintf+0x394>
   1be84:	91003e81 	add	x1, x20, #0xf
   1be88:	aa1403e0 	mov	x0, x20
   1be8c:	927df034 	and	x20, x1, #0xfffffffffffffff8
   1be90:	f9400000 	ldr	x0, [x0]
   1be94:	2a1703e2 	mov	w2, w23
   1be98:	2a1a03e3 	mov	w3, w26
   1be9c:	52800201 	mov	w1, #0x10                  	// #16
   1bea0:	97ffff1a 	bl	1bb08 <unsigned_num_print>
   1bea4:	0b000273 	add	w19, w19, w0
   1bea8:	91000762 	add	x2, x27, #0x1
   1beac:	17ffff62 	b	1bc34 <vprintf+0x4c>
   1beb0:	54fffe80 	b.eq	1be80 <vprintf+0x298>  // b.none
   1beb4:	37f80ed5 	tbnz	w21, #31, 1c08c <vprintf+0x4a4>
   1beb8:	aa1403e0 	mov	x0, x20
   1bebc:	91002e81 	add	x1, x20, #0xb
   1bec0:	927df034 	and	x20, x1, #0xfffffffffffffff8
   1bec4:	b9400000 	ldr	w0, [x0]
   1bec8:	17fffff3 	b	1be94 <vprintf+0x2ac>
   1becc:	110022a1 	add	w1, w21, #0x8
   1bed0:	7100003f 	cmp	w1, #0x0
   1bed4:	540008ed 	b.le	1bff0 <vprintf+0x408>
   1bed8:	91003e82 	add	x2, x20, #0xf
   1bedc:	aa1403e0 	mov	x0, x20
   1bee0:	2a0103f5 	mov	w21, w1
   1bee4:	927df054 	and	x20, x2, #0xfffffffffffffff8
   1bee8:	17ffff76 	b	1bcc0 <vprintf+0xd8>
   1beec:	54fff8a0 	b.eq	1be00 <vprintf+0x218>  // b.none
   1bef0:	37f80bd5 	tbnz	w21, #31, 1c068 <vprintf+0x480>
   1bef4:	aa1403e0 	mov	x0, x20
   1bef8:	91002e81 	add	x1, x20, #0xb
   1befc:	927df034 	and	x20, x1, #0xfffffffffffffff8
   1bf00:	b9400000 	ldr	w0, [x0]
   1bf04:	17ffffc4 	b	1be14 <vprintf+0x22c>
   1bf08:	54fff120 	b.eq	1bd2c <vprintf+0x144>  // b.none
   1bf0c:	37f809d5 	tbnz	w21, #31, 1c044 <vprintf+0x45c>
   1bf10:	aa1403e0 	mov	x0, x20
   1bf14:	91002e81 	add	x1, x20, #0xb
   1bf18:	927df034 	and	x20, x1, #0xfffffffffffffff8
   1bf1c:	b980001c 	ldrsw	x28, [x0]
   1bf20:	b6fff13c 	tbz	x28, #63, 1bd44 <vprintf+0x15c>
   1bf24:	cb1c03fc 	neg	x28, x28
   1bf28:	5100075a 	sub	w26, w26, #0x1
   1bf2c:	528005a0 	mov	w0, #0x2d                  	// #45
   1bf30:	94000074 	bl	1c100 <putchar>
   1bf34:	17ffff84 	b	1bd44 <vprintf+0x15c>
   1bf38:	110022a1 	add	w1, w21, #0x8
   1bf3c:	7100003f 	cmp	w1, #0x0
   1bf40:	5400068d 	b.le	1c010 <vprintf+0x428>
   1bf44:	91003e82 	add	x2, x20, #0xf
   1bf48:	aa1403e0 	mov	x0, x20
   1bf4c:	2a0103f5 	mov	w21, w1
   1bf50:	927df054 	and	x20, x2, #0xfffffffffffffff8
   1bf54:	17ffffaf 	b	1be10 <vprintf+0x228>
   1bf58:	110022a1 	add	w1, w21, #0x8
   1bf5c:	7100003f 	cmp	w1, #0x0
   1bf60:	5400068d 	b.le	1c030 <vprintf+0x448>
   1bf64:	aa1403e0 	mov	x0, x20
   1bf68:	91003e82 	add	x2, x20, #0xf
   1bf6c:	2a0103f5 	mov	w21, w1
   1bf70:	927df054 	and	x20, x2, #0xfffffffffffffff8
   1bf74:	f940001c 	ldr	x28, [x0]
   1bf78:	17ffff72 	b	1bd40 <vprintf+0x158>
   1bf7c:	110022a1 	add	w1, w21, #0x8
   1bf80:	7100003f 	cmp	w1, #0x0
   1bf84:	540004ed 	b.le	1c020 <vprintf+0x438>
   1bf88:	91003e82 	add	x2, x20, #0xf
   1bf8c:	aa1403e0 	mov	x0, x20
   1bf90:	2a0103f5 	mov	w21, w1
   1bf94:	927df054 	and	x20, x2, #0xfffffffffffffff8
   1bf98:	17ffffbe 	b	1be90 <vprintf+0x2a8>
   1bf9c:	52800f1c 	mov	w28, #0x78                  	// #120
   1bfa0:	52800600 	mov	w0, #0x30                  	// #48
   1bfa4:	f9403bf6 	ldr	x22, [sp, #112]
   1bfa8:	14000003 	b	1bfb4 <vprintf+0x3cc>
   1bfac:	2a1c03e0 	mov	w0, w28
   1bfb0:	394006dc 	ldrb	w28, [x22, #1]
   1bfb4:	94000053 	bl	1c100 <putchar>
   1bfb8:	0b160300 	add	w0, w24, w22
   1bfbc:	910006d6 	add	x22, x22, #0x1
   1bfc0:	35ffff7c 	cbnz	w28, 1bfac <vprintf+0x3c4>
   1bfc4:	0b000273 	add	w19, w19, w0
   1bfc8:	51000b5a 	sub	w26, w26, #0x2
   1bfcc:	17ffff83 	b	1bdd8 <vprintf+0x1f0>
   1bfd0:	110022a1 	add	w1, w21, #0x8
   1bfd4:	7100003f 	cmp	w1, #0x0
   1bfd8:	5400014d 	b.le	1c000 <vprintf+0x418>
   1bfdc:	91003e82 	add	x2, x20, #0xf
   1bfe0:	aa1403e0 	mov	x0, x20
   1bfe4:	2a0103f5 	mov	w21, w1
   1bfe8:	927df054 	and	x20, x2, #0xfffffffffffffff8
   1bfec:	17ffff78 	b	1bdcc <vprintf+0x1e4>
   1bff0:	f94037e0 	ldr	x0, [sp, #104]
   1bff4:	8b35c000 	add	x0, x0, w21, sxtw
   1bff8:	2a0103f5 	mov	w21, w1
   1bffc:	17ffff31 	b	1bcc0 <vprintf+0xd8>
   1c000:	f94037e0 	ldr	x0, [sp, #104]
   1c004:	8b35c000 	add	x0, x0, w21, sxtw
   1c008:	2a0103f5 	mov	w21, w1
   1c00c:	17ffff70 	b	1bdcc <vprintf+0x1e4>
   1c010:	f94037e0 	ldr	x0, [sp, #104]
   1c014:	8b35c000 	add	x0, x0, w21, sxtw
   1c018:	2a0103f5 	mov	w21, w1
   1c01c:	17ffff7d 	b	1be10 <vprintf+0x228>
   1c020:	f94037e0 	ldr	x0, [sp, #104]
   1c024:	8b35c000 	add	x0, x0, w21, sxtw
   1c028:	2a0103f5 	mov	w21, w1
   1c02c:	17ffff99 	b	1be90 <vprintf+0x2a8>
   1c030:	f94037e0 	ldr	x0, [sp, #104]
   1c034:	8b35c000 	add	x0, x0, w21, sxtw
   1c038:	2a0103f5 	mov	w21, w1
   1c03c:	f940001c 	ldr	x28, [x0]
   1c040:	17ffff40 	b	1bd40 <vprintf+0x158>
   1c044:	110022a1 	add	w1, w21, #0x8
   1c048:	7100003f 	cmp	w1, #0x0
   1c04c:	540003ad 	b.le	1c0c0 <vprintf+0x4d8>
   1c050:	aa1403e0 	mov	x0, x20
   1c054:	91002e82 	add	x2, x20, #0xb
   1c058:	2a0103f5 	mov	w21, w1
   1c05c:	927df054 	and	x20, x2, #0xfffffffffffffff8
   1c060:	b980001c 	ldrsw	x28, [x0]
   1c064:	17ffffaf 	b	1bf20 <vprintf+0x338>
   1c068:	110022a1 	add	w1, w21, #0x8
   1c06c:	7100003f 	cmp	w1, #0x0
   1c070:	5400032d 	b.le	1c0d4 <vprintf+0x4ec>
   1c074:	aa1403e0 	mov	x0, x20
   1c078:	91002e82 	add	x2, x20, #0xb
   1c07c:	2a0103f5 	mov	w21, w1
   1c080:	927df054 	and	x20, x2, #0xfffffffffffffff8
   1c084:	b9400000 	ldr	w0, [x0]
   1c088:	17ffff63 	b	1be14 <vprintf+0x22c>
   1c08c:	110022a1 	add	w1, w21, #0x8
   1c090:	7100003f 	cmp	w1, #0x0
   1c094:	540002ad 	b.le	1c0e8 <vprintf+0x500>
   1c098:	aa1403e0 	mov	x0, x20
   1c09c:	91002e82 	add	x2, x20, #0xb
   1c0a0:	2a0103f5 	mov	w21, w1
   1c0a4:	927df054 	and	x20, x2, #0xfffffffffffffff8
   1c0a8:	b9400000 	ldr	w0, [x0]
   1c0ac:	17ffff7a 	b	1be94 <vprintf+0x2ac>
   1c0b0:	2a0003f7 	mov	w23, w0
   1c0b4:	5280001a 	mov	w26, #0x0                   	// #0
   1c0b8:	2a0203e0 	mov	w0, w2
   1c0bc:	17fffef3 	b	1bc88 <vprintf+0xa0>
   1c0c0:	f94037e0 	ldr	x0, [sp, #104]
   1c0c4:	8b35c000 	add	x0, x0, w21, sxtw
   1c0c8:	2a0103f5 	mov	w21, w1
   1c0cc:	b980001c 	ldrsw	x28, [x0]
   1c0d0:	17ffff94 	b	1bf20 <vprintf+0x338>
   1c0d4:	f94037e0 	ldr	x0, [sp, #104]
   1c0d8:	8b35c000 	add	x0, x0, w21, sxtw
   1c0dc:	2a0103f5 	mov	w21, w1
   1c0e0:	b9400000 	ldr	w0, [x0]
   1c0e4:	17ffff4c 	b	1be14 <vprintf+0x22c>
   1c0e8:	f94037e0 	ldr	x0, [sp, #104]
   1c0ec:	8b35c000 	add	x0, x0, w21, sxtw
   1c0f0:	2a0103f5 	mov	w21, w1
   1c0f4:	b9400000 	ldr	w0, [x0]
   1c0f8:	17ffff67 	b	1be94 <vprintf+0x2ac>
   1c0fc:	00000000 	.inst	0x00000000 ; undefined

000000000001c100 <putchar>:
   1c100:	a9be7bfd 	stp	x29, x30, [sp, #-32]!
   1c104:	910003fd 	mov	x29, sp
   1c108:	f9000bf3 	str	x19, [sp, #16]
   1c10c:	2a0003f3 	mov	w19, w0
   1c110:	12001c00 	and	w0, w0, #0xff
   1c114:	97fffb91 	bl	1af58 <console_putc>
   1c118:	7100001f 	cmp	w0, #0x0
   1c11c:	5a9fa260 	csinv	w0, w19, wzr, ge  // ge = tcont
   1c120:	f9400bf3 	ldr	x19, [sp, #16]
   1c124:	a8c27bfd 	ldp	x29, x30, [sp], #32
   1c128:	d65f03c0 	ret
   1c12c:	00000000 	.inst	0x00000000 ; undefined

000000000001c130 <build_message>:
   1c130:	6c697542 203a2074 353a3430 38343a33     Built : 04:53:48
   1c140:	6544202c 32312063 32303220 00000033     , Dec 12 2023...

000000000001c150 <version_string>:
   1c150:	372e3276 6c657228 65736165 32763a29     v2.7(release):v2
   1c160:	722f352e 6c32677a 302e312d 30322d30     .5/rzg2l-1.00-20
   1c170:	672d3830 61386361 66326332 69642d32     08-gac8a2c2f2-di
   1c180:	00797472 00000000 324c420a 6146203a     rty......BL2: Fa
   1c190:	72756c69 6e692065 65727020 616d6920     ilure in pre ima
   1c1a0:	6c206567 2064616f 646e6168 676e696c     ge load handling
   1c1b0:	69252820 00000a29 324c420a 6146203a      (%i)....BL2: Fa
   1c1c0:	64656c69 206f7420 64616f6c 616d6920     iled to load ima
   1c1d0:	69206567 75252064 69252820 00000a29     ge id %u (%i)...
   1c1e0:	324c420a 6146203a 72756c69 6e692065     .BL2: Failure in
   1c1f0:	736f7020 6d692074 20656761 64616f6c      post image load
   1c200:	6e616820 6e696c64 25282067 000a2969      handling (%i)..
   1c210:	324c4214 7325203a 0000000a 00000000     .BL2: %s........
   1c220:	324c4214 6f42203a 6e69746f 4c422067     .BL2: Booting BL
   1c230:	000a3133 00000000 435a540a 3030342d     31.......TZC-400
   1c240:	46203a20 65746c69 75252072 74614720      : Filter %u Gat
   1c250:	65656b65 20726570 65726c61 20796461     ekeeper already 
   1c260:	62616e65 2e64656c 0000000a 00000000     enabled.........

000000000001c270 <fip_dev_connector>:
   1c270:	00012c40 00000000                       @,......

000000000001c278 <fip_dev_funcs>:
   1c278:	00012c38 00000000 00012f00 00000000     8,......./......
	...
   1c290:	00012cc0 00000000 00012e48 00000000     .,......H.......
	...
   1c2a8:	00012d38 00000000 00012d90 00000000     8-.......-......
   1c2b8:	00012cd8 00000000                       .,......

000000000001c2c0 <uuid_null.2068>:
	...

000000000001c2d0 <memmap_dev_connector>:
   1c2d0:	00013058 00000000                       X0......

000000000001c2d8 <memmap_dev_funcs>:
   1c2d8:	00013050 00000000 00013078 00000000     P0......x0......
   1c2e8:	000130b0 00000000 000130d0 00000000     .0.......0......
   1c2f8:	00013158 00000000 00013110 00000000     X1.......1......
   1c308:	000130e8 00000000 00000000 00000000     .0..............
   1c318:	00013070 00000000                       p0......

000000000001c320 <rzg2l_mmap>:
   1c320:	00010000 00000000 00010000 00000000     ................
   1c330:	00020000 00000000 0000000a 00000000     ................
   1c340:	40000000 00000000 0002f000 00000000     ...@............
   1c350:	0002f000 00000000 00001000 00000000     ................
   1c360:	00000008 00000000 40000000 00000000     ...........@....
   1c370:	10000000 00000000 10000000 00000000     ................
   1c380:	05000000 00000000 00000008 00000000     ................
   1c390:	40000000 00000000 20000000 00000000     ...@....... ....
   1c3a0:	20000000 00000000 10000000 00000000     ... ............
   1c3b0:	00000002 00000000 40000000 00000000     ...........@....
   1c3c0:	40000000 00000000 40000000 00000000     ...@.......@....
   1c3d0:	40000000 00000000 0000000a 00000000     ...@............
   1c3e0:	40000000 00000000 00000000 00000000     ...@............
	...

000000000001c410 <early_setup_tbl>:
   1c410:	11010528 00000000 110106a8 00000000     (...............
   1c420:	00010001 00000000 11010828 00000000     ........(.......
   1c430:	110109a8 00000000 00010001 00000001     ................

000000000001c440 <CSWTCH.42>:
   1c440:	00000000 00000004 00000040 00000000     ........@.......

000000000001c450 <CSWTCH.43>:
   1c450:	00000000 000002c4 000002c4 00000000     ................

000000000001c460 <CSWTCH.44>:
   1c460:	00003200 00005200 08009200 00000000     .2...R..........

000000000001c470 <mc_mr1_tbl>:
   1c470:	00000706 00000100                       ........

000000000001c478 <mc_mr2_tbl>:
   1c478:	00000e00 00000000                       ........

000000000001c480 <mc_mr5_tbl>:
   1c480:	000001c0 000001c0                       ........

000000000001c488 <mc_mr6_tbl>:
   1c488:	0000007f 0000000f                       ........

000000000001c490 <mc_odt_pins_tbl>:
   1c490:	00000001 00000000 00000000 00000000     ................

000000000001c4a0 <mc_phy_settings_tbl>:
   1c4a0:	00000678 57630bb8 0000067c 00002828     x.....cW|...((..
   1c4b0:	00000680 00003c22 00000684 00102611     ...."<.......&..

000000000001c4c0 <swizzle_mc_tbl>:
   1c4c0:	0000064c 00000b02 00000650 00000106     L.......P.......
   1c4d0:	00000654 11131c0d 00000658 12001f15     T.......X.......
   1c4e0:	0000065c 1d19140e 00000660 17091b1a     \.......`.......
   1c4f0:	00000664 0a10160c 00000668 0018051e     d.......h.......
   1c500:	0000066c 00000000                       l.......

000000000001c508 <swizzle_phy_tbl>:
   1c508:	0000012c 00000000 000000a8 14001816     ,...............
   1c518:	0000012c 00000001 000000a8 010d0608     ,...............
   1c528:	0000012c 00000002 000000a8 02190403     ,...............
   1c538:	0000012c 00000003 000000a8 1705150b     ,...............
   1c548:	0000012c 00000004 000000a8 13121110     ,...............
   1c558:	0000012c 00000005 000000a8 07090f0e     ,...............
   1c568:	0000012c 00000006 000000a8 1a1d0a1b     ,...............
   1c578:	0000012c 00000007 000000a8 001e1c0c     ,...............
   1c588:	324c420a 6d65203a 4520636d 53205252     .BL2: emmc ERR S
   1c598:	4e495f44 20324f46 7830203d 000a7825     D_INFO2 = 0x%x..
   1c5a8:	324c420a 6d65203a 5320636d 43544957     .BL2: emmc SWITC
   1c5b8:	52455f48 0a524f52 00000000 00000000     H_ERROR.........
   1c5c8:	324c420a 6d65203a 6520636d 5f636578     .BL2: emmc exec_
   1c5d8:	3a646d63 434d4d45 5252455f 524f465f     cmd:EMMC_ERR_FOR
   1c5e8:	545f4543 494d5245 4554414e 0000000a     CE_TERMINATE....
   1c5f8:	00000000 0000000a 0000000c 0000000d     ................
   1c608:	0000000f 00000014 0000001a 0000001e     ................
   1c618:	00000023 00000028 0000002d 00000034     #...(...-...4...
   1c628:	00000037 0000003c 00000046 00000050     7...<...F...P...
   1c638:	324c420a 6d65203a 6220636d 775f7375     .BL2: emmc bus_w
   1c648:	68746469 72726520 6520726f 000a646e     idth error end..

000000000001c658 <cmd_reg_hw>:
   1c658:	00000000 00000701 00000002 00000003     ................
   1c668:	00000004 00000505 00000406 00000007     ................
   1c678:	00001c08 00000009 0000000a 00000000     ................
   1c688:	0000000c 0000000d 00001c0e 0000000f     ................
   1c698:	00000010 00000011 00007c12 00000c13     .........|......
   1c6a8:	00000000 00001c15 00000000 00000017     ................
   1c6b8:	00000018 00006c19 00000c1a 0000001b     .....l..........
   1c6c8:	0000001c 0000001d 0000001e 00001c1f     ................
	...
   1c6e4:	00000423 00000424 00000000 00000026     #...$.......&...
   1c6f4:	00000427 00000428 00000000 0000002a     '...(.......*...
	...
   1c71c:	00000c31 00000000 00000000 00000000     1...............
   1c72c:	00007c35 00006c36 00000037 00000038     5|..6l..7...8...
	...
   1c750:	324c420a 6d65203a 6520636d 663a7272     .BL2: emmc err:f
   1c760:	5f636e75 303d6f6e 20782578 65646f63     unc_no=0x%x code
   1c770:	2578303d 00000a78 324c420a 6d65203a     =0x%x....BL2: em
   1c780:	6520636d 663a7272 5f636e75 303d6f6e     mc err:func_no=0
   1c790:	0a782578 00000000 324c4214 4d65203a     x%x......BL2: eM
   1c7a0:	6220434d 20746f6f 6d6f7266 72617020     MC boot from par
   1c7b0:	69746974 25206e6f 00000a64 00000000     tition %d.......
   1c7c0:	324c4214 6f4c203a 64206461 303d7473     .BL2: Load dst=0
   1c7d0:	786c2578 63727320 3a70283d 30296425     x%lx src=(p:%d)0
   1c7e0:	6c6c2578 64252878 656c2029 78303d6e     x%llx(%d) len=0x
   1c7f0:	28786c25 0a296425 00000000 00000000     %lx(%d).........

000000000001c800 <emmcdrv_dev_connector>:
   1c800:	00017418 00000000                       .t......

000000000001c808 <emmcdrv_dev_funcs>:
   1c808:	000173f0 00000000 00017620 00000000     .s...... v......
   1c818:	000173f8 00000000 00000000 00000000     .s..............
   1c828:	00017470 00000000 00000000 00000000     pt..............
   1c838:	00017438 00000000 00000000 00000000     8t..............
   1c848:	00017430 00000000                       0t......

000000000001c850 <emmcdrv_dev_info>:
   1c850:	0001c808 00000000 00000000 00000000     ................
   1c860:	324c4214 4453203a 6f6f6220 72662074     .BL2: SD boot fr
   1c870:	70206d6f 69747261 6e6f6974 0a642520     om partition %d.
	...

000000000001c888 <sddrv_dev_connector>:
   1c888:	00017700 00000000                       .w......

000000000001c890 <sddrv_dev_funcs>:
   1c890:	000176d8 00000000 00017758 00000000     .v......Xw......
   1c8a0:	000176e0 00000000 00000000 00000000     .v..............
   1c8b0:	000177c0 00000000 00000000 00000000     .w..............
   1c8c0:	00017720 00000000 00000000 00000000      w..............
   1c8d0:	00017718 00000000                       .w......

000000000001c8d8 <sddrv_dev_info>:
   1c8d8:	0001c890 00000000 00000000 00000000     ................

000000000001c8e8 <pfc_mux_reg_tbl>:
   1c8e8:	00000001 00000000 11030222 00000000     ........".......
   1c8f8:	00000003 00000000 00000001 00000000     ................
   1c908:	11030488 00000000 00000011 00000000     ................
	...
   1c920:	11031120 00000000 00000101 00000000      ...............
	...
   1c938:	11031d10 00000000 00000000 00000000     ................
	...
   1c950:	11031510 00000000 00000101 00000000     ................
	...
   1c978:	00000001 00000000 11030223 00000000     ........#.......
   1c988:	00000003 00000000 00000001 00000000     ................
   1c998:	1103048c 00000000 00000011 00000000     ................
	...
   1c9b0:	11031128 00000000 00000101 00000000     (...............
	...
   1c9c8:	11031d18 00000000 00000000 00000000     ................
	...
   1c9e0:	11031518 00000000 00000101 00000000     ................
	...
   1ca08:	00000001 00000000 11030236 00000000     ........6.......
   1ca18:	00000003 00000000 00000001 00000000     ................
   1ca28:	110304d8 00000000 00000011 00000000     ................
	...
   1ca40:	110311b0 00000000 00000101 00000000     ................
	...
   1ca58:	11031db0 00000000 00000000 00000000     ................
	...
   1ca70:	110315b0 00000000 00000101 00000000     ................
	...
   1ca98:	00000001 00000000 11030237 00000000     ........7.......
   1caa8:	00000007 00000000 00000001 00000000     ................
   1cab8:	110304dc 00000000 00000111 00000000     ................
	...
   1cad0:	110311b8 00000000 00010101 00000000     ................
	...
   1cae8:	11031db8 00000000 00000000 00000000     ................
	...
   1cb00:	110315b8 00000000 00010101 00000000     ................
	...

000000000001cb28 <pfc_sd_reg_tbl>:
   1cb28:	00000001 00000000 11030222 00000000     ........".......
   1cb38:	00000003 00000000 00000001 00000000     ................
   1cb48:	11030488 00000000 00000003 00000000     ................
   1cb58:	00000001 00000000 11031030 00000000     ........0.......
   1cb68:	00020202 00000000 00000001 00000000     ................
   1cb78:	11031c30 00000000 00000000 00000000     0...............
   1cb88:	00000001 00000000 11031430 00000000     ........0.......
   1cb98:	00010101 00000000 00000001 00000000     ................
   1cba8:	11031830 00000000 00000100 00000000     0...............
	...
   1cbe8:	00000001 00000000 11031038 00000000     ........8.......
   1cbf8:	02020202 02020202 00000001 00000000     ................
   1cc08:	11031c38 00000000 00000000 00000000     8...............
   1cc18:	00000001 00000000 11031438 00000000     ........8.......
   1cc28:	01010101 01010101 00000001 00000000     ................
   1cc38:	11031838 00000000 01010101 01010101     8...............
   1cc48:	00000001 00000000 11030223 00000000     ........#.......
   1cc58:	00000003 00000000 00000001 00000000     ................
   1cc68:	1103048c 00000000 00000003 00000000     ................
   1cc78:	00000001 00000000 11031040 00000000     ........@.......
   1cc88:	00000202 00000000 00000001 00000000     ................
   1cc98:	11031c40 00000000 00000000 00000000     @...............
   1cca8:	00000001 00000000 11031440 00000000     ........@.......
   1ccb8:	00000101 00000000 00000001 00000000     ................
   1ccc8:	11031840 00000000 00000100 00000000     @...............
	...
   1cd08:	00000001 00000000 11031048 00000000     ........H.......
   1cd18:	02020202 00000000 00000001 00000000     ................
   1cd28:	11031c48 00000000 00000000 00000000     H...............
   1cd38:	00000001 00000000 11031448 00000000     ........H.......
   1cd48:	01010101 00000000 00000001 00000000     ................
   1cd58:	11031848 00000000 01010101 00000000     H...............

000000000001cd68 <CSWTCH.6>:
   1cd68:	00000080 00000040 00000008 00000004     ....@...........
   1cd78:	00000002 00000002 00000002 00000000     ................

000000000001cd88 <IOErrTbl>:
   1cd88:	ffffff9d ffffff9d ffffff9d ffffff9d     ................
   1cd98:	ffffff9d ffffff9d ffffff9d ffffff9d     ................
   1cda8:	fffffff3 ffffff9d ffffff9d ffffff9d     ................
   1cdb8:	fffffff0 ffffff9d ffffffc4 ffffff9d     ................

000000000001cdc8 <Info2ErrTbl>:
   1cdc8:	fffffffc ffffffed ffffffec fffffffb     ................
   1cdd8:	fffffffa fffffff9 ffffffaa 00000000     ................

000000000001cde8 <RespErrTbl>:
   1cde8:	ffffffb0 ffffffaf ffffffae fffffff6     ................
   1cdf8:	fffffff6 fffffffe fffffff5 fffffff4     ................
   1ce08:	fffffff3 ffffffad fffffff2 fffffff1     ................
   1ce18:	fffffff0 ffffffac ffffffab ffffffea     ................

000000000001ce28 <TimeValue>:
   1ce28:	0d0c0a00 1e19140f 322d2823 50463c37     ........#(-27<FP

000000000001ce38 <TranSpeed>:
   1ce38:	000a0001 03e80064 03e803e8 03e803e8     ....d...........
   1ce48:	324c4214 6146203a 64656c69 206f7420     .BL2: Failed to 
   1ce58:	5f647365 74696e69 00000a2e 00000000     esd_init........
   1ce68:	324c4214 6146203a 64656c69 206f7420     .BL2: Failed to 
   1ce78:	5f647365 5f746573 66667562 0a2e7265     esd_set_buffer..
	...
   1ce90:	324c4214 6146203a 64656c69 206f7420     .BL2: Failed to 
   1cea0:	5f647365 63656863 656d5f6b 2e616964     esd_check_media.
   1ceb0:	0000000a 00000000 324c4214 6146203a     .........BL2: Fa
   1cec0:	64656c69 206f7420 5f647365 6e756f6d     iled to esd_moun
   1ced0:	000a2e74 00000000 324c4214 6146203a     t........BL2: Fa
   1cee0:	64656c69 206f7420 5f647365 5f746567     iled to esd_get_
   1cef0:	65707974 00000a2e 324c4214 6146203a     type.....BL2: Fa
   1cf00:	64656c69 206f7420 5f647365 5f746567     iled to esd_get_
   1cf10:	74726170 6f697469 64695f6e 00000a2e     partition_id....

000000000001cf20 <sys_acctl>:
   1cf20:	11020000 00bb00bb 00aaaa88 11020004     ................
   1cf30:	bbbbbbbb aaaaaaaa 11020008 00bbbbbb     ................
   1cf40:	00aaaaaa 1102000c 00bbbbbb 00aaaaaa     ................
   1cf50:	11020010 0b0b00bb 0a0a00aa 11020014     ................
	...
   1cf68:	11020100 0000000f 00000008 11020104     ................
   1cf78:	3fff3cff 0800c0aa 11020108 00ffcfff     .<.?............
   1cf88:	00000002 1102010c 3fff3fff 00000000     .........?.?....
   1cf98:	11020110 ffff0fff 00000000 11020114     ................
   1cfa8:	00000033 00000000 11020118 0000000f     3...............
   1cfb8:	00000000 1102011c 0000000c 00000008     ................
   1cfc8:	11020120 0000000f 00000000 11020124      ...........$...
	...
   1cfe0:	11020128 00000003 00000000 1102012c     (...........,...
	...
   1cff8:	11020130 00000003 00000000 11020134     0...........4...
   1d008:	00000003 00000000 11020138 00000003     ........8.......
   1d018:	00000000 1102013c 00000000 00000000     ....<...........

000000000001d028 <bl31_file_spec>:
   1d028:	6d08d447 4698fe4c 5029959b 005abdcb     G..mL..F..)P..Z.

000000000001d038 <bl32_file_spec>:
   1d038:	89e1d005 4713dc53 0a502b8d 383e7a4b     ....S..G.+P.Kz>8

000000000001d048 <bl33_file_spec>:
   1d048:	a7eed0d6 4bd5eafc 34998297 e4b634f2     .......K...4.4..

000000000001d058 <emmc_block_spec>:
   1d058:	00020000 00000000 001dffff 00000000     ................
	...
   1d070:	324c4214 6146203a 64656c69 206f7420     .BL2: Failed to 
   1d080:	20445365 76697264 69207265 6974696e     eSD driver initi
   1d090:	7a696c61 000a2e65 324c4214 6146203a     alize....BL2: Fa
   1d0a0:	64656c69 206f7420 434d4d65 69726420     iled to eMMC dri
   1d0b0:	20726576 74696e69 696c6169 0a2e657a     ver initialize..
	...
   1d0c8:	324c4214 6146203a 64656c69 206f7420     .BL2: Failed to 
   1d0d8:	434d4d65 756f6d20 6f20746e 61726570     eMMC mount opera
   1d0e8:	6e6f6974 00000a2e                       tion....

000000000001d0f0 <sd_block_spec>:
   1d0f0:	00010000 00000000 001dffff 00000000     ................
	...

000000000001d108 <spirom_block_spec>:
   1d108:	2001d200 00000000 0ffe2e00 00000000     ... ............

000000000001d118 <mc_init_tbl>:
   1d118:	00000000 00000a00 00000004 00000000     ................
   1d128:	00000008 00000000 0000000c 00000000     ................
   1d138:	00000010 00000000 00000014 00000000     ................
   1d148:	00000018 00000000 0000001c 00000000     ................
   1d158:	00000020 00000000 00000024 00000000      .......$.......
   1d168:	00000028 01000008 0000002c 00100100     (.......,.......
   1d178:	00000030 00027100 00000034 00061a80     0....q..4.......
   1d188:	00000038 09180255 0000003c 18180000     8...U...<.......
   1d198:	00000040 05050404 00000044 00002806     @.......D....(..
   1d1a8:	00000048 0602001c 0000004c 06001c0c     H.......L.......
   1d1b8:	00000050 00180806 00000054 0400db60     P.......T...`...
   1d1c8:	00000058 00030305 0000005c 01000c0c     X.......\.......
   1d1d8:	00000060 0c031801 00000064 0100000c     `.......d.......
   1d1e8:	00000068 00000101 0000006c 00000000     h.......l.......
   1d1f8:	00000070 00000000 00000074 00040301     p.......t.......
   1d208:	00000078 000001b8 0000007c 00001860     x.......|...`...
   1d218:	00000080 00000005 00000084 00140005     ................
   1d228:	00000088 01c00255 0000008c 000001c0     ....U...........
   1d238:	00000090 01000201 00000094 80104002     .............@..
   1d248:	00000098 00000000 0000009c 00040000     ................
   1d258:	000000a0 00000000 000000a4 00061800     ................
   1d268:	000000a8 000007d0 000000ac 00061800     ................
   1d278:	000000b0 00061800 000000b4 00061800     ................
   1d288:	000000b8 00000000 000000bc 01000000     ................
   1d298:	000000c0 00000000 000000c4 00000000     ................
   1d2a8:	000000c8 00000000 000000cc 00000000     ................
   1d2b8:	000000d0 00000000 000000d4 00000000     ................
   1d2c8:	000000d8 00000000 000000dc 00212100     .............!!.
   1d2d8:	000000e0 09070000 000000e4 2f0e010a     .............../
   1d2e8:	000000e8 00000300 000000ec 00010004     ................
   1d2f8:	000000f0 00000800 000000f4 00000000     ................
   1d308:	000000f8 00000000 000000fc 00000000     ................
   1d318:	00000100 00000100 00000104 00000200     ................
   1d328:	00000108 00001000 0000010c 00000000     ................
   1d338:	00000110 00000000 00000114 00000214     ................
   1d348:	00000118 00000101 0000011c 00000000     ................
   1d358:	00000120 00000214 00000124 00000101      .......$.......
   1d368:	00000128 00000000 0000012c 00000000     (.......,.......
   1d378:	00000130 00000000 00000134 00000000     0.......4.......
   1d388:	00000138 00000000 0000013c 00000000     8.......<.......
   1d398:	00000140 00000000 00000144 00000080     @.......D.......
   1d3a8:	00000148 00000080 0000014c 0000040f     H.......L.......
   1d3b8:	00000150 0000040f 00000154 01010000     P.......T.......
   1d3c8:	00000158 00000000 0000015c 00000000     X.......\.......
   1d3d8:	00000160 00000000 00000164 00000000     `.......d.......
   1d3e8:	00000168 00000000 0000016c 00000000     h.......l.......
   1d3f8:	00000170 00000000 00000174 00000000     p.......t.......
   1d408:	00000178 00000000 0000017c 01000200     x.......|.......
   1d418:	00000180 00010801 00000184 00000000     ................
   1d428:	00000188 00000000 0000018c 00000000     ................
   1d438:	00000190 00000000 00000194 00000000     ................
   1d448:	00000198 00000000 0000019c 00000000     ................
   1d458:	000001a0 00000000 000001a4 00000000     ................
   1d468:	000001a8 00000000 000001ac 00000000     ................
   1d478:	000001b0 00000000 000001b4 00000000     ................
   1d488:	000001b8 00000008 000001bc 006403e8     ..............d.
   1d498:	000001c0 00000000 000001c4 00000000     ................
   1d4a8:	000001c8 00000000 000001cc 15110000     ................
   1d4b8:	000001d0 00040c18 000001d4 00bebd03     ................
   1d4c8:	000001d8 0000c350 000001dc 00000000     ....P...........
   1d4d8:	000001e0 02000400 000001e4 00000080     ................
   1d4e8:	000001e8 00010100 000001ec 00010100     ................
   1d4f8:	000001f0 1fff0000 000001f4 0003ff00     ................
   1d508:	000001f8 ffffffff 000001fc 00ffff00     ................
   1d518:	00000200 ffff0a00 00000204 01010001     ................
   1d528:	00000208 01010101 0000020c 01030101     ................
   1d538:	00000210 0c010000 00000214 01000000     ................
   1d548:	00000218 00000000 0000021c 00010000     ................
   1d558:	00000220 00000000 00000224 00000001      .......$.......
   1d568:	00000228 00000000 0000022c 00000000     (.......,.......
   1d578:	00000230 00000000 00000234 00000000     0.......4.......
   1d588:	00000238 00000000 0000023c 00000000     8.......<.......
   1d598:	00000240 00000000 00000244 00000000     @.......D.......
   1d5a8:	00000248 00000000 0000024c 00000000     H.......L.......
   1d5b8:	00000250 00000000 00000254 00000000     P.......T.......
   1d5c8:	00000258 00000000 0000025c 00000000     X.......\.......
   1d5d8:	00000260 00000000 00000264 00000000     `.......d.......
   1d5e8:	00000268 00000000 0000026c 00000000     h.......l.......
   1d5f8:	00000270 00000000 00000274 00010000     p.......t.......
   1d608:	00000278 00000000 0000027c 00000800     x.......|.......
   1d618:	00000280 00000000 00000284 00000898     ................
   1d628:	00000288 03000000 0000028c 00000408     ................
   1d638:	00000290 00000000 00000294 00000000     ................
   1d648:	00000298 00000000 0000029c 00000000     ................
   1d658:	000002a0 00000000 000002a4 00000000     ................
   1d668:	000002a8 00000000 000002ac 00000000     ................
   1d678:	000002b0 00000000 000002b4 00000000     ................
   1d688:	000002b8 00000000 000002bc 06060800     ................
   1d698:	000002c0 01000001 000002c4 01030000     ................
   1d6a8:	000002c8 03000302 000002cc 00000000     ................
   1d6b8:	000002d0 00080801 000002d4 00080801     ................
   1d6c8:	000002d8 00070601 000002dc 00000000     ................
   1d6d8:	000002e0 000fffff 000002e4 ffffffff     ................
   1d6e8:	000002e8 000f000f 000002ec 00000000     ................
   1d6f8:	000002f0 030fffff 000002f4 ffffffff     ................
   1d708:	000002f8 000f000f 000002fc 00000000     ................
   1d718:	00000300 030fffff 00000304 ffffffff     ................
   1d728:	00000308 000f000f 0000030c 00000000     ................
   1d738:	00000310 030fffff 00000314 ffffffff     ................
   1d748:	00000318 000f000f 0000031c 00000000     ................
   1d758:	00000320 030fffff 00000324 ffffffff      .......$.......
   1d768:	00000328 000f000f 0000032c 00000000     (.......,.......
   1d778:	00000330 030fffff 00000334 ffffffff     0.......4.......
   1d788:	00000338 000f000f 0000033c 00000000     8.......<.......
   1d798:	00000340 030fffff 00000344 ffffffff     @.......D.......
   1d7a8:	00000348 000f000f 0000034c 00000000     H.......L.......
   1d7b8:	00000350 030fffff 00000354 ffffffff     P.......T.......
   1d7c8:	00000358 000f000f 0000035c 00000000     X.......\.......
   1d7d8:	00000360 030fffff 00000364 ffffffff     `.......d.......
   1d7e8:	00000368 000f000f 0000036c 00000000     h.......l.......
   1d7f8:	00000370 030fffff 00000374 ffffffff     p.......t.......
   1d808:	00000378 000f000f 0000037c 00000000     x.......|.......
   1d818:	00000380 030fffff 00000384 ffffffff     ................
   1d828:	00000388 000f000f 0000038c 00000000     ................
   1d838:	00000390 030fffff 00000394 ffffffff     ................
   1d848:	00000398 000f000f 0000039c 00000000     ................
   1d858:	000003a0 030fffff 000003a4 ffffffff     ................
   1d868:	000003a8 000f000f 000003ac 00000000     ................
   1d878:	000003b0 030fffff 000003b4 ffffffff     ................
   1d888:	000003b8 000f000f 000003bc 00000000     ................
   1d898:	000003c0 030fffff 000003c4 ffffffff     ................
   1d8a8:	000003c8 000f000f 000003cc 00000000     ................
   1d8b8:	000003d0 030fffff 000003d4 ffffffff     ................
   1d8c8:	000003d8 000f000f 000003dc 00000000     ................
   1d8d8:	000003e0 000fffff 000003e4 ffffffff     ................
   1d8e8:	000003e8 000f000f 000003ec 00000000     ................
   1d8f8:	000003f0 030fffff 000003f4 ffffffff     ................
   1d908:	000003f8 000f000f 000003fc 00000000     ................
   1d918:	00000400 030fffff 00000404 ffffffff     ................
   1d928:	00000408 000f000f 0000040c 00000000     ................
   1d938:	00000410 030fffff 00000414 ffffffff     ................
   1d948:	00000418 000f000f 0000041c 00000000     ................
   1d958:	00000420 030fffff 00000424 ffffffff      .......$.......
   1d968:	00000428 000f000f 0000042c 00000000     (.......,.......
   1d978:	00000430 030fffff 00000434 ffffffff     0.......4.......
   1d988:	00000438 000f000f 0000043c 00000000     8.......<.......
   1d998:	00000440 030fffff 00000444 ffffffff     @.......D.......
   1d9a8:	00000448 000f000f 0000044c 00000000     H.......L.......
   1d9b8:	00000450 030fffff 00000454 ffffffff     P.......T.......
   1d9c8:	00000458 000f000f 0000045c 00000000     X.......\.......
   1d9d8:	00000460 030fffff 00000464 ffffffff     `.......d.......
   1d9e8:	00000468 000f000f 0000046c 00000000     h.......l.......
   1d9f8:	00000470 030fffff 00000474 ffffffff     p.......t.......
   1da08:	00000478 000f000f 0000047c 00000000     x.......|.......
   1da18:	00000480 030fffff 00000484 ffffffff     ................
   1da28:	00000488 000f000f 0000048c 00000000     ................
   1da38:	00000490 030fffff 00000494 ffffffff     ................
   1da48:	00000498 000f000f 0000049c 00000000     ................
   1da58:	000004a0 030fffff 000004a4 ffffffff     ................
   1da68:	000004a8 000f000f 000004ac 00000000     ................
   1da78:	000004b0 030fffff 000004b4 ffffffff     ................
   1da88:	000004b8 000f000f 000004bc 00000000     ................
   1da98:	000004c0 030fffff 000004c4 ffffffff     ................
   1daa8:	000004c8 000f000f 000004cc 00000000     ................
   1dab8:	000004d0 030fffff 000004d4 ffffffff     ................
   1dac8:	000004d8 000f000f 000004dc 00000000     ................
   1dad8:	000004e0 000fffff 000004e4 ffffffff     ................
   1dae8:	000004e8 000f000f 000004ec 00000000     ................
   1daf8:	000004f0 030fffff 000004f4 ffffffff     ................
   1db08:	000004f8 000f000f 000004fc 00000000     ................
   1db18:	00000500 030fffff 00000504 ffffffff     ................
   1db28:	00000508 000f000f 0000050c 00000000     ................
   1db38:	00000510 030fffff 00000514 ffffffff     ................
   1db48:	00000518 000f000f 0000051c 00000000     ................
   1db58:	00000520 030fffff 00000524 ffffffff      .......$.......
   1db68:	00000528 000f000f 0000052c 00000000     (.......,.......
   1db78:	00000530 030fffff 00000534 ffffffff     0.......4.......
   1db88:	00000538 000f000f 0000053c 00000000     8.......<.......
   1db98:	00000540 030fffff 00000544 ffffffff     @.......D.......
   1dba8:	00000548 000f000f 0000054c 00000000     H.......L.......
   1dbb8:	00000550 030fffff 00000554 ffffffff     P.......T.......
   1dbc8:	00000558 000f000f 0000055c 00000000     X.......\.......
   1dbd8:	00000560 030fffff 00000564 ffffffff     `.......d.......
   1dbe8:	00000568 000f000f 0000056c 00000000     h.......l.......
   1dbf8:	00000570 030fffff 00000574 ffffffff     p.......t.......
   1dc08:	00000578 000f000f 0000057c 00000000     x.......|.......
   1dc18:	00000580 030fffff 00000584 ffffffff     ................
   1dc28:	00000588 000f000f 0000058c 00000000     ................
   1dc38:	00000590 030fffff 00000594 ffffffff     ................
   1dc48:	00000598 000f000f 0000059c 00000000     ................
   1dc58:	000005a0 030fffff 000005a4 ffffffff     ................
   1dc68:	000005a8 000f000f 000005ac 00000000     ................
   1dc78:	000005b0 030fffff 000005b4 ffffffff     ................
   1dc88:	000005b8 000f000f 000005bc 00000000     ................
   1dc98:	000005c0 030fffff 000005c4 ffffffff     ................
   1dca8:	000005c8 000f000f 000005cc 00000000     ................
   1dcb8:	000005d0 030fffff 000005d4 ffffffff     ................
   1dcc8:	000005d8 000f000f 000005dc 03000000     ................
   1dcd8:	000005e0 03030303 000005e4 03030303     ................
   1dce8:	000005e8 03030303 000005ec 00030303     ................
   1dcf8:	000005f0 02020064 000005f4 02020202     ....d...........
   1dd08:	000005f8 02020202 000005fc 02020202     ................
   1dd18:	00000600 00010202 00000604 01010064     ............d...
   1dd28:	00000608 01010101 0000060c 01010101     ................
   1dd38:	00000610 01010101 00000614 00020101     ................
   1dd48:	00000618 00000064 0000061c 00000006     ....d...........
   1dd58:	00000620 000007d0 00000624 00000032      .......$...2...
   1dd68:	00000628 00000200 0000062c 00000200     (.......,.......
   1dd78:	00000630 00000000 00000634 00000000     0.......4.......
   1dd88:	00000638 030b0205 0000063c 00200308     8.......<..... .
   1dd98:	00000640 00000000 00000644 0a000202     @.......D.......
   1dda8:	00000648 000c000a 0000064c 00000000     H.......L.......
   1ddb8:	00000650 00000000 00000654 00000000     P.......T.......
   1ddc8:	00000658 00000000 0000065c 00000000     X.......\.......
   1ddd8:	00000660 00000000 00000664 00000000     `.......d.......
   1dde8:	00000668 00000000 0000066c 00000000     h.......l.......
   1ddf8:	00000670 0000000f 00000674 037204e2     p.......t.....r.
   1de08:	00000678 57630bb8 0000067c 00002828     x.....cW|...((..
   1de18:	00000680 00003c22 00000684 00102611     ...."<.......&..
   1de28:	00000688 00000000 0000068c 00000000     ................
   1de38:	00000690 00000000 00000694 00000000     ................
   1de48:	00000698 00000000 0000069c 00000000     ................
   1de58:	000006a0 00000000 000006a4 00000000     ................
   1de68:	000006a8 00000000 000006ac 00000000     ................
   1de78:	000006b0 00000000 000006b4 00000000     ................
   1de88:	000006b8 00000000 000006bc 00000000     ................
   1de98:	000006c0 00000000 000006c4 00000000     ................
   1dea8:	000006c8 00000000 000006cc 00000000     ................

000000000001deb8 <plat_prefix_str>:
   1deb8:	0001dee0 00000000 0001def0 00000000     ................
   1dec8:	0001df00 00000000 0001df10 00000000     ................
   1ded8:	0001df20 00000000 4f525245 20203a52      .......ERROR:  
   1dee8:	00000020 00000000 49544f4e 203a4543      .......NOTICE: 
   1def8:	00000020 00000000 4e524157 3a474e49      .......WARNING:
   1df08:	00000020 00000000 4f464e49 2020203a      .......INFO:   
   1df18:	00000020 00000000 42524556 3a45534f      .......VERBOSE:
   1df28:	00000020 00000000 746f4e0a 6f6e6520      ........Not eno
   1df38:	20686775 6f6d656d 74207972 616d206f     ugh memory to ma
   1df48:	65722070 6e6f6967 56200a3a 78303a41     p region:. VA:0x
   1df58:	20786c25 3a415020 6c257830 2020786c     %lx  PA:0x%llx  
   1df68:	657a6973 2578303a 2020787a 72747461     size:0x%zx  attr
   1df78:	2578303a 00000a78 616d6d0a 64615f70     :0x%x....mmap_ad
   1df88:	65725f64 6e6f6967 6568635f 29286b63     d_region_check()
   1df98:	69616620 2e64656c 72726520 2520726f      failed. error %
   1dfa8:	00000a64 00000000 00007830 00000000     d.......0x......

000000000001dfb8 <panic_msg>:
   1dfb8:	494e4150 	.word	0x494e4150
   1dfbc:	74612043 	.word	0x74612043
   1dfc0:	20435020 	.word	0x20435020
   1dfc4:	7830203a 	.word	0x7830203a
	...

000000000001dfd0 <__CPU_OPS_START__>:
   1dfd0:	410fd050 	.word	0x410fd050
   1dfd4:	00000000 	.word	0x00000000
   1dfd8:	00012120 	.word	0x00012120
	...

000000000001e000 <SynchronousExceptionSP0>:
   1e000:	d2800000 	mov	x0, #0x0                   	// #0
   1e004:	97ffd0f2 	bl	123cc <plat_report_exception>
   1e008:	97ffd0f3 	bl	123d4 <plat_panic_handler>
	...

000000000001e080 <IrqSP0>:
   1e080:	d2800020 	mov	x0, #0x1                   	// #1
   1e084:	97ffd0d2 	bl	123cc <plat_report_exception>
   1e088:	97ffd0d3 	bl	123d4 <plat_panic_handler>
	...

000000000001e100 <FiqSP0>:
   1e100:	d2800040 	mov	x0, #0x2                   	// #2
   1e104:	97ffd0b2 	bl	123cc <plat_report_exception>
   1e108:	97ffd0b3 	bl	123d4 <plat_panic_handler>
	...

000000000001e180 <SErrorSP0>:
   1e180:	d2800060 	mov	x0, #0x3                   	// #3
   1e184:	97ffd092 	bl	123cc <plat_report_exception>
   1e188:	97ffd093 	bl	123d4 <plat_panic_handler>
	...

000000000001e200 <SynchronousExceptionSPx>:
   1e200:	d2800080 	mov	x0, #0x4                   	// #4
   1e204:	97ffd072 	bl	123cc <plat_report_exception>
   1e208:	97ffd073 	bl	123d4 <plat_panic_handler>
	...

000000000001e280 <IrqSPx>:
   1e280:	d28000a0 	mov	x0, #0x5                   	// #5
   1e284:	97ffd052 	bl	123cc <plat_report_exception>
   1e288:	97ffd053 	bl	123d4 <plat_panic_handler>
	...

000000000001e300 <FiqSPx>:
   1e300:	d28000c0 	mov	x0, #0x6                   	// #6
   1e304:	97ffd032 	bl	123cc <plat_report_exception>
   1e308:	97ffd033 	bl	123d4 <plat_panic_handler>
	...

000000000001e380 <SErrorSPx>:
   1e380:	d28000e0 	mov	x0, #0x7                   	// #7
   1e384:	97ffd012 	bl	123cc <plat_report_exception>
   1e388:	97ffd013 	bl	123d4 <plat_panic_handler>
	...

000000000001e400 <SynchronousExceptionA64>:
   1e400:	d2800100 	mov	x0, #0x8                   	// #8
   1e404:	97ffcff2 	bl	123cc <plat_report_exception>
   1e408:	97ffcff3 	bl	123d4 <plat_panic_handler>
	...

000000000001e480 <IrqA64>:
   1e480:	d2800120 	mov	x0, #0x9                   	// #9
   1e484:	97ffcfd2 	bl	123cc <plat_report_exception>
   1e488:	97ffcfd3 	bl	123d4 <plat_panic_handler>
	...

000000000001e500 <FiqA64>:
   1e500:	d2800140 	mov	x0, #0xa                   	// #10
   1e504:	97ffcfb2 	bl	123cc <plat_report_exception>
   1e508:	97ffcfb3 	bl	123d4 <plat_panic_handler>
	...

000000000001e580 <SErrorA64>:
   1e580:	d2800160 	mov	x0, #0xb                   	// #11
   1e584:	97ffcf92 	bl	123cc <plat_report_exception>
   1e588:	97ffcf93 	bl	123d4 <plat_panic_handler>
	...

000000000001e600 <SynchronousExceptionA32>:
   1e600:	d2800180 	mov	x0, #0xc                   	// #12
   1e604:	97ffcf72 	bl	123cc <plat_report_exception>
   1e608:	97ffcf73 	bl	123d4 <plat_panic_handler>
	...

000000000001e680 <IrqA32>:
   1e680:	d28001a0 	mov	x0, #0xd                   	// #13
   1e684:	97ffcf52 	bl	123cc <plat_report_exception>
   1e688:	97ffcf53 	bl	123d4 <plat_panic_handler>
	...

000000000001e700 <FiqA32>:
   1e700:	d28001c0 	mov	x0, #0xe                   	// #14
   1e704:	97ffcf32 	bl	123cc <plat_report_exception>
   1e708:	97ffcf33 	bl	123d4 <plat_panic_handler>
	...

000000000001e780 <SErrorA32>:
   1e780:	d28001e0 	mov	x0, #0xf                   	// #15
   1e784:	97ffcf12 	bl	123cc <plat_report_exception>
   1e788:	97ffcf13 	bl	123d4 <plat_panic_handler>
	...

000000000001e800 <__RO_END_UNALIGNED__>:
	...
